Microchip MPLAB XC8 Compiler V2.36

Linker command line:

-W-3 --edf=C:\Program Files\Microchip\xc8\v2.36\pic\dat\en_msgs.txt -cn \
  -h+dist/default/production\graduation_project.production.sym \
  --cmf=dist/default/production\graduation_project.production.cmf -z \
  -Q18F46K20 -oC:\Users\ahmed radwan\AppData\Local\Temp\xcAsisg.4 \
  --defsym=__MPLAB_BUILD=1 \
  -Mdist/default/production/graduation_project.production.map \
  --md=C:\Users\ahmed radwan\AppData\Local\Temp\xcAsisg.dat -E1 \
  -ver=XC8 Compiler --acfsm=1493 -ACODE=00h-0FFFFh -ACONST=00h-0FFFFh \
  -ASMALLCONST=01000h-010FFhx240 -AMEDIUMCONST=01000h-0FFFFh \
  -ACOMRAM=01h-05Fh -AABS1=00h-0F5Fh -ABIGRAM=01h-0F5Fh \
  -ARAM=060h-0FFh,0100h-01FFhx14,0F00h-0F5Fh -ABANK0=060h-0FFh \
  -ABANK1=0100h-01FFh -ABANK2=0200h-02FFh -ABANK3=0300h-03FFh \
  -ABANK4=0400h-04FFh -ABANK5=0500h-05FFh -ABANK6=0600h-06FFh \
  -ABANK7=0700h-07FFh -ABANK8=0800h-08FFh -ABANK9=0900h-09FFh \
  -ABANK10=0A00h-0AFFh -ABANK11=0B00h-0BFFh -ABANK12=0C00h-0CFFh \
  -ABANK13=0D00h-0DFFh -ABANK14=0E00h-0EFFh -ABANK15=0F00h-0F5Fh \
  -ASFR=0F60h-0FFFh -ABIGSFR=0F60h-0FFFh -ACONFIG=0300000h-030000Dh \
  -AIDLOC=0200000h-0200007h -AEEDATA=0F00000h-0F003FFh -peeprom_data=EEDATA \
  -preset_vec=00h,intcode=08h,intcodelo=018h,powerup,init -pramtop=01000h \
  -psmallconst=SMALLCONST -pmediumconst=MEDIUMCONST -pconst=CONST \
  -AFARRAM=00h-00h \
  -prdata=COMRAM,nvrram=COMRAM,nvbit=COMRAM,rbss=COMRAM,rbit=COMRAM \
  -pfarbss=FARRAM,fardata=FARRAM,nvFARRAM=FARRAM \
  -pintsave_regs=BIGRAM,bigbss=BIGRAM,bigdata=BIGRAM -pbss=RAM \
  -pidata=CODE,irdata=CODE,ibigdata=CODE,ifardata=CODE -prparam=COMRAM \
  C:\Users\ahmed radwan\AppData\Local\Temp\xcAsisg.o \
  dist/default/production\graduation_project.production.o 

Object code version is 3.11

Machine type is 18F46K20



                Name                               Link     Load   Length Selector   Space Scale
C:\Users\ahmed radwan\AppData\Local\Temp\xcAsisg.o
                idloc                            200000   200000        8        0       5
                config                           300000   300000        E        0       4
                init                                286      286        4        C       0
                reset_vec                             0        0        4        0       0
dist/default/production\graduation_project.production.o
                intcodelo                            18       18      26E        C       0
                intcode                               8        8        6        4       0
                idloc                            200000   200000        8        0       5
                config                           300000   300000        E        0       4
                temp                                 5B       5B        1        1       1
                smallconst                         1000     1000       48      800       0
                text18                             169C     169C        2      824       0
                text17                             169A     169A        2      824       0
                text16                             1698     1698        2      824       0
                intcode_body                       12B0     12B0       B4      824       0
                text14                             1696     1696        2      824       0
                text13                             1692     1692        4      824       0
                text12                             1678     1678       1A      824       0
                text11                             165E     165E       1A      824       0
                text10                             1644     1644       1A      824       0
                text9                              162A     162A       1A      824       0
                text7                              1188     1188      128      824       0
                text6                              1534     1534       54      824       0
                text5                              1462     1462       70      824       0
                text4                              1048     1048      140      824       0
                text3                              1588     1588       4A      824       0
                text2                              13EE     13EE       74      824       0
                text1                              1610     1610       1A      824       0
                text0                              1364     1364       8A      824       0
                cstackCOMRAM                         46       46       15        1       1
                dataBANK0                            60       60       22       60       1
                bssBANK0                             82       82        F       60       1
                dataCOMRAM                           2A       2A       1C        1       1
                bssCOMRAM                             1        1       29        1       1
                cinit                              14D2     14D2       62      824       0
                idataBANK0                         15D2     15D2       22      824       0
                idataCOMRAM                        15F4     15F4       1C      824       0

TOTAL           Name                               Link     Load   Length     Space
        CLASS   CODE           
                intcodelo                            18       18      26E         0
                intcode                               8        8        6         0
                init                                286      286        4         0
                reset_vec                             0        0        4         0
                text18                             169C     169C        2         0
                text17                             169A     169A        2         0
                text16                             1698     1698        2         0
                intcode_body                       12B0     12B0       B4         0
                text14                             1696     1696        2         0
                text13                             1692     1692        4         0
                text12                             1678     1678       1A         0
                text11                             165E     165E       1A         0
                text10                             1644     1644       1A         0
                text9                              162A     162A       1A         0
                text7                              1188     1188      128         0
                text6                              1534     1534       54         0
                text5                              1462     1462       70         0
                text4                              1048     1048      140         0
                text3                              1588     1588       4A         0
                text2                              13EE     13EE       74         0
                text1                              1610     1610       1A         0
                text0                              1364     1364       8A         0
                cinit                              14D2     14D2       62         0
                idataBANK0                         15D2     15D2       22         0
                idataCOMRAM                        15F4     15F4       1C         0

        CLASS   CONST          

        CLASS   SMALLCONST     
                smallconst                         1000     1000       48         0

        CLASS   MEDIUMCONST    

        CLASS   COMRAM         
                temp                                 5B       5B        1         1
                cstackCOMRAM                         46       46       15         1
                dataCOMRAM                           2A       2A       1C         1
                bssCOMRAM                             1        1       29         1

        CLASS   ABS1           

        CLASS   BIGRAM         

        CLASS   RAM            

        CLASS   BANK0          
                dataBANK0                            60       60       22         1
                bssBANK0                             82       82        F         1

        CLASS   BANK1          

        CLASS   BANK2          

        CLASS   BANK3          

        CLASS   BANK4          

        CLASS   BANK5          

        CLASS   BANK6          

        CLASS   BANK7          

        CLASS   BANK8          

        CLASS   BANK9          

        CLASS   BANK10         

        CLASS   BANK11         

        CLASS   BANK12         

        CLASS   BANK13         

        CLASS   BANK14         

        CLASS   BANK15         

        CLASS   SFR            

        CLASS   BIGSFR         

        CLASS   CONFIG         
                config                           300000   300000        E         4

        CLASS   IDLOC          
                idloc                            200000   200000        8         5

        CLASS   EEDATA         

        CLASS   FARRAM         

        CLASS   HEAP           

        CLASS   STACK          



SEGMENTS        Name                           Load    Length   Top    Selector   Space  Class

                reset_vec                      000000  000004  000004         0       0  CODE    
                bssCOMRAM                      000001  00005B  00005C         1       1  COMRAM  
                intcode                        000008  000006  00000E         4       0  CODE    
                intcodelo                      000018  000272  00028A         C       0  CODE    
                dataBANK0                      000060  000031  000091        60       1  BANK0   
                smallconst                     001000  000048  001048       800       0  SMALLCON
                text4                          001048  000656  00169E       824       0  CODE    


UNUSED ADDRESS RANGES

        Name                Unused          Largest block    Delta
        BANK0            000091-0000FF               6F
        BANK1            000100-0001FF              100
        BANK10           000A00-000AFF              100
        BANK11           000B00-000BFF              100
        BANK12           000C00-000CFF              100
        BANK13           000D00-000DFF              100
        BANK14           000E00-000EFF              100
        BANK15           000F00-000F5F               60
        BANK2            000200-0002FF              100
        BANK3            000300-0003FF              100
        BANK4            000400-0004FF              100
        BANK5            000500-0005FF              100
        BANK6            000600-0006FF              100
        BANK7            000700-0007FF              100
        BANK8            000800-0008FF              100
        BANK9            000900-0009FF              100
        BIGRAM           00005C-00005F                4
                         000091-000F5F              ECF
        BIGSFR           000F60-000FFF               A0
        CODE             000004-000007                4
                         00000E-000017                A
                         00028A-000FFF              D76
                         00169E-00FFFF             E962
        COMRAM           00005C-00005F                4
        CONST            000004-000007                4
                         00000E-000017                A
                         00028A-000FFF              D76
                         00169E-00FFFF             E962
        EEDATA           F00000-F003FF              400
        MEDIUMCONST      00169E-00FFFF             E962
        RAM              000091-000F5F              100
        SFR              000F60-000FFF               A0
        SMALLCONST       00169E-00FFFF              100

                                  Symbol Table

Ecu_Stepper_Init@stepper                  cstackCOMRAM 000057
Ecu_Stepper_Step@stepper                  cstackCOMRAM 000054
GPIO_Pin_Direction_Initialize@ERRORSTATUS cstackCOMRAM 000052
GPIO_Pin_Direction_Initialize@_pin_config cstackCOMRAM 00004A
GPIO_Pin_Initialize@ERRORSTATUS           cstackCOMRAM 000056
GPIO_Pin_Initialize@_pin_config           cstackCOMRAM 000054
GPIO_Pin_Toggle_Logic@_pin_config         cstackCOMRAM 00004A
GPIO_Pin_Write_Logic@ERRORSTATUS          cstackCOMRAM 000053
GPIO_Pin_Write_Logic@_pin_config          cstackCOMRAM 00004A
GPIO_Pin_Write_Logic@logic                cstackCOMRAM 00004C
RB4_ISR@Handler_Select                    cstackCOMRAM 000046
RB5_ISR@Handler_Select                    cstackCOMRAM 000046
RB6_ISR@Handler_Select                    cstackCOMRAM 000046
RB7_ISR@Handler_Select                    cstackCOMRAM 000046
_ADCON0bits                               (abs)        000FC2
_ADCON1bits                               (abs)        000FC1
_ADCON2bits                               (abs)        000FC0
_ADC_ISR                                  text14       001696
_ADRESH                                   (abs)        000FC4
_ADRESL                                   (abs)        000FC3
_BAUDCONbits                              (abs)        000FB8
_CCP1CONbits                              (abs)        000FBD
_CCP1_Obj                                 dataBANK0    000076
_CCP2CONbits                              (abs)        000FBA
_CCP2_Obj                                 dataBANK0    00006A
_CCPR1L                                   (abs)        000FBE
_CCPR2L                                   (abs)        000FBB
_EUSART_Rx_ISR                            text18       00169C
_EUSART_Tx_ISR                            text17       00169A
_Ecu_Stepper_Init                         text2        0013EE
_Ecu_Stepper_Step                         text6        001534
_GPIO_Pin_Direction_Initialize            text4        001048
_GPIO_Pin_Initialize                      text3        001588
_GPIO_Pin_Toggle_Logic                    text5        001462
_GPIO_Pin_Write_Logic                     text7        001188
_I2C_DefaultInterruptHandler              bssCOMRAM    00001F
_I2C_Report_Receive_Overflow              bssCOMRAM    00001D
_I2C_Report_Write_Collision               bssCOMRAM    00001B
_INT0_InterruptHandler                    bssCOMRAM    000019
_INT1_ISR                                 text13       001692
_INT1_InterruptHandler                    bssCOMRAM    000017
_INT2_InterruptHandler                    bssCOMRAM    000015
_INTCON2bits                              (abs)        000FF1
_INTCON3bits                              (abs)        000FF0
_INTCONbits                               (abs)        000FF2
_IPR1bits                                 (abs)        000F9F
_IPR2bits                                 (abs)        000FA2
_InterruptManagerHigh                     intcode      000008
_InterruptManagerLow                      intcodelo    000018
_LATA                                     (abs)        000F89
_LATB                                     (abs)        000F8A
_LATC                                     (abs)        000F8B
_LATD                                     (abs)        000F8C
_LATDbits                                 (abs)        000F8C
_LATE                                     (abs)        000F8D
_Movement_State                           bssCOMRAM    000027
_PIE1bits                                 (abs)        000F9D
_PIE2bits                                 (abs)        000FA0
_PIR1bits                                 (abs)        000F9E
_PIR2bits                                 (abs)        000FA1
_PORTA                                    (abs)        000F80
_PORTB                                    (abs)        000F81
_PORTBbits                                (abs)        000F81
_PORTC                                    (abs)        000F82
_PORTD                                    (abs)        000F83
_PORTDbits                                (abs)        000F83
_PORTE                                    (abs)        000F84
_PR2                                      (abs)        000FCB
_RB4_ISR                                  text12       001678
_RB4_InterruptHandler_HIGH                bssCOMRAM    000013
_RB4_InterruptHandler_LOW                 bssCOMRAM    000011
_RB5_ISR                                  text11       00165E
_RB5_InterruptHandler_HIGH                bssCOMRAM    00000F
_RB5_InterruptHandler_LOW                 bssCOMRAM    00000D
_RB6_ISR                                  text10       001644
_RB6_InterruptHandler_HIGH                bssCOMRAM    00000B
_RB6_InterruptHandler_LOW                 bssCOMRAM    000009
_RB7_ISR                                  text9        00162A
_RB7_InterruptHandler_HIGH                bssCOMRAM    000007
_RB7_InterruptHandler_LOW                 bssCOMRAM    000005
_RCONbits                                 (abs)        000FD0
_RCREG                                    (abs)        000FAE
_RCSTA1bits                               (abs)        000FAB
_RCSTAbits                                (abs)        000FAB
_RX9D                                     (abs)        007D58
_SPBRG                                    (abs)        000FAF
_SPBRGH                                   (abs)        000FB0
_SSPADD                                   (abs)        000FC8
_SSPBUF                                   (abs)        000FC9
_SSPCON1bits                              (abs)        000FC6
_SSPCON2bits                              (abs)        000FC5
_SSPSTATbits                              (abs)        000FC7
_T0CONbits                                (abs)        000FD5
_T3CONbits                                (abs)        000FB1
_TMR0H                                    (abs)        000FD7
_TMR0L                                    (abs)        000FD6
_TMR0_ISR                                 text16       001698
_TRISA                                    (abs)        000F92
_TRISB                                    (abs)        000F93
_TRISBbits                                (abs)        000F93
_TRISC                                    (abs)        000F94
_TRISCbits                                (abs)        000F94
_TRISD                                    (abs)        000F95
_TRISDbits                                (abs)        000F95
_TRISE                                    (abs)        000F96
_TXREG                                    (abs)        000FAD
_TXSTA1bits                               (abs)        000FAC
_TXSTAbits                                (abs)        000FAC
_W1_W3_W5_Motor_Control                   dataCOMRAM   000043
_W2_W4_W6_Motor_Control                   dataCOMRAM   000041
_WDTCONbits                               (abs)        000FD1
__HRAM                                    (abs)        000000
__Habs1                                   abs1         000000
__Hbank0                                  bank0        000000
__Hbank1                                  bank1        000000
__Hbank10                                 bank10       000000
__Hbank11                                 bank11       000000
__Hbank12                                 bank12       000000
__Hbank13                                 bank13       000000
__Hbank14                                 bank14       000000
__Hbank15                                 bank15       000000
__Hbank2                                  bank2        000000
__Hbank3                                  bank3        000000
__Hbank4                                  bank4        000000
__Hbank5                                  bank5        000000
__Hbank6                                  bank6        000000
__Hbank7                                  bank7        000000
__Hbank8                                  bank8        000000
__Hbank9                                  bank9        000000
__Hbigbss                                 bigbss       000000
__Hbigdata                                bigdata      000000
__Hbigram                                 bigram       000000
__Hbigsfr                                 bigsfr       000000
__Hbss                                    bss          000000
__HbssBANK0                               bssBANK0     000000
__HbssCOMRAM                              bssCOMRAM    000000
__Hcinit                                  cinit        000000
__Hclrtext                                clrtext      000000
__Hcomram                                 comram       000000
__Hconfig                                 config       30000E
__Hconst                                  const        000000
__HcstackCOMRAM                           cstackCOMRAM 000000
__Hdata                                   data         000000
__HdataBANK0                              dataBANK0    000000
__HdataCOMRAM                             dataCOMRAM   000000
__Heeprom_data                            eeprom_data  000000
__Hfarbss                                 farbss       000000
__Hfardata                                fardata      000000
__Hheap                                   heap         000000
__Hibigdata                               ibigdata     000000
__Hidata                                  idata        000000
__HidataBANK0                             idataBANK0   000000
__HidataCOMRAM                            idataCOMRAM  000000
__Hidloc                                  idloc        200008
__Hifardata                               ifardata     000000
__Hinit                                   init         00028A
__Hintcode                                intcode      00000E
__Hintcode_body                           intcode_body 000000
__Hintcodelo                              intcodelo    000286
__Hintentry                               intentry     000000
__Hintret                                 intret       000000
__Hintsave_regs                           intsave_regs 000000
__Hirdata                                 irdata       000000
__Hmediumconst                            mediumconst  000000
__HnvFARRAM                               nvFARRAM     000000
__Hnvbit                                  nvbit        000000
__Hnvrram                                 nvrram       000000
__Hparam                                  rparam       000000
__Hpowerup                                powerup      000286
__Hram                                    ram          000000
__Hramtop                                 ramtop       001000
__Hrbit                                   rbit         000000
__Hrbss                                   rbss         000000
__Hrdata                                  rdata        000000
__Hreset_vec                              reset_vec    000004
__Hrparam                                 rparam       000000
__Hsfr                                    sfr          000000
__Hsmallconst                             smallconst   001048
__Hspace_0                                (abs)        00169E
__Hspace_1                                (abs)        000091
__Hspace_2                                (abs)        000000
__Hspace_4                                (abs)        60000E
__Hstack                                  stack        000000
__Hstruct                                 struct       000000
__Htemp                                   temp         00005C
__Htext                                   text         000000
__Htext0                                  text0        000000
__Htext1                                  text1        000000
__Htext10                                 text10       000000
__Htext11                                 text11       000000
__Htext12                                 text12       000000
__Htext13                                 text13       000000
__Htext14                                 text14       000000
__Htext16                                 text16       000000
__Htext17                                 text17       000000
__Htext18                                 text18       000000
__Htext2                                  text2        000000
__Htext3                                  text3        000000
__Htext4                                  text4        000000
__Htext5                                  text5        000000
__Htext6                                  text6        000000
__Htext7                                  text7        000000
__Htext9                                  text9        000000
__LRAM                                    (abs)        000001
__Labs1                                   abs1         000000
__Lbank0                                  bank0        000000
__Lbank1                                  bank1        000000
__Lbank10                                 bank10       000000
__Lbank11                                 bank11       000000
__Lbank12                                 bank12       000000
__Lbank13                                 bank13       000000
__Lbank14                                 bank14       000000
__Lbank15                                 bank15       000000
__Lbank2                                  bank2        000000
__Lbank3                                  bank3        000000
__Lbank4                                  bank4        000000
__Lbank5                                  bank5        000000
__Lbank6                                  bank6        000000
__Lbank7                                  bank7        000000
__Lbank8                                  bank8        000000
__Lbank9                                  bank9        000000
__Lbigbss                                 bigbss       000000
__Lbigdata                                bigdata      000000
__Lbigram                                 bigram       000000
__Lbigsfr                                 bigsfr       000000
__Lbss                                    bss          000000
__LbssBANK0                               bssBANK0     000000
__LbssCOMRAM                              bssCOMRAM    000000
__Lcinit                                  cinit        000000
__Lclrtext                                clrtext      000000
__Lcomram                                 comram       000000
__Lconfig                                 config       000000
__Lconst                                  const        000000
__LcstackCOMRAM                           cstackCOMRAM 000000
__Ldata                                   data         000000
__LdataBANK0                              dataBANK0    000000
__LdataCOMRAM                             dataCOMRAM   000000
__Leeprom_data                            eeprom_data  000000
__Lfarbss                                 farbss       000000
__Lfardata                                fardata      000000
__Lheap                                   heap         000000
__Libigdata                               ibigdata     000000
__Lidata                                  idata        000000
__LidataBANK0                             idataBANK0   000000
__LidataCOMRAM                            idataCOMRAM  000000
__Lidloc                                  idloc        000000
__Lifardata                               ifardata     000000
__Linit                                   init         000286
__Lintcode                                intcode      000008
__Lintcode_body                           intcode_body 000000
__Lintcodelo                              intcodelo    000018
__Lintentry                               intentry     000000
__Lintret                                 intret       000000
__Lintsave_regs                           intsave_regs 000000
__Lirdata                                 irdata       000000
__Lmediumconst                            mediumconst  000000
__LnvFARRAM                               nvFARRAM     000000
__Lnvbit                                  nvbit        000000
__Lnvrram                                 nvrram       000000
__Lparam                                  rparam       000000
__Lpowerup                                powerup      000286
__Lram                                    ram          000000
__Lramtop                                 ramtop       001000
__Lrbit                                   rbit         000000
__Lrbss                                   rbss         000000
__Lrdata                                  rdata        000000
__Lreset_vec                              reset_vec    000000
__Lrparam                                 rparam       000000
__Lsfr                                    sfr          000000
__Lsmallconst                             smallconst   001000
__Lspace_0                                (abs)        000000
__Lspace_1                                (abs)        000000
__Lspace_2                                (abs)        000000
__Lspace_4                                (abs)        000000
__Lstack                                  stack        000000
__Lstruct                                 struct       000000
__Ltemp                                   temp         00005B
__Ltext                                   text         000000
__Ltext0                                  text0        000000
__Ltext1                                  text1        000000
__Ltext10                                 text10       000000
__Ltext11                                 text11       000000
__Ltext12                                 text12       000000
__Ltext13                                 text13       000000
__Ltext14                                 text14       000000
__Ltext16                                 text16       000000
__Ltext17                                 text17       000000
__Ltext18                                 text18       000000
__Ltext2                                  text2        000000
__Ltext3                                  text3        000000
__Ltext4                                  text4        000000
__Ltext5                                  text5        000000
__Ltext6                                  text6        000000
__Ltext7                                  text7        000000
__Ltext9                                  text9        000000
__S0                                      (abs)        00169E
__S1                                      (abs)        000091
__S4                                      (abs)        000000
__S5                                      (abs)        000000
___heap_hi                                (abs)        000000
___heap_lo                                (abs)        000000
___inthi_sp                               stack        000000
___intlo_sp                               stack        000000
___param_bank                             (abs)        000000
___rparam_used                            (abs)        000001
___sp                                     stack        000000
__accesstop                               (abs)        000060
__activetblptr                            (abs)        000003
__end_of_ADC_ISR                          text14       001698
__end_of_EUSART_Rx_ISR                    text18       00169E
__end_of_EUSART_Tx_ISR                    text17       00169C
__end_of_Ecu_Stepper_Init                 text2        001462
__end_of_Ecu_Stepper_Step                 text6        001588
__end_of_GPIO_Pin_Direction_Initialize    text4        001188
__end_of_GPIO_Pin_Initialize              text3        0015D2
__end_of_GPIO_Pin_Toggle_Logic            text5        0014D2
__end_of_GPIO_Pin_Write_Logic             text7        0012B0
__end_of_INT1_ISR                         text13       001696
__end_of_InterruptManagerHigh             intcode_body 001364
__end_of_InterruptManagerLow              intcodelo    000286
__end_of_RB4_ISR                          text12       001692
__end_of_RB5_ISR                          text11       001678
__end_of_RB6_ISR                          text10       00165E
__end_of_RB7_ISR                          text9        001644
__end_of_TMR0_ISR                         text16       00169A
__end_of__initialization                  cinit        00152A
__end_of_application_intialize            text1        00162A
__end_of_main                             text0        0013EE
__initialization                          cinit        0014D2
__mediumconst                             mediumconst  000000
__pbssBANK0                               bssBANK0     000082
__pbssCOMRAM                              bssCOMRAM    000001
__pcinit                                  cinit        0014D2
__pcstackCOMRAM                           cstackCOMRAM 000046
__pdataBANK0                              dataBANK0    000060
__pdataCOMRAM                             dataCOMRAM   00002A
__pidataBANK0                             idataBANK0   0015D2
__pidataCOMRAM                            idataCOMRAM  0015F4
__pintcode                                intcode      000008
__pintcode_body                           intcode_body 0012B0
__pintcodelo                              intcodelo    000018
__psmallconst                             smallconst   001000
__ptext0                                  text0        001364
__ptext1                                  text1        001610
__ptext10                                 text10       001644
__ptext11                                 text11       00165E
__ptext12                                 text12       001678
__ptext13                                 text13       001692
__ptext14                                 text14       001696
__ptext16                                 text16       001698
__ptext17                                 text17       00169A
__ptext18                                 text18       00169C
__ptext2                                  text2        0013EE
__ptext3                                  text3        001588
__ptext4                                  text4        001048
__ptext5                                  text5        001462
__ptext6                                  text6        001534
__ptext7                                  text7        001188
__ptext9                                  text9        00162A
__ramtop                                  ramtop       001000
__smallconst                              smallconst   001000
_application_intialize                    text1        001610
_counter                                  bssCOMRAM    000001
_dir_pin1                                 dataCOMRAM   00003E
_eusart_Rx_InterruptHandler               bssCOMRAM    000025
_eusart_frameerr_CallBack                 bssCOMRAM    000021
_eusart_overrunerr_CallBack               bssCOMRAM    000023
_flags                                    dataCOMRAM   000040
_lat_registers                            dataCOMRAM   00002A
_main                                     text0        001364
_pinc0                                    dataCOMRAM   000045
_port_registers                           dataBANK0    000060
_preloaded_val                            bssCOMRAM    000003
_step_pin1                                dataCOMRAM   00003F
_stepper1                                 bssCOMRAM    000028
_tris_registers                           dataCOMRAM   000034
btemp                                     temp         00005B
end_of_initialization                     cinit        00152A
int$flags                                 temp         00005B
int_func                                  intcode_body 0012B0
intlevel0                                 text         000000
intlevel1                                 text         000000
intlevel2                                 text         000000
intlevel3                                 text         000000
isa$std                                   (abs)        000001
isa$xinst                                 (abs)        000000
stackhi                                   (abs)        000000
stacklo                                   (abs)        000000
start                                     init         000286
start_initialization                      cinit        0014D2
ttemp5                                    temp         00005C
ttemp6                                    temp         00005F
ttemp7                                    temp         000063
wtemp8                                    temp         00005C


MODULE INFORMATION

Module		Function		Class		Link	Load	Size
MCAL/Interrupts/mcal_external_interrupt.c
		_RB4_ISR       		CODE           	1678	0000	26
		_RB5_ISR       		CODE           	165E	0000	26
		_RB6_ISR       		CODE           	1644	0000	26
		_RB7_ISR       		CODE           	162A	0000	26
		_INT1_ISR      		CODE           	1692	0000	4

MCAL/Interrupts/mcal_external_interrupt.c estimated size: 108

MCAL/Timer0/hal_timer0.c
		_TMR0_ISR      		CODE           	1698	0000	2

MCAL/Timer0/hal_timer0.c estimated size: 2

MCAL/GPIO/hal_gpio.c
		_GPIO_Pin_Toggle_Logic		CODE           	1462	0000	112
		_GPIO_Pin_Direction_Initialize		CODE           	1048	0000	320
		_GPIO_Pin_Initialize		CODE           	1588	0000	74
		_GPIO_Pin_Write_Logic		CODE           	1188	0000	296

MCAL/GPIO/hal_gpio.c estimated size: 802

MCAL/Interrupts/mcal_interrupt_manager.c
		_InterruptManagerLow		CODE           	0018	0000	622
		_InterruptManagerHigh		CODE           	0008	0000	186

MCAL/Interrupts/mcal_interrupt_manager.c estimated size: 808

shared
		__initialization		CODE           	14D2	0000	88

shared estimated size: 88

MCAL/EUSART/mcal_EUSART.c
		_EUSART_Rx_ISR 		CODE           	169C	0000	2
		_EUSART_Tx_ISR 		CODE           	169A	0000	2

MCAL/EUSART/mcal_EUSART.c estimated size: 4

application.c
		_main          		CODE           	1364	0000	138
		_application_intialize		CODE           	1610	0000	26

application.c estimated size: 164

MCAL/ADC/mcal_adc.c
		_ADC_ISR       		CODE           	1696	0000	2

MCAL/ADC/mcal_adc.c estimated size: 2

ECU/stepper/ecu_stepper.c
		_Ecu_Stepper_Step		CODE           	1534	0000	84
		_Ecu_Stepper_Init		CODE           	13EE	0000	116

ECU/stepper/ecu_stepper.c estimated size: 200

