

Microchip MPLAB XC8 Assembler V2.30 build 20200825195618 
                                                                                               Mon Nov 07 18:20:06 2022

Microchip MPLAB XC8 C Compiler v2.30 (Free license) build 20200825195618 Og1 
     1                           	processor	18F4620
     2                           	fnconf	rparam,??,?,0
     3                           	pagewidth 120
     4                           	opt	flic
     5                           	psect	idataCOMRAM,global,class=CODE,delta=1,noexec
     6                           	psect	idataBANK0,global,class=CODE,delta=1,noexec
     7                           	psect	smallconst,global,reloc=2,class=SMALLCONST,delta=1,noexec
     8                           	psect	cinit,global,reloc=2,class=CODE,delta=1
     9                           	psect	bssCOMRAM,global,class=COMRAM,space=1,delta=1,lowdata,noexec
    10                           	psect	dataCOMRAM,global,class=COMRAM,space=1,delta=1,lowdata,noexec
    11                           	psect	bssBANK0,global,class=BANK0,space=1,delta=1,lowdata,noexec
    12                           	psect	dataBANK0,global,class=BANK0,space=1,delta=1,lowdata,noexec
    13                           	psect	cstackBANK1,global,class=BANK1,space=1,delta=1,lowdata,noexec
    14                           	psect	cstackBANK0,global,class=BANK0,space=1,delta=1,lowdata,noexec
    15                           	psect	cstackCOMRAM,global,class=COMRAM,space=1,delta=1,lowdata,noexec
    16                           	psect	text0,global,reloc=2,class=CODE,delta=1
    17                           	psect	text1,global,reloc=2,class=CODE,delta=1
    18                           	psect	text2,global,reloc=2,class=CODE,delta=1
    19                           	psect	text3,global,reloc=2,class=CODE,delta=1
    20                           	psect	text4,global,reloc=2,class=CODE,delta=1
    21                           	psect	text5,global,reloc=2,class=CODE,delta=1
    22                           	psect	text6,global,reloc=2,class=CODE,delta=1,inline
    23                           	psect	text7,global,reloc=2,class=CODE,delta=1,group=1
    24                           	psect	text8,global,reloc=2,class=CODE,delta=1,group=1
    25                           	psect	text9,global,reloc=2,class=CODE,delta=1,group=1
    26                           	psect	text10,global,reloc=2,class=CODE,delta=1,group=1
    27                           	psect	text11,global,reloc=2,class=CODE,delta=1,inline
    28                           	psect	text12,global,reloc=2,class=CODE,delta=1,inline
    29                           	psect	text13,global,reloc=2,class=CODE,delta=1,inline
    30                           	psect	text14,global,reloc=2,class=CODE,delta=1
    31                           	psect	text15,global,reloc=2,class=CODE,delta=1
    32                           	psect	text16,global,reloc=2,class=CODE,delta=1
    33                           	psect	text17,global,reloc=2,class=CODE,delta=1
    34                           	psect	text18,global,reloc=2,class=CODE,delta=1
    35                           	psect	text19,global,reloc=2,class=CODE,delta=1
    36                           	psect	text20,global,reloc=2,class=CODE,delta=1
    37                           	psect	text21,global,reloc=2,class=CODE,delta=1
    38                           	psect	text22,global,reloc=2,class=CODE,delta=1
    39                           	psect	text23,global,reloc=2,class=CODE,delta=1
    40                           	psect	text24,global,reloc=2,class=CODE,delta=1,inline
    41                           	psect	text25,global,reloc=2,class=CODE,delta=1,inline
    42                           	psect	text26,global,reloc=2,class=CODE,delta=1
    43                           	psect	intcodelo,global,reloc=2,class=CODE,delta=1
    44                           	psect	text28,global,reloc=2,class=CODE,delta=1
    45                           	psect	text29,global,reloc=2,class=CODE,delta=1
    46                           	psect	text30,global,reloc=2,class=CODE,delta=1
    47                           	psect	text31,global,reloc=2,class=CODE,delta=1
    48                           	psect	text32,global,reloc=2,class=CODE,delta=1
    49                           	psect	intcode,global,reloc=2,class=CODE,delta=1
    50                           	psect	intcode_body,global,reloc=2,class=CODE,delta=1
    51                           	psect	text34,global,reloc=2,class=CODE,delta=1
    52                           	psect	text35,global,reloc=2,class=CODE,delta=1
    53                           	psect	text36,global,reloc=2,class=CODE,delta=1
    54                           	psect	text37,global,reloc=2,class=CODE,delta=1
    55                           	psect	text38,global,reloc=2,class=CODE,delta=1
    56                           	psect	text39,global,reloc=2,class=CODE,delta=1
    57                           	psect	text40,global,reloc=2,class=CODE,delta=1
    58                           	psect	text41,global,reloc=2,class=CODE,delta=1
    59                           	psect	text42,global,reloc=2,class=CODE,delta=1
    60                           	psect	text43,global,reloc=2,class=CODE,delta=1
    61                           	psect	text44,global,reloc=2,class=CODE,delta=1
    62                           	psect	text45,global,reloc=2,class=CODE,delta=1
    63                           	psect	text46,global,reloc=2,class=CODE,delta=1
    64                           	psect	text47,global,reloc=2,class=CODE,delta=1
    65                           	psect	text48,global,reloc=2,class=CODE,delta=1
    66                           	psect	text49,global,reloc=2,class=CODE,delta=1
    67                           	psect	text50,global,reloc=2,class=CODE,delta=1,inline
    68                           	psect	text51,global,reloc=2,class=CODE,delta=1,inline
    69                           	psect	intsave_regs,global,class=BIGRAM,space=1,delta=1,noexec
    70                           	psect	text52,global,reloc=2,class=CODE,delta=1,inline
    71                           	psect	rparam,global,class=COMRAM,space=1,delta=1,noexec
    72                           	psect	temp,global,ovrld,common,class=COMRAM,space=1,delta=1
    73                           	psect	idloc,global,abs,ovrld,class=IDLOC,space=5,delta=1,noexec
    74                           	psect	config,global,abs,ovrld,class=CONFIG,space=4,delta=1,noexec
    75  0000                     
    76                           ; Version 2.40
    77                           ; Generated 17/11/2021 GMT
    78                           ; 
    79                           ; Copyright © 2021, Microchip Technology Inc. and its subsidiaries ("Microchip")
    80                           ; All rights reserved.
    81                           ; 
    82                           ; This software is developed by Microchip Technology Inc. and its subsidiaries ("Microch
      +                          ip").
    83                           ; 
    84                           ; Redistribution and use in source and binary forms, with or without modification, are
    85                           ; permitted provided that the following conditions are met:
    86                           ; 
    87                           ;     1. Redistributions of source code must retain the above copyright notice, this lis
      +                          t of
    88                           ;        conditions and the following disclaimer.
    89                           ; 
    90                           ;     2. Redistributions in binary form must reproduce the above copyright notice, this 
      +                          list
    91                           ;        of conditions and the following disclaimer in the documentation and/or other
    92                           ;        materials provided with the distribution. Publication is not required when
    93                           ;        this file is used in an embedded application.
    94                           ; 
    95                           ;     3. Microchip's name may not be used to endorse or promote products derived from th
      +                          is
    96                           ;        software without specific prior written permission.
    97                           ; 
    98                           ; THIS SOFTWARE IS PROVIDED BY MICROCHIP "AS IS" AND ANY EXPRESS OR IMPLIED WARRANTIES,
    99                           ; INCLUDING, BUT NOT LIMITED TO, THE IMPLIED WARRANTIES OF MERCHANTABILITY AND FITNESS F
      +                          OR
   100                           ; PURPOSE ARE DISCLAIMED.  IN NO EVENT SHALL MICROCHIP BE LIABLE FOR ANY DIRECT, INDIREC
      +                          T,
   101                           ; INCIDENTAL, SPECIAL, EXEMPLARY, OR CONSEQUENTIAL DAMAGES (INCLUDING BUT NOT LIMITED TO
   102                           ; PROCUREMENT OF SUBSTITUTE GOODS OR SERVICES; LOSS OF USE, DATA OR PROFITS; OR BUSINESS
   103                           ; INTERRUPTION) HOWSOEVER CAUSED AND ON ANY THEORY OF LIABILITY, WHETHER IN CONTRACT, ST
      +                          RICT
   104                           ; LIABILITY, OR TORT (INCLUDING NEGLIGENCE OR OTHERWISE) ARISING IN ANY WAY OUT OF THE U
      +                          SE OF
   105                           ; THIS SOFTWARE, EVEN IF ADVISED OF THE POSSIBILITY OF SUCH DAMAGE.
   106                           ; 
   107                           ; 
   108                           ; Code-generator required, PIC18F4620 Definitions
   109                           ; 
   110                           ; SFR Addresses
   111  0000                     
   112                           	psect	idataCOMRAM
   113  003D74                     __pidataCOMRAM:
   114                           	callstack 0
   115                           
   116                           ;initializer for _blue
   117  003D74  01                 	db	1
   118                           
   119                           ;initializer for _gps
   120  003D75  01                 	db	1
   121                           
   122                           ;initializer for _datasend
   123  003D76  77                 	db	119
   124                           
   125                           ;initializer for _flags
   126  003D77  0F                 	db	15
   127                           
   128                           ;initializer for _lcd1
   129  003D78  10                 	db	16
   130  003D79  11                 	db	17
   131  003D7A  12                 	db	18
   132  003D7B  13                 	db	19
   133  003D7C  14                 	db	20
   134  003D7D  15                 	db	21
   135                           
   136                           ;initializer for _selector
   137  003D7E  08                 	db	8
   138                           
   139                           ;initializer for _pind1
   140  003D7F  99                 	db	153
   141                           
   142                           ;initializer for _pind2
   143  003D80  1A                 	db	26
   144                           
   145                           	psect	idataBANK0
   146  003CB8                     __pidataBANK0:
   147                           	callstack 0
   148                           
   149                           ;initializer for _port_registers
   150  003CB8  80                 	db	128
   151  003CB9  0F                 	db	15
   152  003CBA  81                 	db	129
   153  003CBB  0F                 	db	15
   154  003CBC  82                 	db	130
   155  003CBD  0F                 	db	15
   156  003CBE  83                 	db	131
   157  003CBF  0F                 	db	15
   158  003CC0  84                 	db	132
   159  003CC1  0F                 	db	15
   160                           
   161                           ;initializer for _lat_registers
   162  003CC2  89                 	db	137
   163  003CC3  0F                 	db	15
   164  003CC4  8A                 	db	138
   165  003CC5  0F                 	db	15
   166  003CC6  8B                 	db	139
   167  003CC7  0F                 	db	15
   168  003CC8  8C                 	db	140
   169  003CC9  0F                 	db	15
   170  003CCA  8D                 	db	141
   171  003CCB  0F                 	db	15
   172                           
   173                           ;initializer for _tris_registers
   174  003CCC  92                 	db	146
   175  003CCD  0F                 	db	15
   176  003CCE  93                 	db	147
   177  003CCF  0F                 	db	15
   178  003CD0  94                 	db	148
   179  003CD1  0F                 	db	15
   180  003CD2  95                 	db	149
   181  003CD3  0F                 	db	15
   182  003CD4  96                 	db	150
   183  003CD5  0F                 	db	15
   184                           
   185                           ;initializer for __uart_obj
   186  003CD6  2580               	dw	9600
   187  003CD8  04                 	db	4
   188  003CD9  76                 	db	low _usart_isr
   189  003CDA  3B                 	db	high _usart_isr
   190  003CDB  00                 	db	0
   191  003CDC  00                 	db	0
   192  003CDD  00                 	db	0
   193  003CDE  00                 	db	0
   194  003CDF  09                 	db	9
   195  003CE0  00                 	db	0
   196  003CE1  00                 	db	0
   197  0000                     _INTCON2bits	set	4081
   198  0000                     _TRISBbits	set	3987
   199  0000                     _PORTBbits	set	3969
   200  0000                     _INTCON3bits	set	4080
   201  0000                     _IPR2bits	set	4002
   202  0000                     _PIR2bits	set	4001
   203  0000                     _SSPBUF	set	4041
   204  0000                     _PIE2bits	set	4000
   205  0000                     _SSPSTATbits	set	4039
   206  0000                     _SSPADD	set	4040
   207  0000                     _SSPCON2bits	set	4037
   208  0000                     _SSPCON1bits	set	4038
   209  0000                     _SPBRGH	set	4016
   210  0000                     _SPBRG	set	4015
   211  0000                     _BAUDCONbits	set	4024
   212  0000                     _INTCONbits	set	4082
   213  0000                     _IPR1bits	set	3999
   214  0000                     _RCONbits	set	4048
   215  0000                     _RCSTA1bits	set	4011
   216  0000                     _RCREG	set	4014
   217  0000                     _PIR1bits	set	3998
   218  0000                     _TXREG	set	4013
   219  0000                     _TXSTAbits	set	4012
   220  0000                     _PIE1bits	set	3997
   221  0000                     _TRISCbits	set	3988
   222  0000                     _TXSTA1bits	set	4012
   223  0000                     _RCSTAbits	set	4011
   224  0000                     _PORTE	set	3972
   225  0000                     _PORTD	set	3971
   226  0000                     _PORTC	set	3970
   227  0000                     _PORTB	set	3969
   228  0000                     _PORTA	set	3968
   229  0000                     _LATE	set	3981
   230  0000                     _LATD	set	3980
   231  0000                     _LATC	set	3979
   232  0000                     _LATB	set	3978
   233  0000                     _LATA	set	3977
   234  0000                     _TRISE	set	3990
   235  0000                     _TRISD	set	3989
   236  0000                     _TRISC	set	3988
   237  0000                     _TRISB	set	3987
   238  0000                     _TRISA	set	3986
   239  0000                     _RX9D	set	32088
   240                           
   241                           	psect	smallconst
   242  001000                     __psmallconst:
   243                           	callstack 0
   244  001000  00                 	db	0
   245  001001  41                 	db	65	;'A'
   246  001002  54                 	db	84	;'T'
   247  001003  2B                 	db	43
   248  001004  55                 	db	85	;'U'
   249  001005  41                 	db	65	;'A'
   250  001006  52                 	db	82	;'R'
   251  001007  54                 	db	84	;'T'
   252  001008  3A                 	db	58	;':'
   253  001009  39                 	db	57	;'9'
   254  00100A  36                 	db	54	;'6'
   255  00100B  30                 	db	48	;'0'
   256  00100C  30                 	db	48	;'0'
   257  00100D  2C                 	db	44
   258  00100E  30                 	db	48	;'0'
   259  00100F  2C                 	db	44
   260  001010  30                 	db	48	;'0'
   261  001011  0D                 	db	13
   262  001012  0A                 	db	10
   263  001013  00                 	db	0
   264  001014  41                 	db	65	;'A'
   265  001015  54                 	db	84	;'T'
   266  001016  2B                 	db	43
   267  001017  52                 	db	82	;'R'
   268  001018  4E                 	db	78	;'N'
   269  001019  41                 	db	65	;'A'
   270  00101A  4D                 	db	77	;'M'
   271  00101B  45                 	db	69	;'E'
   272  00101C  3A                 	db	58	;':'
   273  00101D  52                 	db	82	;'R'
   274  00101E  6F                 	db	111	;'o'
   275  00101F  62                 	db	98	;'b'
   276  001020  6F                 	db	111	;'o'
   277  001021  74                 	db	116	;'t'
   278  001022  0D                 	db	13
   279  001023  0A                 	db	10
   280  001024  00                 	db	0
   281  001025                     STR_27:
   282  001025  72                 	db	114	;'r'
   283  001026  69                 	db	105	;'i'
   284  001027  67                 	db	103	;'g'
   285  001028  68                 	db	104	;'h'
   286  001029  74                 	db	116	;'t'
   287  00102A  20                 	db	32
   288  00102B  62                 	db	98	;'b'
   289  00102C  61                 	db	97	;'a'
   290  00102D  63                 	db	99	;'c'
   291  00102E  6B                 	db	107	;'k'
   292  00102F  77                 	db	119	;'w'
   293  001030  61                 	db	97	;'a'
   294  001031  72                 	db	114	;'r'
   295  001032  64                 	db	100	;'d'
   296  001033  3A                 	db	58	;':'
   297  001034  00                 	db	0
   298  001035                     STR_10:
   299  001035  20                 	db	32
   300  001036  20                 	db	32
   301  001037  20                 	db	32
   302  001038  20                 	db	32
   303  001039  20                 	db	32
   304  00103A  20                 	db	32
   305  00103B  20                 	db	32
   306  00103C  20                 	db	32
   307  00103D  20                 	db	32
   308  00103E  20                 	db	32
   309  00103F  20                 	db	32
   310  001040  20                 	db	32
   311  001041  20                 	db	32
   312  001042  20                 	db	32
   313  001043  00                 	db	0
   314  001044                     STR_34:
   315  001044  2D                 	db	45
   316  001045  20                 	db	32
   317  001046  20                 	db	32
   318  001047  20                 	db	32
   319  001048  20                 	db	32
   320  001049  20                 	db	32
   321  00104A  20                 	db	32
   322  00104B  20                 	db	32
   323  00104C  20                 	db	32
   324  00104D  20                 	db	32
   325  00104E  20                 	db	32
   326  00104F  20                 	db	32
   327  001050  20                 	db	32
   328  001051  20                 	db	32
   329  001052  00                 	db	0
   330  001053                     STR_23:
   331  001053  6C                 	db	108	;'l'
   332  001054  65                 	db	101	;'e'
   333  001055  66                 	db	102	;'f'
   334  001056  74                 	db	116	;'t'
   335  001057  20                 	db	32
   336  001058  62                 	db	98	;'b'
   337  001059  61                 	db	97	;'a'
   338  00105A  63                 	db	99	;'c'
   339  00105B  6B                 	db	107	;'k'
   340  00105C  77                 	db	119	;'w'
   341  00105D  61                 	db	97	;'a'
   342  00105E  72                 	db	114	;'r'
   343  00105F  64                 	db	100	;'d'
   344  001060  3A                 	db	58	;':'
   345  001061  00                 	db	0
   346  001062                     STR_17:
   347  001062  72                 	db	114	;'r'
   348  001063  69                 	db	105	;'i'
   349  001064  67                 	db	103	;'g'
   350  001065  68                 	db	104	;'h'
   351  001066  74                 	db	116	;'t'
   352  001067  20                 	db	32
   353  001068  66                 	db	102	;'f'
   354  001069  6F                 	db	111	;'o'
   355  00106A  72                 	db	114	;'r'
   356  00106B  77                 	db	119	;'w'
   357  00106C  61                 	db	97	;'a'
   358  00106D  72                 	db	114	;'r'
   359  00106E  64                 	db	100	;'d'
   360  00106F  3A                 	db	58	;':'
   361  001070  00                 	db	0
   362  001071  41                 	db	65	;'A'
   363  001072  54                 	db	84	;'T'
   364  001073  2B                 	db	43
   365  001074  50                 	db	80	;'P'
   366  001075  53                 	db	83	;'S'
   367  001076  57                 	db	87	;'W'
   368  001077  44                 	db	68	;'D'
   369  001078  3A                 	db	58	;':'
   370  001079  31                 	db	49	;'1'
   371  00107A  32                 	db	50	;'2'
   372  00107B  33                 	db	51	;'3'
   373  00107C  34                 	db	52	;'4'
   374  00107D  0D                 	db	13
   375  00107E  0A                 	db	10
   376  00107F  00                 	db	0
   377  001080                     STR_13:
   378  001080  6C                 	db	108	;'l'
   379  001081  65                 	db	101	;'e'
   380  001082  66                 	db	102	;'f'
   381  001083  74                 	db	116	;'t'
   382  001084  20                 	db	32
   383  001085  66                 	db	102	;'f'
   384  001086  6F                 	db	111	;'o'
   385  001087  72                 	db	114	;'r'
   386  001088  77                 	db	119	;'w'
   387  001089  61                 	db	97	;'a'
   388  00108A  72                 	db	114	;'r'
   389  00108B  64                 	db	100	;'d'
   390  00108C  3A                 	db	58	;':'
   391  00108D  00                 	db	0
   392  00108E                     STR_29:
   393  00108E  72                 	db	114	;'r'
   394  00108F  6F                 	db	111	;'o'
   395  001090  74                 	db	116	;'t'
   396  001091  61                 	db	97	;'a'
   397  001092  74                 	db	116	;'t'
   398  001093  65                 	db	101	;'e'
   399  001094  20                 	db	32
   400  001095  6C                 	db	108	;'l'
   401  001096  65                 	db	101	;'e'
   402  001097  66                 	db	102	;'f'
   403  001098  74                 	db	116	;'t'
   404  001099  3A                 	db	58	;':'
   405  00109A  00                 	db	0
   406  00109B                     STR_33:
   407  00109B  64                 	db	100	;'d'
   408  00109C  65                 	db	101	;'e'
   409  00109D  66                 	db	102	;'f'
   410  00109E  61                 	db	97	;'a'
   411  00109F  75                 	db	117	;'u'
   412  0010A0  6C                 	db	108	;'l'
   413  0010A1  74                 	db	116	;'t'
   414  0010A2  20                 	db	32
   415  0010A3  63                 	db	99	;'c'
   416  0010A4  61                 	db	97	;'a'
   417  0010A5  73                 	db	115	;'s'
   418  0010A6  65                 	db	101	;'e'
   419  0010A7  00                 	db	0
   420  0010A8                     STR_21:
   421  0010A8  74                 	db	116	;'t'
   422  0010A9  75                 	db	117	;'u'
   423  0010AA  72                 	db	114	;'r'
   424  0010AB  6E                 	db	110	;'n'
   425  0010AC  20                 	db	32
   426  0010AD  72                 	db	114	;'r'
   427  0010AE  69                 	db	105	;'i'
   428  0010AF  67                 	db	103	;'g'
   429  0010B0  68                 	db	104	;'h'
   430  0010B1  74                 	db	116	;'t'
   431  0010B2  3A                 	db	58	;':'
   432  0010B3  00                 	db	0
   433  0010B4  41                 	db	65	;'A'
   434  0010B5  54                 	db	84	;'T'
   435  0010B6  2B                 	db	43
   436  0010B7  52                 	db	82	;'R'
   437  0010B8  4F                 	db	79	;'O'
   438  0010B9  4C                 	db	76	;'L'
   439  0010BA  45                 	db	69	;'E'
   440  0010BB  3A                 	db	58	;':'
   441  0010BC  30                 	db	48	;'0'
   442  0010BD  0D                 	db	13
   443  0010BE  0A                 	db	10
   444  0010BF  00                 	db	0
   445  0010C0                     STR_19:
   446  0010C0  74                 	db	116	;'t'
   447  0010C1  75                 	db	117	;'u'
   448  0010C2  72                 	db	114	;'r'
   449  0010C3  6E                 	db	110	;'n'
   450  0010C4  20                 	db	32
   451  0010C5  6C                 	db	108	;'l'
   452  0010C6  65                 	db	101	;'e'
   453  0010C7  66                 	db	102	;'f'
   454  0010C8  74                 	db	116	;'t'
   455  0010C9  3A                 	db	58	;':'
   456  0010CA  00                 	db	0
   457  0010CB                     STR_11:
   458  0010CB  6E                 	db	110	;'n'
   459  0010CC  6F                 	db	111	;'o'
   460  0010CD  20                 	db	32
   461  0010CE  74                 	db	116	;'t'
   462  0010CF  68                 	db	104	;'h'
   463  0010D0  69                 	db	105	;'i'
   464  0010D1  6E                 	db	110	;'n'
   465  0010D2  67                 	db	103	;'g'
   466  0010D3  00                 	db	0
   467  0010D4                     STR_9:
   468  0010D4  2D                 	db	45
   469  0010D5  3E                 	db	62	;'>'
   470  0010D6  20                 	db	32
   471  0010D7  00                 	db	0
   472  0010D8                     STR_31:
   473  0010D8  67                 	db	103	;'g'
   474  0010D9  70                 	db	112	;'p'
   475  0010DA  73                 	db	115	;'s'
   476  0010DB  00                 	db	0
   477  0010DC                     STR_5:
   478  0010DC  25                 	db	37
   479  0010DD  69                 	db	105	;'i'
   480  0010DE  00                 	db	0
   481  0010DF  00                 	db	0	; dummy byte at the end
   482  0000                     
   483                           ; #config settings
   484                           
   485                           	psect	cinit
   486  0039B4                     __pcinit:
   487                           	callstack 0
   488  0039B4                     start_initialization:
   489                           	callstack 0
   490  0039B4                     __initialization:
   491                           	callstack 0
   492                           
   493                           ; Initialize objects allocated to BANK0 (42 bytes)
   494                           ; load TBLPTR registers with __pidataBANK0
   495  0039B4  0EB8               	movlw	low __pidataBANK0
   496  0039B6  6EF6               	movwf	tblptrl,c
   497  0039B8  0E3C               	movlw	high __pidataBANK0
   498  0039BA  6EF7               	movwf	tblptrh,c
   499  0039BC  0E00               	movlw	low (__pidataBANK0 shr (0+16))
   500  0039BE  6EF8               	movwf	tblptru,c
   501  0039C0  EE00  F0D6         	lfsr	0,__pdataBANK0
   502  0039C4  EE10 F02A          	lfsr	1,42
   503  0039C8                     copy_data0:
   504  0039C8  0009               	tblrd		*+
   505  0039CA  CFF5 FFEE          	movff	tablat,postinc0
   506  0039CE  50E5               	movf	postdec1,w,c
   507  0039D0  50E1               	movf	fsr1l,w,c
   508  0039D2  E1FA               	bnz	copy_data0
   509                           
   510                           ; Initialize objects allocated to COMRAM (13 bytes)
   511                           ; load TBLPTR registers with __pidataCOMRAM
   512  0039D4  0E74               	movlw	low __pidataCOMRAM
   513  0039D6  6EF6               	movwf	tblptrl,c
   514  0039D8  0E3D               	movlw	high __pidataCOMRAM
   515  0039DA  6EF7               	movwf	tblptrh,c
   516  0039DC  0E00               	movlw	low (__pidataCOMRAM shr (0+16))
   517  0039DE  6EF8               	movwf	tblptru,c
   518  0039E0  EE00  F049         	lfsr	0,__pdataCOMRAM
   519  0039E4  EE10 F00D          	lfsr	1,13
   520  0039E8                     copy_data1:
   521  0039E8  0009               	tblrd		*+
   522  0039EA  CFF5 FFEE          	movff	tablat,postinc0
   523  0039EE  50E5               	movf	postdec1,w,c
   524  0039F0  50E1               	movf	fsr1l,w,c
   525  0039F2  E1FA               	bnz	copy_data1
   526                           
   527                           ; Clear objects allocated to BANK0 (42 bytes)
   528  0039F4  EE00  F0AC         	lfsr	0,__pbssBANK0
   529  0039F8  0E2A               	movlw	42
   530  0039FA                     clear_0:
   531  0039FA  6AEE               	clrf	postinc0,c
   532  0039FC  06E8               	decf	wreg,f,c
   533  0039FE  E1FD               	bnz	clear_0
   534                           
   535                           ; Clear objects allocated to COMRAM (28 bytes)
   536  003A00  EE00  F02D         	lfsr	0,__pbssCOMRAM
   537  003A04  0E1C               	movlw	28
   538  003A06                     clear_1:
   539  003A06  6AEE               	clrf	postinc0,c
   540  003A08  06E8               	decf	wreg,f,c
   541  003A0A  E1FD               	bnz	clear_1
   542  003A0C                     end_of_initialization:
   543                           	callstack 0
   544  003A0C                     __end_of__initialization:
   545                           	callstack 0
   546  003A0C  9056               	bcf	int$flags,0,c	;clear compiler interrupt flag (level 1)
   547  003A0E  9256               	bcf	int$flags,1,c	;clear compiler interrupt flag (level 2)
   548  003A10  0100               	movlb	0
   549  003A12  EFEC  F00A         	goto	_main	;jump to C main() function
   550                           
   551                           	psect	bssCOMRAM
   552  00002D                     __pbssCOMRAM:
   553                           	callstack 0
   554  00002D                     _RB7_InterruptHandler_LOW:
   555                           	callstack 0
   556  00002D                     	ds	2
   557  00002F                     _RB7_InterruptHandler_HIGH:
   558                           	callstack 0
   559  00002F                     	ds	2
   560  000031                     _RB6_InterruptHandler_LOW:
   561                           	callstack 0
   562  000031                     	ds	2
   563  000033                     _RB6_InterruptHandler_HIGH:
   564                           	callstack 0
   565  000033                     	ds	2
   566  000035                     _RB5_InterruptHandler_LOW:
   567                           	callstack 0
   568  000035                     	ds	2
   569  000037                     _RB5_InterruptHandler_HIGH:
   570                           	callstack 0
   571  000037                     	ds	2
   572  000039                     _RB4_InterruptHandler_LOW:
   573                           	callstack 0
   574  000039                     	ds	2
   575  00003B                     _RB4_InterruptHandler_HIGH:
   576                           	callstack 0
   577  00003B                     	ds	2
   578  00003D                     _INT2_InterruptHandler:
   579                           	callstack 0
   580  00003D                     	ds	2
   581  00003F                     _INT1_InterruptHandler:
   582                           	callstack 0
   583  00003F                     	ds	2
   584  000041                     _INT0_InterruptHandler:
   585                           	callstack 0
   586  000041                     	ds	2
   587  000043                     _eusart_Rx_InterruptHandler:
   588                           	callstack 0
   589  000043                     	ds	2
   590  000045                     _counter:
   591                           	callstack 0
   592  000045                     	ds	1
   593  000046                     _i:
   594                           	callstack 0
   595  000046                     	ds	1
   596  000047                     _gpstemp:
   597                           	callstack 0
   598  000047                     	ds	1
   599  000048                     _datarecive:
   600                           	callstack 0
   601  000048                     	ds	1
   602                           
   603                           	psect	dataCOMRAM
   604  000049                     __pdataCOMRAM:
   605                           	callstack 0
   606  000049                     _blue:
   607                           	callstack 0
   608  000049                     	ds	1
   609  00004A                     _gps:
   610                           	callstack 0
   611  00004A                     	ds	1
   612  00004B                     _datasend:
   613                           	callstack 0
   614  00004B                     	ds	1
   615  00004C                     _flags:
   616                           	callstack 0
   617  00004C                     	ds	1
   618  00004D                     _lcd1:
   619                           	callstack 0
   620  00004D                     	ds	6
   621  000053                     _selector:
   622                           	callstack 0
   623  000053                     	ds	1
   624  000054                     _pind1:
   625                           	callstack 0
   626  000054                     	ds	1
   627  000055                     _pind2:
   628                           	callstack 0
   629  000055                     	ds	1
   630                           
   631                           	psect	bssBANK0
   632  0000AC                     __pbssBANK0:
   633                           	callstack 0
   634  0000AC                     	ds	6
   635  0000B2                     _I2C_Report_Write_Collision:
   636                           	callstack 0
   637  0000B2                     	ds	2
   638  0000B4                     _I2C_Report_Receive_Overflow:
   639                           	callstack 0
   640  0000B4                     	ds	2
   641  0000B6                     _I2C_DefaultInterruptHandler:
   642                           	callstack 0
   643  0000B6                     	ds	2
   644  0000B8                     _eusart_frameerr_CallBack:
   645                           	callstack 0
   646  0000B8                     	ds	2
   647  0000BA                     _eusart_overrunerr_CallBack:
   648                           	callstack 0
   649  0000BA                     	ds	2
   650  0000BC                     _longtude:
   651                           	callstack 0
   652  0000BC                     	ds	13
   653  0000C9                     _latitude:
   654                           	callstack 0
   655  0000C9                     	ds	13
   656                           
   657                           	psect	dataBANK0
   658  0000D6                     __pdataBANK0:
   659                           	callstack 0
   660  0000D6                     _port_registers:
   661                           	callstack 0
   662  0000D6                     	ds	10
   663  0000E0                     _lat_registers:
   664                           	callstack 0
   665  0000E0                     	ds	10
   666  0000EA                     _tris_registers:
   667                           	callstack 0
   668  0000EA                     	ds	10
   669  0000F4                     __uart_obj:
   670                           	callstack 0
   671  0000F4                     	ds	12
   672                           
   673                           	psect	cstackBANK1
   674  000100                     __pcstackBANK1:
   675                           	callstack 0
   676  000100                     ?___fladd:
   677                           	callstack 0
   678  000100                     ___fladd@b:
   679                           	callstack 0
   680                           
   681                           ; 4 bytes @ 0x0
   682  000100                     	ds	4
   683  000104                     ___fladd@a:
   684                           	callstack 0
   685                           
   686                           ; 4 bytes @ 0x4
   687  000104                     	ds	4
   688  000108                     ___fladd@signs:
   689                           	callstack 0
   690                           
   691                           ; 1 bytes @ 0x8
   692  000108                     	ds	1
   693  000109                     ___fladd@aexp:
   694                           	callstack 0
   695                           
   696                           ; 1 bytes @ 0x9
   697  000109                     	ds	1
   698  00010A                     ___fladd@bexp:
   699                           	callstack 0
   700                           
   701                           ; 1 bytes @ 0xA
   702  00010A                     	ds	1
   703  00010B                     ___fladd@grs:
   704                           	callstack 0
   705                           
   706                           ; 1 bytes @ 0xB
   707  00010B                     	ds	1
   708  00010C                     async_config_baud_rate_gen@_eusart_obj:
   709                           	callstack 0
   710                           
   711                           ; 2 bytes @ 0xC
   712  00010C                     	ds	2
   713  00010E                     ??_async_config_baud_rate_gen:
   714                           
   715                           ; 1 bytes @ 0xE
   716  00010E                     	ds	2
   717  000110                     async_config_baud_rate_gen@ret_val:
   718                           	callstack 0
   719                           
   720                           ; 1 bytes @ 0x10
   721  000110                     	ds	1
   722  000111                     async_config_baud_rate_gen@Baudrate_temp:
   723                           	callstack 0
   724                           
   725                           ; 4 bytes @ 0x11
   726  000111                     	ds	4
   727  000115                     _async_config_baud_rate_gen$3860:
   728                           	callstack 0
   729                           
   730                           ; 4 bytes @ 0x15
   731  000115                     	ds	4
   732  000119                     EUSART_Async_Init@_eusart_obj:
   733                           	callstack 0
   734                           
   735                           ; 2 bytes @ 0x19
   736  000119                     	ds	2
   737  00011B                     ??_main:
   738                           
   739                           ; 1 bytes @ 0x1B
   740  00011B                     	ds	2
   741                           
   742                           	psect	cstackBANK0
   743  000080                     __pcstackBANK0:
   744                           	callstack 0
   745  000080                     ??_GPIO_Pin_Write_Logic:
   746  000080                     ??_GPIO_Pin_Direction_Initialize:
   747  000080                     ??_GPIO_Pin_Toggle_Logic:
   748  000080                     ?___fltol:
   749                           	callstack 0
   750  000080                     ?___xxtofl:
   751                           	callstack 0
   752  000080                     calc_parity_odd@data:
   753                           	callstack 0
   754  000080                     calc_parity_even@data:
   755                           	callstack 0
   756  000080                     async_Rx_config@_rx_obj:
   757                           	callstack 0
   758  000080                     ___fltol@f1:
   759                           	callstack 0
   760  000080                     ___xxtofl@val:
   761                           	callstack 0
   762                           
   763                           ; 4 bytes @ 0x0
   764  000080                     	ds	1
   765  000081                     calc_parity_odd@number_of_ones:
   766                           	callstack 0
   767  000081                     calc_parity_even@number_of_ones:
   768                           	callstack 0
   769                           
   770                           ; 1 bytes @ 0x1
   771  000081                     	ds	1
   772  000082                     async_Rx_config@ret_val:
   773                           	callstack 0
   774  000082                     calc_parity_odd@l_counter:
   775                           	callstack 0
   776  000082                     calc_parity_even@l_counter:
   777                           	callstack 0
   778                           
   779                           ; 1 bytes @ 0x2
   780  000082                     	ds	1
   781  000083                     EUSART_Async_Read_Data@_eusart_obj:
   782                           	callstack 0
   783                           
   784                           ; 2 bytes @ 0x3
   785  000083                     	ds	1
   786  000084                     ??___fltol:
   787  000084                     ??___xxtofl:
   788                           
   789                           ; 1 bytes @ 0x4
   790  000084                     	ds	1
   791  000085                     EUSART_Async_Read_Data@data:
   792                           	callstack 0
   793                           
   794                           ; 2 bytes @ 0x5
   795  000085                     	ds	1
   796  000086                     GPIO_Pin_Write_Logic@ERRORSTATUS:
   797                           	callstack 0
   798                           
   799                           ; 1 bytes @ 0x6
   800  000086                     	ds	1
   801  000087                     ??_EUSART_Async_Read_Data:
   802  000087                     lcd_4bits_send_enable_signal@lcd:
   803                           	callstack 0
   804  000087                     lcd_send_4bits@lcd:
   805                           	callstack 0
   806  000087                     GPIO_Pin_Initialize@_pin_config:
   807                           	callstack 0
   808                           
   809                           ; 2 bytes @ 0x7
   810  000087                     	ds	1
   811  000088                     ___xxtofl@sign:
   812                           	callstack 0
   813                           
   814                           ; 1 bytes @ 0x8
   815  000088                     	ds	1
   816  000089                     lcd_send_4bits@data_command:
   817                           	callstack 0
   818  000089                     GPIO_Pin_Initialize@ERRORSTATUS:
   819                           	callstack 0
   820  000089                     ___xxtofl@exp:
   821                           	callstack 0
   822                           
   823                           ; 1 bytes @ 0x9
   824  000089                     	ds	1
   825  00008A                     _EUSART_Async_Read_Data$1243:
   826                           	callstack 0
   827  00008A                     ___xxtofl@arg:
   828                           	callstack 0
   829                           
   830                           ; 4 bytes @ 0xA
   831  00008A                     	ds	1
   832  00008B                     lcd_4bit_send_command@lcd:
   833                           	callstack 0
   834  00008B                     lcd_4bit_send_char_data@lcd:
   835                           	callstack 0
   836                           
   837                           ; 2 bytes @ 0xB
   838  00008B                     	ds	1
   839  00008C                     _EUSART_Async_Read_Data$1244:
   840                           	callstack 0
   841                           
   842                           ; 2 bytes @ 0xC
   843  00008C                     	ds	1
   844  00008D                     lcd_4bit_send_command@command:
   845                           	callstack 0
   846  00008D                     lcd_4bit_send_char_data@data:
   847                           	callstack 0
   848                           
   849                           ; 1 bytes @ 0xD
   850  00008D                     	ds	1
   851  00008E                     ?___fldiv:
   852                           	callstack 0
   853  00008E                     lcd_4bit_send_command@ERRORSTATUS:
   854                           	callstack 0
   855  00008E                     _EUSART_Async_Read_Data$1245:
   856                           	callstack 0
   857  00008E                     ___fldiv@b:
   858                           	callstack 0
   859                           
   860                           ; 4 bytes @ 0xE
   861  00008E                     	ds	1
   862  00008F                     lcd_4bit_initialize@lcd:
   863                           	callstack 0
   864  00008F                     lcd_4bits_set_courser@lcd:
   865                           	callstack 0
   866                           
   867                           ; 2 bytes @ 0xF
   868  00008F                     	ds	1
   869  000090                     EUSART_Async_Read_Data@l_temp_data:
   870                           	callstack 0
   871                           
   872                           ; 2 bytes @ 0x10
   873  000090                     	ds	1
   874  000091                     ??_lcd_4bit_initialize:
   875  000091                     lcd_4bits_set_courser@row:
   876                           	callstack 0
   877                           
   878                           ; 1 bytes @ 0x11
   879  000091                     	ds	1
   880  000092                     lcd_4bits_set_courser@colum:
   881                           	callstack 0
   882  000092                     EUSART_Async_Read_Data_Blocking@_eusart_obj:
   883                           	callstack 0
   884  000092                     ___fldiv@a:
   885                           	callstack 0
   886                           
   887                           ; 4 bytes @ 0x12
   888  000092                     	ds	1
   889  000093                     ??_lcd_4bits_set_courser:
   890  000093                     lcd_4bit_initialize@pin_lcd_counter:
   891                           	callstack 0
   892                           
   893                           ; 1 bytes @ 0x13
   894  000093                     	ds	1
   895  000094                     EUSART_Async_Read_Data_Blocking@data:
   896                           	callstack 0
   897                           
   898                           ; 2 bytes @ 0x14
   899  000094                     	ds	2
   900  000096                     ??___fldiv:
   901  000096                     lcd_4bit_send_string_data_pos@lcd:
   902                           	callstack 0
   903                           
   904                           ; 2 bytes @ 0x16
   905  000096                     	ds	2
   906  000098                     lcd_4bit_send_string_data_pos@row:
   907                           	callstack 0
   908                           
   909                           ; 1 bytes @ 0x18
   910  000098                     	ds	1
   911  000099                     lcd_4bit_send_string_data_pos@colum:
   912                           	callstack 0
   913                           
   914                           ; 1 bytes @ 0x19
   915  000099                     	ds	1
   916  00009A                     lcd_4bit_send_string_data_pos@str:
   917                           	callstack 0
   918  00009A                     ___fldiv@rem:
   919                           	callstack 0
   920                           
   921                           ; 4 bytes @ 0x1A
   922  00009A                     	ds	3
   923  00009D                     ??_GPS_Service:
   924                           
   925                           ; 1 bytes @ 0x1D
   926  00009D                     	ds	1
   927  00009E                     ___fldiv@sign:
   928                           	callstack 0
   929                           
   930                           ; 1 bytes @ 0x1E
   931  00009E                     	ds	1
   932  00009F                     GPS_Service@key:
   933                           	callstack 0
   934  00009F                     ___fldiv@new_exp:
   935                           	callstack 0
   936                           
   937                           ; 2 bytes @ 0x1F
   938  00009F                     	ds	2
   939  0000A1                     ___fldiv@grs:
   940                           	callstack 0
   941                           
   942                           ; 4 bytes @ 0x21
   943  0000A1                     	ds	4
   944  0000A5                     ___fldiv@bexp:
   945                           	callstack 0
   946                           
   947                           ; 1 bytes @ 0x25
   948  0000A5                     	ds	1
   949  0000A6                     ___fldiv@aexp:
   950                           	callstack 0
   951                           
   952                           ; 1 bytes @ 0x26
   953  0000A6                     	ds	1
   954  0000A7                     ??___fladd:
   955                           
   956                           ; 1 bytes @ 0x27
   957  0000A7                     	ds	4
   958  0000AB                     EUSART_Async_Init@ret_val:
   959                           	callstack 0
   960                           
   961                           ; 1 bytes @ 0x2B
   962  0000AB                     	ds	1
   963                           
   964                           	psect	cstackCOMRAM
   965  000001                     __pcstackCOMRAM:
   966                           	callstack 0
   967  000001                     ??i2_calc_parity_odd:
   968  000001                     ??i2_calc_parity_even:
   969  000001                     i2GPIO_Pin_Write_Logic@_pin_config:
   970                           	callstack 0
   971  000001                     i2GPIO_Pin_Toggle_Logic@_pin_config:
   972                           	callstack 0
   973                           
   974                           ; 2 bytes @ 0x0
   975  000001                     	ds	2
   976  000003                     ??i2_GPIO_Pin_Toggle_Logic:
   977  000003                     i2calc_parity_odd@data:
   978                           	callstack 0
   979  000003                     i2calc_parity_even@data:
   980                           	callstack 0
   981  000003                     i2GPIO_Pin_Write_Logic@logic:
   982                           	callstack 0
   983                           
   984                           ; 1 bytes @ 0x2
   985  000003                     	ds	1
   986  000004                     ??i2_GPIO_Pin_Write_Logic:
   987  000004                     i2calc_parity_odd@number_of_ones:
   988                           	callstack 0
   989  000004                     i2calc_parity_even@number_of_ones:
   990                           	callstack 0
   991                           
   992                           ; 1 bytes @ 0x3
   993  000004                     	ds	1
   994  000005                     i2calc_parity_odd@l_counter:
   995                           	callstack 0
   996  000005                     i2calc_parity_even@l_counter:
   997                           	callstack 0
   998                           
   999                           ; 1 bytes @ 0x4
  1000  000005                     	ds	1
  1001  000006                     EUSART_Async_Transmit_Data@_eusart_obj:
  1002                           	callstack 0
  1003  000006                     i2EUSART_Async_Read_Data@_eusart_obj:
  1004                           	callstack 0
  1005                           
  1006                           ; 2 bytes @ 0x5
  1007  000006                     	ds	2
  1008  000008                     EUSART_Async_Transmit_Data@data:
  1009                           	callstack 0
  1010  000008                     i2EUSART_Async_Read_Data@data:
  1011                           	callstack 0
  1012                           
  1013                           ; 2 bytes @ 0x7
  1014  000008                     	ds	2
  1015  00000A                     ??_EUSART_Async_Transmit_Data:
  1016  00000A                     ??i2_EUSART_Async_Read_Data:
  1017  00000A                     i2GPIO_Pin_Write_Logic@ERRORSTATUS:
  1018                           	callstack 0
  1019                           
  1020                           ; 1 bytes @ 0x9
  1021  00000A                     	ds	1
  1022  00000B                     i2lcd_4bits_send_enable_signal@lcd:
  1023                           	callstack 0
  1024  00000B                     i2lcd_send_4bits@lcd:
  1025                           	callstack 0
  1026                           
  1027                           ; 2 bytes @ 0xA
  1028  00000B                     	ds	2
  1029  00000D                     i2lcd_send_4bits@data_command:
  1030                           	callstack 0
  1031  00000D                     Bluetooth_Send_Data_Non_Blocking@_uart_obj:
  1032                           	callstack 0
  1033  00000D                     i2_EUSART_Async_Read_Data$1243:
  1034                           	callstack 0
  1035                           
  1036                           ; 2 bytes @ 0xC
  1037  00000D                     	ds	1
  1038  00000E                     
  1039                           ; 1 bytes @ 0xD
  1040  00000E                     	ds	1
  1041  00000F                     Bluetooth_Send_Data_Non_Blocking@data:
  1042                           	callstack 0
  1043  00000F                     i2lcd_4bit_send_command@lcd:
  1044                           	callstack 0
  1045  00000F                     i2lcd_4bit_send_char_data@lcd:
  1046                           	callstack 0
  1047  00000F                     i2_EUSART_Async_Read_Data$1244:
  1048                           	callstack 0
  1049                           
  1050                           ; 2 bytes @ 0xE
  1051  00000F                     	ds	1
  1052  000010                     
  1053                           ; 1 bytes @ 0xF
  1054  000010                     	ds	1
  1055  000011                     i2lcd_4bit_send_command@command:
  1056                           	callstack 0
  1057  000011                     i2lcd_4bit_send_char_data@data:
  1058                           	callstack 0
  1059  000011                     i2_EUSART_Async_Read_Data$1245:
  1060                           	callstack 0
  1061                           
  1062                           ; 2 bytes @ 0x10
  1063  000011                     	ds	1
  1064  000012                     
  1065                           ; 1 bytes @ 0x11
  1066  000012                     	ds	1
  1067  000013                     i2lcd_4bits_set_courser@lcd:
  1068                           	callstack 0
  1069  000013                     i2EUSART_Async_Read_Data@l_temp_data:
  1070                           	callstack 0
  1071                           
  1072                           ; 2 bytes @ 0x12
  1073  000013                     	ds	2
  1074  000015                     i2lcd_4bits_set_courser@row:
  1075                           	callstack 0
  1076                           
  1077                           ; 1 bytes @ 0x14
  1078  000015                     	ds	1
  1079  000016                     i2lcd_4bits_set_courser@colum:
  1080                           	callstack 0
  1081                           
  1082                           ; 1 bytes @ 0x15
  1083  000016                     	ds	1
  1084  000017                     ??i2_lcd_4bits_set_courser:
  1085                           
  1086                           ; 1 bytes @ 0x16
  1087  000017                     	ds	3
  1088  00001A                     lcd_4bit_send_char_data_pos@lcd:
  1089                           	callstack 0
  1090                           
  1091                           ; 2 bytes @ 0x19
  1092  00001A                     	ds	2
  1093  00001C                     lcd_4bit_send_char_data_pos@row:
  1094                           	callstack 0
  1095                           
  1096                           ; 1 bytes @ 0x1B
  1097  00001C                     	ds	1
  1098  00001D                     lcd_4bit_send_char_data_pos@colum:
  1099                           	callstack 0
  1100                           
  1101                           ; 1 bytes @ 0x1C
  1102  00001D                     	ds	1
  1103  00001E                     lcd_4bit_send_char_data_pos@data:
  1104                           	callstack 0
  1105                           
  1106                           ; 1 bytes @ 0x1D
  1107  00001E                     	ds	1
  1108  00001F                     
  1109                           ; 1 bytes @ 0x1E
  1110  00001F                     	ds	1
  1111  000020                     ??_InterruptManagerHigh:
  1112                           
  1113                           ; 1 bytes @ 0x1F
  1114  000020                     	ds	6
  1115  000026                     RB4_ISR@Handler_Select:
  1116                           	callstack 0
  1117  000026                     RB5_ISR@Handler_Select:
  1118                           	callstack 0
  1119  000026                     RB6_ISR@Handler_Select:
  1120                           	callstack 0
  1121  000026                     RB7_ISR@Handler_Select:
  1122                           	callstack 0
  1123                           
  1124                           ; 1 bytes @ 0x25
  1125  000026                     	ds	1
  1126  000027                     ??_InterruptManagerLow:
  1127                           
  1128                           ; 1 bytes @ 0x26
  1129  000027                     	ds	3
  1130  00002A                     ??_calc_parity_even:
  1131  00002A                     ??_calc_parity_odd:
  1132  00002A                     ___fltol@sign1:
  1133                           	callstack 0
  1134  00002A                     async_Tx_config@_tx_obj:
  1135                           	callstack 0
  1136  00002A                     Rx_config_interrupt@_rx_obj:
  1137                           	callstack 0
  1138  00002A                     GPIO_Pin_Direction_Initialize@_pin_config:
  1139                           	callstack 0
  1140  00002A                     GPIO_Pin_Write_Logic@_pin_config:
  1141                           	callstack 0
  1142  00002A                     GPIO_Pin_Toggle_Logic@_pin_config:
  1143                           	callstack 0
  1144                           
  1145                           ; 2 bytes @ 0x29
  1146  00002A                     	ds	1
  1147  00002B                     ___fltol@exp1:
  1148                           	callstack 0
  1149                           
  1150                           ; 1 bytes @ 0x2A
  1151  00002B                     	ds	1
  1152  00002C                     async_Tx_config@ret_val:
  1153                           	callstack 0
  1154  00002C                     Rx_config_interrupt@ret_val:
  1155                           	callstack 0
  1156  00002C                     GPIO_Pin_Direction_Initialize@ERRORSTATUS:
  1157                           	callstack 0
  1158  00002C                     GPIO_Pin_Write_Logic@logic:
  1159                           	callstack 0
  1160                           
  1161                           ; 1 bytes @ 0x2B
  1162  00002C                     	ds	1
  1163  00002D                     
  1164                           ; 1 bytes @ 0x2C
  1165 ;;
  1166 ;;Main: autosize = 0, tempsize = 2, incstack = 0, save=0
  1167 ;;
  1168 ;; *************** function _main *****************
  1169 ;; Defined at:
  1170 ;;		line 91 in file "application.c"
  1171 ;; Parameters:    Size  Location     Type
  1172 ;;		None
  1173 ;; Auto vars:     Size  Location     Type
  1174 ;;		None
  1175 ;; Return value:  Size  Location     Type
  1176 ;;                  2  1228[None  ] int 
  1177 ;; Registers used:
  1178 ;;		wreg, fsr0l, fsr0h, fsr2l, fsr2h, status,2, status,0, tblptrl, tblptrh, tblptru, prodl, prodh, cstack
  1179 ;; Tracked objects:
  1180 ;;		On entry : 0/0
  1181 ;;		On exit  : 0/0
  1182 ;;		Unchanged: 0/0
  1183 ;; Data sizes:     COMRAM   BANK0   BANK1   BANK2   BANK3   BANK4   BANK5   BANK6   BANK7   BANK8   BANK9  BANK10  BANK1
      +1  BANK12  BANK13  BANK14  BANK15
  1184 ;;      Params:         0       0       0       0       0       0       0       0       0       0       0       0       
      +0       0       0       0       0
  1185 ;;      Locals:         0       0       0       0       0       0       0       0       0       0       0       0       
      +0       0       0       0       0
  1186 ;;      Temps:          0       0       2       0       0       0       0       0       0       0       0       0       
      +0       0       0       0       0
  1187 ;;      Totals:         0       0       2       0       0       0       0       0       0       0       0       0       
      +0       0       0       0       0
  1188 ;;Total ram usage:        2 bytes
  1189 ;; Hardware stack levels required when called:   16
  1190 ;; This function calls:
  1191 ;;		_GPIO_Pin_Toggle_Logic
  1192 ;;		_GPS_Service
  1193 ;;		_application_intialize
  1194 ;;		_lcd_4bit_send_string_data_pos
  1195 ;; This function is called by:
  1196 ;;		Startup code after reset
  1197 ;; This function uses a non-reentrant model
  1198 ;;
  1199                           
  1200                           	psect	text0
  1201  0015D8                     __ptext0:
  1202                           	callstack 0
  1203  0015D8                     _main:
  1204                           	callstack 15
  1205  0015D8                     
  1206                           ;application.c: 94:     application_intialize();
  1207  0015D8  ECE0  F01D         	call	_application_intialize	;wreg free
  1208  0015DC                     
  1209                           ;application.c: 95:     lcd_4bit_send_string_data_pos(&lcd1,2,1,"-> ");
  1210  0015DC  0E4D               	movlw	low _lcd1
  1211  0015DE  0100               	movlb	0	; () banked
  1212  0015E0  6F96               	movwf	lcd_4bit_send_string_data_pos@lcd& (0+255),b
  1213  0015E2  0E00               	movlw	high _lcd1
  1214  0015E4  6F97               	movwf	(lcd_4bit_send_string_data_pos@lcd+1)& (0+255),b
  1215  0015E6  0E02               	movlw	2
  1216  0015E8  6F98               	movwf	lcd_4bit_send_string_data_pos@row& (0+255),b
  1217  0015EA  0E01               	movlw	1
  1218  0015EC  6F99               	movwf	lcd_4bit_send_string_data_pos@colum& (0+255),b
  1219  0015EE  0ED4               	movlw	low STR_9
  1220  0015F0  6F9A               	movwf	lcd_4bit_send_string_data_pos@str& (0+255),b
  1221  0015F2  0E10               	movlw	high STR_9
  1222  0015F4  6F9B               	movwf	(lcd_4bit_send_string_data_pos@str+1)& (0+255),b
  1223  0015F6  EC4F  F019         	call	_lcd_4bit_send_string_data_pos	;wreg free
  1224  0015FA                     l7999:
  1225                           
  1226                           ;application.c: 98:     {;application.c: 99:         GPIO_Pin_Toggle_Logic(&pind1);
  1227  0015FA  0E54               	movlw	low _pind1
  1228  0015FC  6E2A               	movwf	GPIO_Pin_Toggle_Logic@_pin_config^0,c
  1229  0015FE  0E00               	movlw	high _pind1
  1230  001600  6E2B               	movwf	(GPIO_Pin_Toggle_Logic@_pin_config+1)^0,c
  1231  001602  ECBD  F01A         	call	_GPIO_Pin_Toggle_Logic	;wreg free
  1232  001606                     
  1233                           ;application.c: 100:         _delay((unsigned long)((1000)*(8000000/4000.0)));
  1234  001606  0E0B               	movlw	11
  1235  001608  0101               	movlb	1	; () banked
  1236  00160A  6F1C               	movwf	(??_main+1)& (0+255),b
  1237  00160C  0E26               	movlw	38
  1238  00160E  6F1B               	movwf	??_main& (0+255),b
  1239  001610  0E5D               	movlw	93
  1240  001612                     u8977:
  1241  001612  2EE8               	decfsz	wreg,f,c
  1242  001614  D7FE               	bra	u8977
  1243  001616  2F1B               	decfsz	??_main& (0+255),f,b
  1244  001618  D7FC               	bra	u8977
  1245  00161A  2F1C               	decfsz	(??_main+1)& (0+255),f,b
  1246  00161C  D7FA               	bra	u8977
  1247  00161E  D000               	nop2	
  1248                           
  1249                           ;application.c: 101:         switch(datarecive)
  1250  001620  EF94  F00C         	goto	l8029
  1251  001624                     l8003:
  1252                           
  1253                           ; BSR set to: 1
  1254                           ;application.c: 105:                 lcd_4bit_send_string_data_pos(&lcd1,1,1,"          
      +                              ");
  1255  001624  0E4D               	movlw	low _lcd1
  1256  001626  0100               	movlb	0	; () banked
  1257  001628  6F96               	movwf	lcd_4bit_send_string_data_pos@lcd& (0+255),b
  1258  00162A  0E00               	movlw	high _lcd1
  1259  00162C  6F97               	movwf	(lcd_4bit_send_string_data_pos@lcd+1)& (0+255),b
  1260  00162E  0E01               	movlw	1
  1261  001630  6F98               	movwf	lcd_4bit_send_string_data_pos@row& (0+255),b
  1262  001632  0E01               	movlw	1
  1263  001634  6F99               	movwf	lcd_4bit_send_string_data_pos@colum& (0+255),b
  1264  001636  0E35               	movlw	low STR_10
  1265  001638  6F9A               	movwf	lcd_4bit_send_string_data_pos@str& (0+255),b
  1266  00163A  0E10               	movlw	high STR_10
  1267  00163C  6F9B               	movwf	(lcd_4bit_send_string_data_pos@str+1)& (0+255),b
  1268  00163E  EC4F  F019         	call	_lcd_4bit_send_string_data_pos	;wreg free
  1269                           
  1270                           ;application.c: 106:                 lcd_4bit_send_string_data_pos(&lcd1,1,1,"no thing")
      +                          ;
  1271  001642  0E4D               	movlw	low _lcd1
  1272  001644  0100               	movlb	0	; () banked
  1273  001646  6F96               	movwf	lcd_4bit_send_string_data_pos@lcd& (0+255),b
  1274  001648  0E00               	movlw	high _lcd1
  1275  00164A  6F97               	movwf	(lcd_4bit_send_string_data_pos@lcd+1)& (0+255),b
  1276  00164C  0E01               	movlw	1
  1277  00164E  6F98               	movwf	lcd_4bit_send_string_data_pos@row& (0+255),b
  1278  001650  0E01               	movlw	1
  1279  001652  6F99               	movwf	lcd_4bit_send_string_data_pos@colum& (0+255),b
  1280  001654  0ECB               	movlw	low STR_11
  1281  001656  6F9A               	movwf	lcd_4bit_send_string_data_pos@str& (0+255),b
  1282  001658  0E10               	movlw	high STR_11
  1283  00165A  6F9B               	movwf	(lcd_4bit_send_string_data_pos@str+1)& (0+255),b
  1284  00165C  EC4F  F019         	call	_lcd_4bit_send_string_data_pos	;wreg free
  1285                           
  1286                           ;application.c: 107:                 break;
  1287  001660  EFFD  F00A         	goto	l7999
  1288  001664                     l8005:
  1289                           
  1290                           ; BSR set to: 1
  1291                           ;application.c: 110:                 lcd_4bit_send_string_data_pos(&lcd1,1,1,"          
      +                              ");
  1292  001664  0E4D               	movlw	low _lcd1
  1293  001666  0100               	movlb	0	; () banked
  1294  001668  6F96               	movwf	lcd_4bit_send_string_data_pos@lcd& (0+255),b
  1295  00166A  0E00               	movlw	high _lcd1
  1296  00166C  6F97               	movwf	(lcd_4bit_send_string_data_pos@lcd+1)& (0+255),b
  1297  00166E  0E01               	movlw	1
  1298  001670  6F98               	movwf	lcd_4bit_send_string_data_pos@row& (0+255),b
  1299  001672  0E01               	movlw	1
  1300  001674  6F99               	movwf	lcd_4bit_send_string_data_pos@colum& (0+255),b
  1301  001676  0E35               	movlw	low STR_10
  1302  001678  6F9A               	movwf	lcd_4bit_send_string_data_pos@str& (0+255),b
  1303  00167A  0E10               	movlw	high STR_10
  1304  00167C  6F9B               	movwf	(lcd_4bit_send_string_data_pos@str+1)& (0+255),b
  1305  00167E  EC4F  F019         	call	_lcd_4bit_send_string_data_pos	;wreg free
  1306                           
  1307                           ;application.c: 111:                 lcd_4bit_send_string_data_pos(&lcd1,1,1,"left forwa
      +                          rd:");
  1308  001682  0E4D               	movlw	low _lcd1
  1309  001684  0100               	movlb	0	; () banked
  1310  001686  6F96               	movwf	lcd_4bit_send_string_data_pos@lcd& (0+255),b
  1311  001688  0E00               	movlw	high _lcd1
  1312  00168A  6F97               	movwf	(lcd_4bit_send_string_data_pos@lcd+1)& (0+255),b
  1313  00168C  0E01               	movlw	1
  1314  00168E  6F98               	movwf	lcd_4bit_send_string_data_pos@row& (0+255),b
  1315  001690  0E01               	movlw	1
  1316  001692  6F99               	movwf	lcd_4bit_send_string_data_pos@colum& (0+255),b
  1317  001694  0E80               	movlw	low STR_13
  1318  001696  6F9A               	movwf	lcd_4bit_send_string_data_pos@str& (0+255),b
  1319  001698  0E10               	movlw	high STR_13
  1320  00169A  6F9B               	movwf	(lcd_4bit_send_string_data_pos@str+1)& (0+255),b
  1321  00169C  EC4F  F019         	call	_lcd_4bit_send_string_data_pos	;wreg free
  1322                           
  1323                           ;application.c: 113:                 break;
  1324  0016A0  EFFD  F00A         	goto	l7999
  1325  0016A4                     l8007:
  1326                           
  1327                           ; BSR set to: 1
  1328                           ;application.c: 116:                 lcd_4bit_send_string_data_pos(&lcd1,1,1,"          
      +                              ");
  1329  0016A4  0E4D               	movlw	low _lcd1
  1330  0016A6  0100               	movlb	0	; () banked
  1331  0016A8  6F96               	movwf	lcd_4bit_send_string_data_pos@lcd& (0+255),b
  1332  0016AA  0E00               	movlw	high _lcd1
  1333  0016AC  6F97               	movwf	(lcd_4bit_send_string_data_pos@lcd+1)& (0+255),b
  1334  0016AE  0E01               	movlw	1
  1335  0016B0  6F98               	movwf	lcd_4bit_send_string_data_pos@row& (0+255),b
  1336  0016B2  0E01               	movlw	1
  1337  0016B4  6F99               	movwf	lcd_4bit_send_string_data_pos@colum& (0+255),b
  1338  0016B6  0E35               	movlw	low STR_10
  1339  0016B8  6F9A               	movwf	lcd_4bit_send_string_data_pos@str& (0+255),b
  1340  0016BA  0E10               	movlw	high STR_10
  1341  0016BC  6F9B               	movwf	(lcd_4bit_send_string_data_pos@str+1)& (0+255),b
  1342  0016BE  EC4F  F019         	call	_lcd_4bit_send_string_data_pos	;wreg free
  1343                           
  1344                           ;application.c: 117:                 lcd_4bit_send_string_data_pos(&lcd1,1,1," forward:"
      +                          );
  1345  0016C2  0E4D               	movlw	low _lcd1
  1346  0016C4  0100               	movlb	0	; () banked
  1347  0016C6  6F96               	movwf	lcd_4bit_send_string_data_pos@lcd& (0+255),b
  1348  0016C8  0E00               	movlw	high _lcd1
  1349  0016CA  6F97               	movwf	(lcd_4bit_send_string_data_pos@lcd+1)& (0+255),b
  1350  0016CC  0E01               	movlw	1
  1351  0016CE  6F98               	movwf	lcd_4bit_send_string_data_pos@row& (0+255),b
  1352  0016D0  0E01               	movlw	1
  1353  0016D2  6F99               	movwf	lcd_4bit_send_string_data_pos@colum& (0+255),b
  1354  0016D4  0E84               	movlw	low (STR_13+4)
  1355  0016D6  6F9A               	movwf	lcd_4bit_send_string_data_pos@str& (0+255),b
  1356  0016D8  0E10               	movlw	high (STR_13+4)
  1357  0016DA  6F9B               	movwf	(lcd_4bit_send_string_data_pos@str+1)& (0+255),b
  1358  0016DC  EC4F  F019         	call	_lcd_4bit_send_string_data_pos	;wreg free
  1359                           
  1360                           ;application.c: 118:                 break;
  1361  0016E0  EFFD  F00A         	goto	l7999
  1362  0016E4                     l8009:
  1363                           
  1364                           ; BSR set to: 1
  1365                           ;application.c: 121:                 lcd_4bit_send_string_data_pos(&lcd1,1,1,"          
      +                              ");
  1366  0016E4  0E4D               	movlw	low _lcd1
  1367  0016E6  0100               	movlb	0	; () banked
  1368  0016E8  6F96               	movwf	lcd_4bit_send_string_data_pos@lcd& (0+255),b
  1369  0016EA  0E00               	movlw	high _lcd1
  1370  0016EC  6F97               	movwf	(lcd_4bit_send_string_data_pos@lcd+1)& (0+255),b
  1371  0016EE  0E01               	movlw	1
  1372  0016F0  6F98               	movwf	lcd_4bit_send_string_data_pos@row& (0+255),b
  1373  0016F2  0E01               	movlw	1
  1374  0016F4  6F99               	movwf	lcd_4bit_send_string_data_pos@colum& (0+255),b
  1375  0016F6  0E35               	movlw	low STR_10
  1376  0016F8  6F9A               	movwf	lcd_4bit_send_string_data_pos@str& (0+255),b
  1377  0016FA  0E10               	movlw	high STR_10
  1378  0016FC  6F9B               	movwf	(lcd_4bit_send_string_data_pos@str+1)& (0+255),b
  1379  0016FE  EC4F  F019         	call	_lcd_4bit_send_string_data_pos	;wreg free
  1380                           
  1381                           ;application.c: 122:                 lcd_4bit_send_string_data_pos(&lcd1,1,1,"right forw
      +                          ard:");
  1382  001702  0E4D               	movlw	low _lcd1
  1383  001704  0100               	movlb	0	; () banked
  1384  001706  6F96               	movwf	lcd_4bit_send_string_data_pos@lcd& (0+255),b
  1385  001708  0E00               	movlw	high _lcd1
  1386  00170A  6F97               	movwf	(lcd_4bit_send_string_data_pos@lcd+1)& (0+255),b
  1387  00170C  0E01               	movlw	1
  1388  00170E  6F98               	movwf	lcd_4bit_send_string_data_pos@row& (0+255),b
  1389  001710  0E01               	movlw	1
  1390  001712  6F99               	movwf	lcd_4bit_send_string_data_pos@colum& (0+255),b
  1391  001714  0E62               	movlw	low STR_17
  1392  001716  6F9A               	movwf	lcd_4bit_send_string_data_pos@str& (0+255),b
  1393  001718  0E10               	movlw	high STR_17
  1394  00171A  6F9B               	movwf	(lcd_4bit_send_string_data_pos@str+1)& (0+255),b
  1395  00171C  EC4F  F019         	call	_lcd_4bit_send_string_data_pos	;wreg free
  1396                           
  1397                           ;application.c: 124:                 break;
  1398  001720  EFFD  F00A         	goto	l7999
  1399  001724                     l8011:
  1400                           
  1401                           ; BSR set to: 1
  1402                           ;application.c: 127:                 lcd_4bit_send_string_data_pos(&lcd1,1,1,"          
      +                              ");
  1403  001724  0E4D               	movlw	low _lcd1
  1404  001726  0100               	movlb	0	; () banked
  1405  001728  6F96               	movwf	lcd_4bit_send_string_data_pos@lcd& (0+255),b
  1406  00172A  0E00               	movlw	high _lcd1
  1407  00172C  6F97               	movwf	(lcd_4bit_send_string_data_pos@lcd+1)& (0+255),b
  1408  00172E  0E01               	movlw	1
  1409  001730  6F98               	movwf	lcd_4bit_send_string_data_pos@row& (0+255),b
  1410  001732  0E01               	movlw	1
  1411  001734  6F99               	movwf	lcd_4bit_send_string_data_pos@colum& (0+255),b
  1412  001736  0E35               	movlw	low STR_10
  1413  001738  6F9A               	movwf	lcd_4bit_send_string_data_pos@str& (0+255),b
  1414  00173A  0E10               	movlw	high STR_10
  1415  00173C  6F9B               	movwf	(lcd_4bit_send_string_data_pos@str+1)& (0+255),b
  1416  00173E  EC4F  F019         	call	_lcd_4bit_send_string_data_pos	;wreg free
  1417                           
  1418                           ;application.c: 128:                 lcd_4bit_send_string_data_pos(&lcd1,1,1,"turn left:
      +                          ");
  1419  001742  0E4D               	movlw	low _lcd1
  1420  001744  0100               	movlb	0	; () banked
  1421  001746  6F96               	movwf	lcd_4bit_send_string_data_pos@lcd& (0+255),b
  1422  001748  0E00               	movlw	high _lcd1
  1423  00174A  6F97               	movwf	(lcd_4bit_send_string_data_pos@lcd+1)& (0+255),b
  1424  00174C  0E01               	movlw	1
  1425  00174E  6F98               	movwf	lcd_4bit_send_string_data_pos@row& (0+255),b
  1426  001750  0E01               	movlw	1
  1427  001752  6F99               	movwf	lcd_4bit_send_string_data_pos@colum& (0+255),b
  1428  001754  0EC0               	movlw	low STR_19
  1429  001756  6F9A               	movwf	lcd_4bit_send_string_data_pos@str& (0+255),b
  1430  001758  0E10               	movlw	high STR_19
  1431  00175A  6F9B               	movwf	(lcd_4bit_send_string_data_pos@str+1)& (0+255),b
  1432  00175C  EC4F  F019         	call	_lcd_4bit_send_string_data_pos	;wreg free
  1433                           
  1434                           ;application.c: 130:                 break;
  1435  001760  EFFD  F00A         	goto	l7999
  1436  001764                     l8013:
  1437                           
  1438                           ; BSR set to: 1
  1439                           ;application.c: 133:                 lcd_4bit_send_string_data_pos(&lcd1,1,1,"          
      +                              ");
  1440  001764  0E4D               	movlw	low _lcd1
  1441  001766  0100               	movlb	0	; () banked
  1442  001768  6F96               	movwf	lcd_4bit_send_string_data_pos@lcd& (0+255),b
  1443  00176A  0E00               	movlw	high _lcd1
  1444  00176C  6F97               	movwf	(lcd_4bit_send_string_data_pos@lcd+1)& (0+255),b
  1445  00176E  0E01               	movlw	1
  1446  001770  6F98               	movwf	lcd_4bit_send_string_data_pos@row& (0+255),b
  1447  001772  0E01               	movlw	1
  1448  001774  6F99               	movwf	lcd_4bit_send_string_data_pos@colum& (0+255),b
  1449  001776  0E35               	movlw	low STR_10
  1450  001778  6F9A               	movwf	lcd_4bit_send_string_data_pos@str& (0+255),b
  1451  00177A  0E10               	movlw	high STR_10
  1452  00177C  6F9B               	movwf	(lcd_4bit_send_string_data_pos@str+1)& (0+255),b
  1453  00177E  EC4F  F019         	call	_lcd_4bit_send_string_data_pos	;wreg free
  1454                           
  1455                           ;application.c: 134:                 lcd_4bit_send_string_data_pos(&lcd1,1,1,"turn right
      +                          :");
  1456  001782  0E4D               	movlw	low _lcd1
  1457  001784  0100               	movlb	0	; () banked
  1458  001786  6F96               	movwf	lcd_4bit_send_string_data_pos@lcd& (0+255),b
  1459  001788  0E00               	movlw	high _lcd1
  1460  00178A  6F97               	movwf	(lcd_4bit_send_string_data_pos@lcd+1)& (0+255),b
  1461  00178C  0E01               	movlw	1
  1462  00178E  6F98               	movwf	lcd_4bit_send_string_data_pos@row& (0+255),b
  1463  001790  0E01               	movlw	1
  1464  001792  6F99               	movwf	lcd_4bit_send_string_data_pos@colum& (0+255),b
  1465  001794  0EA8               	movlw	low STR_21
  1466  001796  6F9A               	movwf	lcd_4bit_send_string_data_pos@str& (0+255),b
  1467  001798  0E10               	movlw	high STR_21
  1468  00179A  6F9B               	movwf	(lcd_4bit_send_string_data_pos@str+1)& (0+255),b
  1469  00179C  EC4F  F019         	call	_lcd_4bit_send_string_data_pos	;wreg free
  1470                           
  1471                           ;application.c: 136:                 break;
  1472  0017A0  EFFD  F00A         	goto	l7999
  1473  0017A4                     l8015:
  1474                           
  1475                           ; BSR set to: 1
  1476                           ;application.c: 139:                 lcd_4bit_send_string_data_pos(&lcd1,1,1,"          
      +                              ");
  1477  0017A4  0E4D               	movlw	low _lcd1
  1478  0017A6  0100               	movlb	0	; () banked
  1479  0017A8  6F96               	movwf	lcd_4bit_send_string_data_pos@lcd& (0+255),b
  1480  0017AA  0E00               	movlw	high _lcd1
  1481  0017AC  6F97               	movwf	(lcd_4bit_send_string_data_pos@lcd+1)& (0+255),b
  1482  0017AE  0E01               	movlw	1
  1483  0017B0  6F98               	movwf	lcd_4bit_send_string_data_pos@row& (0+255),b
  1484  0017B2  0E01               	movlw	1
  1485  0017B4  6F99               	movwf	lcd_4bit_send_string_data_pos@colum& (0+255),b
  1486  0017B6  0E35               	movlw	low STR_10
  1487  0017B8  6F9A               	movwf	lcd_4bit_send_string_data_pos@str& (0+255),b
  1488  0017BA  0E10               	movlw	high STR_10
  1489  0017BC  6F9B               	movwf	(lcd_4bit_send_string_data_pos@str+1)& (0+255),b
  1490  0017BE  EC4F  F019         	call	_lcd_4bit_send_string_data_pos	;wreg free
  1491                           
  1492                           ;application.c: 140:                 lcd_4bit_send_string_data_pos(&lcd1,1,1,"left backw
      +                          ard:");
  1493  0017C2  0E4D               	movlw	low _lcd1
  1494  0017C4  0100               	movlb	0	; () banked
  1495  0017C6  6F96               	movwf	lcd_4bit_send_string_data_pos@lcd& (0+255),b
  1496  0017C8  0E00               	movlw	high _lcd1
  1497  0017CA  6F97               	movwf	(lcd_4bit_send_string_data_pos@lcd+1)& (0+255),b
  1498  0017CC  0E01               	movlw	1
  1499  0017CE  6F98               	movwf	lcd_4bit_send_string_data_pos@row& (0+255),b
  1500  0017D0  0E01               	movlw	1
  1501  0017D2  6F99               	movwf	lcd_4bit_send_string_data_pos@colum& (0+255),b
  1502  0017D4  0E53               	movlw	low STR_23
  1503  0017D6  6F9A               	movwf	lcd_4bit_send_string_data_pos@str& (0+255),b
  1504  0017D8  0E10               	movlw	high STR_23
  1505  0017DA  6F9B               	movwf	(lcd_4bit_send_string_data_pos@str+1)& (0+255),b
  1506  0017DC  EC4F  F019         	call	_lcd_4bit_send_string_data_pos	;wreg free
  1507                           
  1508                           ;application.c: 142:                 break;
  1509  0017E0  EFFD  F00A         	goto	l7999
  1510  0017E4                     l8017:
  1511                           
  1512                           ; BSR set to: 1
  1513                           ;application.c: 145:                 lcd_4bit_send_string_data_pos(&lcd1,1,1,"          
      +                              ");
  1514  0017E4  0E4D               	movlw	low _lcd1
  1515  0017E6  0100               	movlb	0	; () banked
  1516  0017E8  6F96               	movwf	lcd_4bit_send_string_data_pos@lcd& (0+255),b
  1517  0017EA  0E00               	movlw	high _lcd1
  1518  0017EC  6F97               	movwf	(lcd_4bit_send_string_data_pos@lcd+1)& (0+255),b
  1519  0017EE  0E01               	movlw	1
  1520  0017F0  6F98               	movwf	lcd_4bit_send_string_data_pos@row& (0+255),b
  1521  0017F2  0E01               	movlw	1
  1522  0017F4  6F99               	movwf	lcd_4bit_send_string_data_pos@colum& (0+255),b
  1523  0017F6  0E35               	movlw	low STR_10
  1524  0017F8  6F9A               	movwf	lcd_4bit_send_string_data_pos@str& (0+255),b
  1525  0017FA  0E10               	movlw	high STR_10
  1526  0017FC  6F9B               	movwf	(lcd_4bit_send_string_data_pos@str+1)& (0+255),b
  1527  0017FE  EC4F  F019         	call	_lcd_4bit_send_string_data_pos	;wreg free
  1528                           
  1529                           ;application.c: 146:                 lcd_4bit_send_string_data_pos(&lcd1,1,1,"backward:"
      +                          );
  1530  001802  0E4D               	movlw	low _lcd1
  1531  001804  0100               	movlb	0	; () banked
  1532  001806  6F96               	movwf	lcd_4bit_send_string_data_pos@lcd& (0+255),b
  1533  001808  0E00               	movlw	high _lcd1
  1534  00180A  6F97               	movwf	(lcd_4bit_send_string_data_pos@lcd+1)& (0+255),b
  1535  00180C  0E01               	movlw	1
  1536  00180E  6F98               	movwf	lcd_4bit_send_string_data_pos@row& (0+255),b
  1537  001810  0E01               	movlw	1
  1538  001812  6F99               	movwf	lcd_4bit_send_string_data_pos@colum& (0+255),b
  1539  001814  0E58               	movlw	low (STR_23+5)
  1540  001816  6F9A               	movwf	lcd_4bit_send_string_data_pos@str& (0+255),b
  1541  001818  0E10               	movlw	high (STR_23+5)
  1542  00181A  6F9B               	movwf	(lcd_4bit_send_string_data_pos@str+1)& (0+255),b
  1543  00181C  EC4F  F019         	call	_lcd_4bit_send_string_data_pos	;wreg free
  1544                           
  1545                           ;application.c: 148:                 break;
  1546  001820  EFFD  F00A         	goto	l7999
  1547  001824                     l8019:
  1548                           
  1549                           ; BSR set to: 1
  1550                           ;application.c: 151:                 lcd_4bit_send_string_data_pos(&lcd1,1,1,"          
      +                              ");
  1551  001824  0E4D               	movlw	low _lcd1
  1552  001826  0100               	movlb	0	; () banked
  1553  001828  6F96               	movwf	lcd_4bit_send_string_data_pos@lcd& (0+255),b
  1554  00182A  0E00               	movlw	high _lcd1
  1555  00182C  6F97               	movwf	(lcd_4bit_send_string_data_pos@lcd+1)& (0+255),b
  1556  00182E  0E01               	movlw	1
  1557  001830  6F98               	movwf	lcd_4bit_send_string_data_pos@row& (0+255),b
  1558  001832  0E01               	movlw	1
  1559  001834  6F99               	movwf	lcd_4bit_send_string_data_pos@colum& (0+255),b
  1560  001836  0E35               	movlw	low STR_10
  1561  001838  6F9A               	movwf	lcd_4bit_send_string_data_pos@str& (0+255),b
  1562  00183A  0E10               	movlw	high STR_10
  1563  00183C  6F9B               	movwf	(lcd_4bit_send_string_data_pos@str+1)& (0+255),b
  1564  00183E  EC4F  F019         	call	_lcd_4bit_send_string_data_pos	;wreg free
  1565                           
  1566                           ;application.c: 152:                 lcd_4bit_send_string_data_pos(&lcd1,1,1,"right back
      +                          ward:");
  1567  001842  0E4D               	movlw	low _lcd1
  1568  001844  0100               	movlb	0	; () banked
  1569  001846  6F96               	movwf	lcd_4bit_send_string_data_pos@lcd& (0+255),b
  1570  001848  0E00               	movlw	high _lcd1
  1571  00184A  6F97               	movwf	(lcd_4bit_send_string_data_pos@lcd+1)& (0+255),b
  1572  00184C  0E01               	movlw	1
  1573  00184E  6F98               	movwf	lcd_4bit_send_string_data_pos@row& (0+255),b
  1574  001850  0E01               	movlw	1
  1575  001852  6F99               	movwf	lcd_4bit_send_string_data_pos@colum& (0+255),b
  1576  001854  0E25               	movlw	low STR_27
  1577  001856  6F9A               	movwf	lcd_4bit_send_string_data_pos@str& (0+255),b
  1578  001858  0E10               	movlw	high STR_27
  1579  00185A  6F9B               	movwf	(lcd_4bit_send_string_data_pos@str+1)& (0+255),b
  1580  00185C  EC4F  F019         	call	_lcd_4bit_send_string_data_pos	;wreg free
  1581                           
  1582                           ;application.c: 154:                 break;
  1583  001860  EFFD  F00A         	goto	l7999
  1584  001864                     l8021:
  1585                           
  1586                           ; BSR set to: 1
  1587                           ;application.c: 157:                 lcd_4bit_send_string_data_pos(&lcd1,1,1,"          
      +                              ");
  1588  001864  0E4D               	movlw	low _lcd1
  1589  001866  0100               	movlb	0	; () banked
  1590  001868  6F96               	movwf	lcd_4bit_send_string_data_pos@lcd& (0+255),b
  1591  00186A  0E00               	movlw	high _lcd1
  1592  00186C  6F97               	movwf	(lcd_4bit_send_string_data_pos@lcd+1)& (0+255),b
  1593  00186E  0E01               	movlw	1
  1594  001870  6F98               	movwf	lcd_4bit_send_string_data_pos@row& (0+255),b
  1595  001872  0E01               	movlw	1
  1596  001874  6F99               	movwf	lcd_4bit_send_string_data_pos@colum& (0+255),b
  1597  001876  0E35               	movlw	low STR_10
  1598  001878  6F9A               	movwf	lcd_4bit_send_string_data_pos@str& (0+255),b
  1599  00187A  0E10               	movlw	high STR_10
  1600  00187C  6F9B               	movwf	(lcd_4bit_send_string_data_pos@str+1)& (0+255),b
  1601  00187E  EC4F  F019         	call	_lcd_4bit_send_string_data_pos	;wreg free
  1602                           
  1603                           ;application.c: 158:                 lcd_4bit_send_string_data_pos(&lcd1,1,1,"rotate lef
      +                          t:");
  1604  001882  0E4D               	movlw	low _lcd1
  1605  001884  0100               	movlb	0	; () banked
  1606  001886  6F96               	movwf	lcd_4bit_send_string_data_pos@lcd& (0+255),b
  1607  001888  0E00               	movlw	high _lcd1
  1608  00188A  6F97               	movwf	(lcd_4bit_send_string_data_pos@lcd+1)& (0+255),b
  1609  00188C  0E01               	movlw	1
  1610  00188E  6F98               	movwf	lcd_4bit_send_string_data_pos@row& (0+255),b
  1611  001890  0E01               	movlw	1
  1612  001892  6F99               	movwf	lcd_4bit_send_string_data_pos@colum& (0+255),b
  1613  001894  0E8E               	movlw	low STR_29
  1614  001896  6F9A               	movwf	lcd_4bit_send_string_data_pos@str& (0+255),b
  1615  001898  0E10               	movlw	high STR_29
  1616  00189A  6F9B               	movwf	(lcd_4bit_send_string_data_pos@str+1)& (0+255),b
  1617  00189C  EC4F  F019         	call	_lcd_4bit_send_string_data_pos	;wreg free
  1618                           
  1619                           ;application.c: 160:                 break;
  1620  0018A0  EFFD  F00A         	goto	l7999
  1621  0018A4                     l8023:
  1622                           
  1623                           ; BSR set to: 1
  1624                           ;application.c: 163:                 lcd_4bit_send_string_data_pos(&lcd1,1,1,"          
      +                              ");
  1625  0018A4  0E4D               	movlw	low _lcd1
  1626  0018A6  0100               	movlb	0	; () banked
  1627  0018A8  6F96               	movwf	lcd_4bit_send_string_data_pos@lcd& (0+255),b
  1628  0018AA  0E00               	movlw	high _lcd1
  1629  0018AC  6F97               	movwf	(lcd_4bit_send_string_data_pos@lcd+1)& (0+255),b
  1630  0018AE  0E01               	movlw	1
  1631  0018B0  6F98               	movwf	lcd_4bit_send_string_data_pos@row& (0+255),b
  1632  0018B2  0E01               	movlw	1
  1633  0018B4  6F99               	movwf	lcd_4bit_send_string_data_pos@colum& (0+255),b
  1634  0018B6  0E35               	movlw	low STR_10
  1635  0018B8  6F9A               	movwf	lcd_4bit_send_string_data_pos@str& (0+255),b
  1636  0018BA  0E10               	movlw	high STR_10
  1637  0018BC  6F9B               	movwf	(lcd_4bit_send_string_data_pos@str+1)& (0+255),b
  1638  0018BE  EC4F  F019         	call	_lcd_4bit_send_string_data_pos	;wreg free
  1639                           
  1640                           ;application.c: 164:                 lcd_4bit_send_string_data_pos(&lcd1,1,1,"gps");
  1641  0018C2  0E4D               	movlw	low _lcd1
  1642  0018C4  0100               	movlb	0	; () banked
  1643  0018C6  6F96               	movwf	lcd_4bit_send_string_data_pos@lcd& (0+255),b
  1644  0018C8  0E00               	movlw	high _lcd1
  1645  0018CA  6F97               	movwf	(lcd_4bit_send_string_data_pos@lcd+1)& (0+255),b
  1646  0018CC  0E01               	movlw	1
  1647  0018CE  6F98               	movwf	lcd_4bit_send_string_data_pos@row& (0+255),b
  1648  0018D0  0E01               	movlw	1
  1649  0018D2  6F99               	movwf	lcd_4bit_send_string_data_pos@colum& (0+255),b
  1650  0018D4  0ED8               	movlw	low STR_31
  1651  0018D6  6F9A               	movwf	lcd_4bit_send_string_data_pos@str& (0+255),b
  1652  0018D8  0E10               	movlw	high STR_31
  1653  0018DA  6F9B               	movwf	(lcd_4bit_send_string_data_pos@str+1)& (0+255),b
  1654  0018DC  EC4F  F019         	call	_lcd_4bit_send_string_data_pos	;wreg free
  1655                           
  1656                           ;application.c: 167:                 GPS_Service();
  1657  0018E0  EC8C  F012         	call	_GPS_Service	;wreg free
  1658                           
  1659                           ;application.c: 168:                 break;
  1660  0018E4  EFFD  F00A         	goto	l7999
  1661  0018E8                     l8025:
  1662                           
  1663                           ; BSR set to: 1
  1664                           ;application.c: 172:                 lcd_4bit_send_string_data_pos(&lcd1,1,1,"          
      +                              ");
  1665  0018E8  0E4D               	movlw	low _lcd1
  1666  0018EA  0100               	movlb	0	; () banked
  1667  0018EC  6F96               	movwf	lcd_4bit_send_string_data_pos@lcd& (0+255),b
  1668  0018EE  0E00               	movlw	high _lcd1
  1669  0018F0  6F97               	movwf	(lcd_4bit_send_string_data_pos@lcd+1)& (0+255),b
  1670  0018F2  0E01               	movlw	1
  1671  0018F4  6F98               	movwf	lcd_4bit_send_string_data_pos@row& (0+255),b
  1672  0018F6  0E01               	movlw	1
  1673  0018F8  6F99               	movwf	lcd_4bit_send_string_data_pos@colum& (0+255),b
  1674  0018FA  0E35               	movlw	low STR_10
  1675  0018FC  6F9A               	movwf	lcd_4bit_send_string_data_pos@str& (0+255),b
  1676  0018FE  0E10               	movlw	high STR_10
  1677  001900  6F9B               	movwf	(lcd_4bit_send_string_data_pos@str+1)& (0+255),b
  1678  001902  EC4F  F019         	call	_lcd_4bit_send_string_data_pos	;wreg free
  1679                           
  1680                           ;application.c: 173:                 lcd_4bit_send_string_data_pos(&lcd1,1,1,"default ca
      +                          se");
  1681  001906  0E4D               	movlw	low _lcd1
  1682  001908  0100               	movlb	0	; () banked
  1683  00190A  6F96               	movwf	lcd_4bit_send_string_data_pos@lcd& (0+255),b
  1684  00190C  0E00               	movlw	high _lcd1
  1685  00190E  6F97               	movwf	(lcd_4bit_send_string_data_pos@lcd+1)& (0+255),b
  1686  001910  0E01               	movlw	1
  1687  001912  6F98               	movwf	lcd_4bit_send_string_data_pos@row& (0+255),b
  1688  001914  0E01               	movlw	1
  1689  001916  6F99               	movwf	lcd_4bit_send_string_data_pos@colum& (0+255),b
  1690  001918  0E9B               	movlw	low STR_33
  1691  00191A  6F9A               	movwf	lcd_4bit_send_string_data_pos@str& (0+255),b
  1692  00191C  0E10               	movlw	high STR_33
  1693  00191E  6F9B               	movwf	(lcd_4bit_send_string_data_pos@str+1)& (0+255),b
  1694  001920  EC4F  F019         	call	_lcd_4bit_send_string_data_pos	;wreg free
  1695                           
  1696                           ;application.c: 174:                 break;
  1697  001924  EFFD  F00A         	goto	l7999
  1698  001928                     l8029:
  1699  001928  5048               	movf	_datarecive^0,w,c
  1700  00192A  0101               	movlb	1	; () banked
  1701  00192C  6F1B               	movwf	??_main& (0+255),b
  1702  00192E  6B1C               	clrf	(??_main+1)& (0+255),b
  1703                           
  1704                           ; Switch on 2 bytes has been partitioned into a top level switch of size 1, and 1 sub-sw
      +                          itches
  1705                           ; Switch size 1, requested type "simple"
  1706                           ; Number of cases is 1, Range of values is 0 to 0
  1707                           ; switch strategies available:
  1708                           ; Name         Instructions Cycles
  1709                           ; simple_byte            4     3 (average)
  1710                           ;	Chosen strategy is simple_byte
  1711  001930  511C               	movf	(??_main+1)& (0+255),w,b
  1712  001932  0A00               	xorlw	0	; case 0
  1713  001934  B4D8               	btfsc	status,2,c
  1714  001936  EF9F  F00C         	goto	l8197
  1715  00193A  EF74  F00C         	goto	l8025
  1716  00193E                     l8197:
  1717                           
  1718                           ; BSR set to: 1
  1719                           ; Switch size 1, requested type "simple"
  1720                           ; Number of cases is 11, Range of values is 0 to 10
  1721                           ; switch strategies available:
  1722                           ; Name         Instructions Cycles
  1723                           ; simple_byte           34    18 (average)
  1724                           ;	Chosen strategy is simple_byte
  1725  00193E  511B               	movf	??_main& (0+255),w,b
  1726  001940  0A00               	xorlw	0	; case 0
  1727  001942  B4D8               	btfsc	status,2,c
  1728  001944  EF12  F00B         	goto	l8003
  1729  001948  0A01               	xorlw	1	; case 1
  1730  00194A  B4D8               	btfsc	status,2,c
  1731  00194C  EF32  F00B         	goto	l8005
  1732  001950  0A03               	xorlw	3	; case 2
  1733  001952  B4D8               	btfsc	status,2,c
  1734  001954  EF52  F00B         	goto	l8007
  1735  001958  0A01               	xorlw	1	; case 3
  1736  00195A  B4D8               	btfsc	status,2,c
  1737  00195C  EF72  F00B         	goto	l8009
  1738  001960  0A07               	xorlw	7	; case 4
  1739  001962  B4D8               	btfsc	status,2,c
  1740  001964  EF92  F00B         	goto	l8011
  1741  001968  0A01               	xorlw	1	; case 5
  1742  00196A  B4D8               	btfsc	status,2,c
  1743  00196C  EFB2  F00B         	goto	l8013
  1744  001970  0A03               	xorlw	3	; case 6
  1745  001972  B4D8               	btfsc	status,2,c
  1746  001974  EFD2  F00B         	goto	l8015
  1747  001978  0A01               	xorlw	1	; case 7
  1748  00197A  B4D8               	btfsc	status,2,c
  1749  00197C  EFF2  F00B         	goto	l8017
  1750  001980  0A0F               	xorlw	15	; case 8
  1751  001982  B4D8               	btfsc	status,2,c
  1752  001984  EF12  F00C         	goto	l8019
  1753  001988  0A01               	xorlw	1	; case 9
  1754  00198A  B4D8               	btfsc	status,2,c
  1755  00198C  EF32  F00C         	goto	l8021
  1756  001990  0A03               	xorlw	3	; case 10
  1757  001992  B4D8               	btfsc	status,2,c
  1758  001994  EF52  F00C         	goto	l8023
  1759  001998  EF74  F00C         	goto	l8025
  1760  00199C  EF3B  F001         	goto	start
  1761  0019A0                     __end_of_main:
  1762                           	callstack 0
  1763                           
  1764 ;; *************** function _application_intialize *****************
  1765 ;; Defined at:
  1766 ;;		line 180 in file "application.c"
  1767 ;; Parameters:    Size  Location     Type
  1768 ;;		None
  1769 ;; Auto vars:     Size  Location     Type
  1770 ;;		None
  1771 ;; Return value:  Size  Location     Type
  1772 ;;                  1    wreg      void 
  1773 ;; Registers used:
  1774 ;;		wreg, fsr2l, fsr2h, status,2, status,0, prodl, prodh, cstack
  1775 ;; Tracked objects:
  1776 ;;		On entry : 0/0
  1777 ;;		On exit  : 0/0
  1778 ;;		Unchanged: 0/0
  1779 ;; Data sizes:     COMRAM   BANK0   BANK1   BANK2   BANK3   BANK4   BANK5   BANK6   BANK7   BANK8   BANK9  BANK10  BANK1
      +1  BANK12  BANK13  BANK14  BANK15
  1780 ;;      Params:         0       0       0       0       0       0       0       0       0       0       0       0       
      +0       0       0       0       0
  1781 ;;      Locals:         0       0       0       0       0       0       0       0       0       0       0       0       
      +0       0       0       0       0
  1782 ;;      Temps:          0       0       0       0       0       0       0       0       0       0       0       0       
      +0       0       0       0       0
  1783 ;;      Totals:         0       0       0       0       0       0       0       0       0       0       0       0       
      +0       0       0       0       0
  1784 ;;Total ram usage:        0 bytes
  1785 ;; Hardware stack levels used:    1
  1786 ;; Hardware stack levels required when called:   14
  1787 ;; This function calls:
  1788 ;;		_EUSART_Async_Init
  1789 ;;		_GPIO_Pin_Initialize
  1790 ;;		_lcd_4bit_initialize
  1791 ;; This function is called by:
  1792 ;;		_main
  1793 ;; This function uses a non-reentrant model
  1794 ;;
  1795                           
  1796                           	psect	text1
  1797  003BC0                     __ptext1:
  1798                           	callstack 0
  1799  003BC0                     _application_intialize:
  1800                           	callstack 16
  1801  003BC0                     
  1802                           ;application.c: 182:     GPIO_Pin_Initialize(&pind1);
  1803  003BC0  0E54               	movlw	low _pind1
  1804  003BC2  0100               	movlb	0	; () banked
  1805  003BC4  6F87               	movwf	GPIO_Pin_Initialize@_pin_config& (0+255),b
  1806  003BC6  0E00               	movlw	high _pind1
  1807  003BC8  6F88               	movwf	(GPIO_Pin_Initialize@_pin_config+1)& (0+255),b
  1808  003BCA  EC6D  F01D         	call	_GPIO_Pin_Initialize	;wreg free
  1809                           
  1810                           ;application.c: 183:     GPIO_Pin_Initialize(&pind2);
  1811  003BCE  0E55               	movlw	low _pind2
  1812  003BD0  0100               	movlb	0	; () banked
  1813  003BD2  6F87               	movwf	GPIO_Pin_Initialize@_pin_config& (0+255),b
  1814  003BD4  0E00               	movlw	high _pind2
  1815  003BD6  6F88               	movwf	(GPIO_Pin_Initialize@_pin_config+1)& (0+255),b
  1816  003BD8  EC6D  F01D         	call	_GPIO_Pin_Initialize	;wreg free
  1817                           
  1818                           ;application.c: 184:     GPIO_Pin_Initialize(&selector);
  1819  003BDC  0E53               	movlw	low _selector
  1820  003BDE  0100               	movlb	0	; () banked
  1821  003BE0  6F87               	movwf	GPIO_Pin_Initialize@_pin_config& (0+255),b
  1822  003BE2  0E00               	movlw	high _selector
  1823  003BE4  6F88               	movwf	(GPIO_Pin_Initialize@_pin_config+1)& (0+255),b
  1824  003BE6  EC6D  F01D         	call	_GPIO_Pin_Initialize	;wreg free
  1825  003BEA                     
  1826                           ;application.c: 185:     EUSART_Async_Init(&_uart_obj);
  1827  003BEA  0EF4               	movlw	low __uart_obj
  1828  003BEC  0101               	movlb	1	; () banked
  1829  003BEE  6F19               	movwf	EUSART_Async_Init@_eusart_obj& (0+255),b
  1830  003BF0  0E00               	movlw	high __uart_obj
  1831  003BF2  6F1A               	movwf	(EUSART_Async_Init@_eusart_obj+1)& (0+255),b
  1832  003BF4  EC74  F01C         	call	_EUSART_Async_Init	;wreg free
  1833  003BF8                     
  1834                           ;application.c: 186:     lcd_4bit_initialize(&lcd1);
  1835  003BF8  0E4D               	movlw	low _lcd1
  1836  003BFA  0100               	movlb	0	; () banked
  1837  003BFC  6F8F               	movwf	lcd_4bit_initialize@lcd& (0+255),b
  1838  003BFE  0E00               	movlw	high _lcd1
  1839  003C00  6F90               	movwf	(lcd_4bit_initialize@lcd+1)& (0+255),b
  1840  003C02  ECFC  F014         	call	_lcd_4bit_initialize	;wreg free
  1841  003C06  0012               	return		;funcret
  1842  003C08                     __end_of_application_intialize:
  1843                           	callstack 0
  1844                           
  1845 ;; *************** function _lcd_4bit_initialize *****************
  1846 ;; Defined at:
  1847 ;;		line 21 in file "ECU/LCD_for_test_gps/ecu_char_lcd.c"
  1848 ;; Parameters:    Size  Location     Type
  1849 ;;  lcd             2   15[BANK0 ] PTR const struct .
  1850 ;;		 -> lcd1(6), 
  1851 ;; Auto vars:     Size  Location     Type
  1852 ;;  pin_lcd_coun    1   19[BANK0 ] unsigned char 
  1853 ;;  ERRORSTATUS     1    0        unsigned char 
  1854 ;; Return value:  Size  Location     Type
  1855 ;;                  1    wreg      unsigned char 
  1856 ;; Registers used:
  1857 ;;		wreg, fsr2l, fsr2h, status,2, status,0, prodl, prodh, cstack
  1858 ;; Tracked objects:
  1859 ;;		On entry : 0/0
  1860 ;;		On exit  : 0/0
  1861 ;;		Unchanged: 0/0
  1862 ;; Data sizes:     COMRAM   BANK0   BANK1   BANK2   BANK3   BANK4   BANK5   BANK6   BANK7   BANK8   BANK9  BANK10  BANK1
      +1  BANK12  BANK13  BANK14  BANK15
  1863 ;;      Params:         0       2       0       0       0       0       0       0       0       0       0       0       
      +0       0       0       0       0
  1864 ;;      Locals:         0       2       0       0       0       0       0       0       0       0       0       0       
      +0       0       0       0       0
  1865 ;;      Temps:          0       2       0       0       0       0       0       0       0       0       0       0       
      +0       0       0       0       0
  1866 ;;      Totals:         0       6       0       0       0       0       0       0       0       0       0       0       
      +0       0       0       0       0
  1867 ;;Total ram usage:        6 bytes
  1868 ;; Hardware stack levels used:    1
  1869 ;; Hardware stack levels required when called:   13
  1870 ;; This function calls:
  1871 ;;		_GPIO_Pin_Initialize
  1872 ;;		_lcd_4bit_send_command
  1873 ;; This function is called by:
  1874 ;;		_application_intialize
  1875 ;; This function uses a non-reentrant model
  1876 ;;
  1877                           
  1878                           	psect	text2
  1879  0029F8                     __ptext2:
  1880                           	callstack 0
  1881  0029F8                     _lcd_4bit_initialize:
  1882                           	callstack 16
  1883  0029F8                     
  1884                           ;ECU/LCD_for_test_gps/ecu_char_lcd.c: 24:     if ( ((void*)0)==lcd)
  1885  0029F8  0100               	movlb	0	; () banked
  1886  0029FA  518F               	movf	lcd_4bit_initialize@lcd& (0+255),w,b
  1887  0029FC  1190               	iorwf	(lcd_4bit_initialize@lcd+1)& (0+255),w,b
  1888  0029FE  A4D8               	btfss	status,2,c
  1889  002A00  EF04  F015         	goto	u8381
  1890  002A04  EF06  F015         	goto	u8380
  1891  002A08                     u8381:
  1892  002A08  EF08  F015         	goto	l7475
  1893  002A0C                     u8380:
  1894  002A0C                     
  1895                           ; BSR set to: 0
  1896                           ;ECU/LCD_for_test_gps/ecu_char_lcd.c: 27:     }
  1897  002A0C  EF98  F015         	goto	l77
  1898  002A10                     l7475:
  1899  002A10                     
  1900                           ; BSR set to: 0
  1901  002A10  C08F  F087         	movff	lcd_4bit_initialize@lcd,GPIO_Pin_Initialize@_pin_config
  1902  002A14  C090  F088         	movff	lcd_4bit_initialize@lcd+1,GPIO_Pin_Initialize@_pin_config+1
  1903  002A18  EC6D  F01D         	call	_GPIO_Pin_Initialize	;wreg free
  1904  002A1C  0E01               	movlw	1
  1905  002A1E  0100               	movlb	0	; () banked
  1906  002A20  258F               	addwf	lcd_4bit_initialize@lcd& (0+255),w,b
  1907  002A22  6F87               	movwf	GPIO_Pin_Initialize@_pin_config& (0+255),b
  1908  002A24  0E00               	movlw	0
  1909  002A26  2190               	addwfc	(lcd_4bit_initialize@lcd+1)& (0+255),w,b
  1910  002A28  6F88               	movwf	(GPIO_Pin_Initialize@_pin_config+1)& (0+255),b
  1911  002A2A  EC6D  F01D         	call	_GPIO_Pin_Initialize	;wreg free
  1912                           
  1913                           ;ECU/LCD_for_test_gps/ecu_char_lcd.c: 33:         for(pin_lcd_counter=0;pin_lcd_counter<
      +                          4;pin_lcd_counter++)
  1914  002A2E  0E00               	movlw	0
  1915  002A30  0100               	movlb	0	; () banked
  1916  002A32  6F93               	movwf	lcd_4bit_initialize@pin_lcd_counter& (0+255),b
  1917  002A34                     l7485:
  1918                           
  1919                           ; BSR set to: 0
  1920  002A34  5193               	movf	lcd_4bit_initialize@pin_lcd_counter& (0+255),w,b
  1921  002A36  258F               	addwf	lcd_4bit_initialize@lcd& (0+255),w,b
  1922  002A38  6F91               	movwf	??_lcd_4bit_initialize& (0+255),b
  1923  002A3A  0E00               	movlw	0
  1924  002A3C  2190               	addwfc	(lcd_4bit_initialize@lcd+1)& (0+255),w,b
  1925  002A3E  6F92               	movwf	(??_lcd_4bit_initialize+1)& (0+255),b
  1926  002A40  0E02               	movlw	2
  1927  002A42  2591               	addwf	??_lcd_4bit_initialize& (0+255),w,b
  1928  002A44  6F87               	movwf	GPIO_Pin_Initialize@_pin_config& (0+255),b
  1929  002A46  0E00               	movlw	0
  1930  002A48  2192               	addwfc	(??_lcd_4bit_initialize+1)& (0+255),w,b
  1931  002A4A  6F88               	movwf	(GPIO_Pin_Initialize@_pin_config+1)& (0+255),b
  1932  002A4C  EC6D  F01D         	call	_GPIO_Pin_Initialize	;wreg free
  1933  002A50                     
  1934                           ;ECU/LCD_for_test_gps/ecu_char_lcd.c: 38:         }
  1935  002A50  0100               	movlb	0	; () banked
  1936  002A52  2B93               	incf	lcd_4bit_initialize@pin_lcd_counter& (0+255),f,b
  1937  002A54                     
  1938                           ; BSR set to: 0
  1939  002A54  0E03               	movlw	3
  1940  002A56  6593               	cpfsgt	lcd_4bit_initialize@pin_lcd_counter& (0+255),b
  1941  002A58  EF30  F015         	goto	u8391
  1942  002A5C  EF32  F015         	goto	u8390
  1943  002A60                     u8391:
  1944  002A60  EF1A  F015         	goto	l7485
  1945  002A64                     u8390:
  1946  002A64                     
  1947                           ; BSR set to: 0
  1948                           ;ECU/LCD_for_test_gps/ecu_char_lcd.c: 39:         _delay((unsigned long)((20)*(8000000/4
      +                          000.0)));
  1949  002A64  0E34               	movlw	52
  1950  002A66  0100               	movlb	0	; () banked
  1951  002A68  6F91               	movwf	??_lcd_4bit_initialize& (0+255),b
  1952  002A6A  0EF1               	movlw	241
  1953  002A6C                     u8987:
  1954  002A6C  2EE8               	decfsz	wreg,f,c
  1955  002A6E  D7FE               	bra	u8987
  1956  002A70  2F91               	decfsz	??_lcd_4bit_initialize& (0+255),f,b
  1957  002A72  D7FC               	bra	u8987
  1958  002A74  D000               	nop2	
  1959  002A76  C08F  F08B         	movff	lcd_4bit_initialize@lcd,lcd_4bit_send_command@lcd
  1960  002A7A  C090  F08C         	movff	lcd_4bit_initialize@lcd+1,lcd_4bit_send_command@lcd+1
  1961  002A7E  0E38               	movlw	56
  1962  002A80  0100               	movlb	0	; () banked
  1963  002A82  6F8D               	movwf	lcd_4bit_send_command@command& (0+255),b
  1964  002A84  ECF7  F01A         	call	_lcd_4bit_send_command	;wreg free
  1965  002A88                     
  1966                           ;ECU/LCD_for_test_gps/ecu_char_lcd.c: 41:         _delay((unsigned long)((5)*(8000000/40
      +                          00.0)));
  1967  002A88  0E0D               	movlw	13
  1968  002A8A  0100               	movlb	0	; () banked
  1969  002A8C  6F91               	movwf	??_lcd_4bit_initialize& (0+255),b
  1970  002A8E  0EFB               	movlw	251
  1971  002A90                     u8997:
  1972  002A90  2EE8               	decfsz	wreg,f,c
  1973  002A92  D7FE               	bra	u8997
  1974  002A94  2F91               	decfsz	??_lcd_4bit_initialize& (0+255),f,b
  1975  002A96  D7FC               	bra	u8997
  1976  002A98  D000               	nop2	
  1977  002A9A  C08F  F08B         	movff	lcd_4bit_initialize@lcd,lcd_4bit_send_command@lcd
  1978  002A9E  C090  F08C         	movff	lcd_4bit_initialize@lcd+1,lcd_4bit_send_command@lcd+1
  1979  002AA2  0E38               	movlw	56
  1980  002AA4  0100               	movlb	0	; () banked
  1981  002AA6  6F8D               	movwf	lcd_4bit_send_command@command& (0+255),b
  1982  002AA8  ECF7  F01A         	call	_lcd_4bit_send_command	;wreg free
  1983  002AAC                     
  1984                           ;ECU/LCD_for_test_gps/ecu_char_lcd.c: 43:         _delay((unsigned long)((150)*(8000000/
      +                          4000000.0)));
  1985  002AAC  0E64               	movlw	100
  1986  002AAE                     u9007:
  1987  002AAE  2EE8               	decfsz	wreg,f,c
  1988  002AB0  D7FE               	bra	u9007
  1989  002AB2  C08F  F08B         	movff	lcd_4bit_initialize@lcd,lcd_4bit_send_command@lcd
  1990  002AB6  C090  F08C         	movff	lcd_4bit_initialize@lcd+1,lcd_4bit_send_command@lcd+1
  1991  002ABA  0E38               	movlw	56
  1992  002ABC  0100               	movlb	0	; () banked
  1993  002ABE  6F8D               	movwf	lcd_4bit_send_command@command& (0+255),b
  1994  002AC0  ECF7  F01A         	call	_lcd_4bit_send_command	;wreg free
  1995  002AC4  C08F  F08B         	movff	lcd_4bit_initialize@lcd,lcd_4bit_send_command@lcd
  1996  002AC8  C090  F08C         	movff	lcd_4bit_initialize@lcd+1,lcd_4bit_send_command@lcd+1
  1997  002ACC  0E01               	movlw	1
  1998  002ACE  0100               	movlb	0	; () banked
  1999  002AD0  6F8D               	movwf	lcd_4bit_send_command@command& (0+255),b
  2000  002AD2  ECF7  F01A         	call	_lcd_4bit_send_command	;wreg free
  2001  002AD6  C08F  F08B         	movff	lcd_4bit_initialize@lcd,lcd_4bit_send_command@lcd
  2002  002ADA  C090  F08C         	movff	lcd_4bit_initialize@lcd+1,lcd_4bit_send_command@lcd+1
  2003  002ADE  0E02               	movlw	2
  2004  002AE0  0100               	movlb	0	; () banked
  2005  002AE2  6F8D               	movwf	lcd_4bit_send_command@command& (0+255),b
  2006  002AE4  ECF7  F01A         	call	_lcd_4bit_send_command	;wreg free
  2007  002AE8  C08F  F08B         	movff	lcd_4bit_initialize@lcd,lcd_4bit_send_command@lcd
  2008  002AEC  C090  F08C         	movff	lcd_4bit_initialize@lcd+1,lcd_4bit_send_command@lcd+1
  2009  002AF0  0E06               	movlw	6
  2010  002AF2  0100               	movlb	0	; () banked
  2011  002AF4  6F8D               	movwf	lcd_4bit_send_command@command& (0+255),b
  2012  002AF6  ECF7  F01A         	call	_lcd_4bit_send_command	;wreg free
  2013  002AFA  C08F  F08B         	movff	lcd_4bit_initialize@lcd,lcd_4bit_send_command@lcd
  2014  002AFE  C090  F08C         	movff	lcd_4bit_initialize@lcd+1,lcd_4bit_send_command@lcd+1
  2015  002B02  0E0D               	movlw	13
  2016  002B04  0100               	movlb	0	; () banked
  2017  002B06  6F8D               	movwf	lcd_4bit_send_command@command& (0+255),b
  2018  002B08  ECF7  F01A         	call	_lcd_4bit_send_command	;wreg free
  2019  002B0C  C08F  F08B         	movff	lcd_4bit_initialize@lcd,lcd_4bit_send_command@lcd
  2020  002B10  C090  F08C         	movff	lcd_4bit_initialize@lcd+1,lcd_4bit_send_command@lcd+1
  2021  002B14  0E28               	movlw	40
  2022  002B16  0100               	movlb	0	; () banked
  2023  002B18  6F8D               	movwf	lcd_4bit_send_command@command& (0+255),b
  2024  002B1A  ECF7  F01A         	call	_lcd_4bit_send_command	;wreg free
  2025  002B1E  C08F  F08B         	movff	lcd_4bit_initialize@lcd,lcd_4bit_send_command@lcd
  2026  002B22  C090  F08C         	movff	lcd_4bit_initialize@lcd+1,lcd_4bit_send_command@lcd+1
  2027  002B26  0E80               	movlw	128
  2028  002B28  0100               	movlb	0	; () banked
  2029  002B2A  6F8D               	movwf	lcd_4bit_send_command@command& (0+255),b
  2030  002B2C  ECF7  F01A         	call	_lcd_4bit_send_command	;wreg free
  2031  002B30                     l77:
  2032  002B30  0012               	return		;funcret
  2033  002B32                     __end_of_lcd_4bit_initialize:
  2034                           	callstack 0
  2035                           
  2036 ;; *************** function _GPIO_Pin_Initialize *****************
  2037 ;; Defined at:
  2038 ;;		line 158 in file "MCAL/GPIO/hal_gpio.c"
  2039 ;; Parameters:    Size  Location     Type
  2040 ;;  _pin_config     2    7[BANK0 ] PTR const struct .
  2041 ;;		 -> selector(1), pind2(1), pind1(1), lcd1.lcd_data_pins(4), 
  2042 ;;		 -> lcd1(6), 
  2043 ;; Auto vars:     Size  Location     Type
  2044 ;;  ERRORSTATUS     1    9[BANK0 ] unsigned char 
  2045 ;; Return value:  Size  Location     Type
  2046 ;;                  1    wreg      unsigned char 
  2047 ;; Registers used:
  2048 ;;		wreg, fsr2l, fsr2h, status,2, status,0, prodl, prodh, cstack
  2049 ;; Tracked objects:
  2050 ;;		On entry : 0/0
  2051 ;;		On exit  : 0/0
  2052 ;;		Unchanged: 0/0
  2053 ;; Data sizes:     COMRAM   BANK0   BANK1   BANK2   BANK3   BANK4   BANK5   BANK6   BANK7   BANK8   BANK9  BANK10  BANK1
      +1  BANK12  BANK13  BANK14  BANK15
  2054 ;;      Params:         0       2       0       0       0       0       0       0       0       0       0       0       
      +0       0       0       0       0
  2055 ;;      Locals:         0       1       0       0       0       0       0       0       0       0       0       0       
      +0       0       0       0       0
  2056 ;;      Temps:          0       0       0       0       0       0       0       0       0       0       0       0       
      +0       0       0       0       0
  2057 ;;      Totals:         0       3       0       0       0       0       0       0       0       0       0       0       
      +0       0       0       0       0
  2058 ;;Total ram usage:        3 bytes
  2059 ;; Hardware stack levels used:    1
  2060 ;; Hardware stack levels required when called:   11
  2061 ;; This function calls:
  2062 ;;		_GPIO_Pin_Direction_Initialize
  2063 ;;		_GPIO_Pin_Write_Logic
  2064 ;; This function is called by:
  2065 ;;		_lcd_4bit_initialize
  2066 ;;		_application_intialize
  2067 ;;		_lcd_8bit_initialize
  2068 ;; This function uses a non-reentrant model
  2069 ;;
  2070                           
  2071                           	psect	text3
  2072  003ADA                     __ptext3:
  2073                           	callstack 0
  2074  003ADA                     _GPIO_Pin_Initialize:
  2075                           	callstack 17
  2076  003ADA                     
  2077                           ;MCAL/GPIO/hal_gpio.c: 161:           if ( ((void*)0)==_pin_config)
  2078  003ADA  0100               	movlb	0	; () banked
  2079  003ADC  5187               	movf	GPIO_Pin_Initialize@_pin_config& (0+255),w,b
  2080  003ADE  1188               	iorwf	(GPIO_Pin_Initialize@_pin_config+1)& (0+255),w,b
  2081  003AE0  A4D8               	btfss	status,2,c
  2082  003AE2  EF75  F01D         	goto	u8181
  2083  003AE6  EF77  F01D         	goto	u8180
  2084  003AEA                     u8181:
  2085  003AEA  EF7B  F01D         	goto	l7301
  2086  003AEE                     u8180:
  2087  003AEE                     
  2088                           ; BSR set to: 0
  2089                           ;MCAL/GPIO/hal_gpio.c: 162:     {;MCAL/GPIO/hal_gpio.c: 163:         ERRORSTATUS=(Std_re
      +                          turnType) 0x00;
  2090  003AEE  0E00               	movlw	0
  2091  003AF0  6F89               	movwf	GPIO_Pin_Initialize@ERRORSTATUS& (0+255),b
  2092                           
  2093                           ;MCAL/GPIO/hal_gpio.c: 164:     }
  2094  003AF2  EF93  F01D         	goto	l7303
  2095  003AF6                     l7301:
  2096                           
  2097                           ; BSR set to: 0
  2098                           ;MCAL/GPIO/hal_gpio.c: 166:     {;MCAL/GPIO/hal_gpio.c: 167:          ERRORSTATUS=GPIO_P
      +                          in_Direction_Initialize(_pin_config);
  2099  003AF6  C087  F02A         	movff	GPIO_Pin_Initialize@_pin_config,GPIO_Pin_Direction_Initialize@_pin_config
  2100  003AFA  C088  F02B         	movff	GPIO_Pin_Initialize@_pin_config+1,GPIO_Pin_Direction_Initialize@_pin_config+1
  2101  003AFE  EC59  F014         	call	_GPIO_Pin_Direction_Initialize	;wreg free
  2102  003B02  0100               	movlb	0	; () banked
  2103  003B04  6F89               	movwf	GPIO_Pin_Initialize@ERRORSTATUS& (0+255),b
  2104                           
  2105                           ;MCAL/GPIO/hal_gpio.c: 168:          ERRORSTATUS=GPIO_Pin_Write_Logic(_pin_config,_pin_c
      +                          onfig->logic);
  2106  003B06  C087  F02A         	movff	GPIO_Pin_Initialize@_pin_config,GPIO_Pin_Write_Logic@_pin_config
  2107  003B0A  C088  F02B         	movff	GPIO_Pin_Initialize@_pin_config+1,GPIO_Pin_Write_Logic@_pin_config+1
  2108  003B0E  C087  FFD9         	movff	GPIO_Pin_Initialize@_pin_config,fsr2l
  2109  003B12  C088  FFDA         	movff	GPIO_Pin_Initialize@_pin_config+1,fsr2h
  2110  003B16  0E00               	movlw	0
  2111  003B18  BEDF               	btfsc	indf2,7,c
  2112  003B1A  0E01               	movlw	1
  2113  003B1C  6E2C               	movwf	GPIO_Pin_Write_Logic@logic^0,c
  2114  003B1E  EC99  F015         	call	_GPIO_Pin_Write_Logic	;wreg free
  2115  003B22  0100               	movlb	0	; () banked
  2116  003B24  6F89               	movwf	GPIO_Pin_Initialize@ERRORSTATUS& (0+255),b
  2117  003B26                     l7303:
  2118                           
  2119                           ; BSR set to: 0
  2120                           ;MCAL/GPIO/hal_gpio.c: 171:      return ERRORSTATUS;
  2121  003B26  5189               	movf	GPIO_Pin_Initialize@ERRORSTATUS& (0+255),w,b
  2122  003B28                     
  2123                           ; BSR set to: 0
  2124  003B28  0012               	return		;funcret
  2125  003B2A                     __end_of_GPIO_Pin_Initialize:
  2126                           	callstack 0
  2127                           
  2128 ;; *************** function _GPIO_Pin_Direction_Initialize *****************
  2129 ;; Defined at:
  2130 ;;		line 25 in file "MCAL/GPIO/hal_gpio.c"
  2131 ;; Parameters:    Size  Location     Type
  2132 ;;  _pin_config     2   41[COMRAM] PTR const struct .
  2133 ;;		 -> selector(1), pind2(1), pind1(1), lcd1.lcd_data_pins(4), 
  2134 ;;		 -> lcd1(6), 
  2135 ;; Auto vars:     Size  Location     Type
  2136 ;;  ERRORSTATUS     1   43[COMRAM] unsigned char 
  2137 ;; Return value:  Size  Location     Type
  2138 ;;                  1    wreg      unsigned char 
  2139 ;; Registers used:
  2140 ;;		wreg, fsr2l, fsr2h, status,2, status,0, prodl, prodh
  2141 ;; Tracked objects:
  2142 ;;		On entry : 0/0
  2143 ;;		On exit  : 0/0
  2144 ;;		Unchanged: 0/0
  2145 ;; Data sizes:     COMRAM   BANK0   BANK1   BANK2   BANK3   BANK4   BANK5   BANK6   BANK7   BANK8   BANK9  BANK10  BANK1
      +1  BANK12  BANK13  BANK14  BANK15
  2146 ;;      Params:         2       0       0       0       0       0       0       0       0       0       0       0       
      +0       0       0       0       0
  2147 ;;      Locals:         1       0       0       0       0       0       0       0       0       0       0       0       
      +0       0       0       0       0
  2148 ;;      Temps:          0       6       0       0       0       0       0       0       0       0       0       0       
      +0       0       0       0       0
  2149 ;;      Totals:         3       6       0       0       0       0       0       0       0       0       0       0       
      +0       0       0       0       0
  2150 ;;Total ram usage:        9 bytes
  2151 ;; Hardware stack levels used:    1
  2152 ;; Hardware stack levels required when called:   10
  2153 ;; This function calls:
  2154 ;;		Nothing
  2155 ;; This function is called by:
  2156 ;;		_GPIO_Pin_Initialize
  2157 ;;		_interrupt_RBx_pin_init
  2158 ;; This function uses a non-reentrant model
  2159 ;;
  2160                           
  2161                           	psect	text4
  2162  0028B2                     __ptext4:
  2163                           	callstack 0
  2164  0028B2                     _GPIO_Pin_Direction_Initialize:
  2165                           	callstack 17
  2166  0028B2                     
  2167                           ;MCAL/GPIO/hal_gpio.c: 25: Std_returnType GPIO_Pin_Direction_Initialize (const pin_confi
      +                          g_st * _pin_config);MCAL/GPIO/hal_gpio.c: 26: {;MCAL/GPIO/hal_gpio.c: 27:     Std_return
      +                          Type ERRORSTATUS =(Std_returnType) 0x01;
  2168  0028B2  0E01               	movlw	1
  2169  0028B4  6E2C               	movwf	GPIO_Pin_Direction_Initialize@ERRORSTATUS^0,c
  2170  0028B6                     
  2171                           ;MCAL/GPIO/hal_gpio.c: 28:     if ( ((void*)0)==_pin_config||_pin_config->pin> 8 -1)
  2172  0028B6  502A               	movf	GPIO_Pin_Direction_Initialize@_pin_config^0,w,c
  2173  0028B8  102B               	iorwf	(GPIO_Pin_Direction_Initialize@_pin_config+1)^0,w,c
  2174  0028BA  B4D8               	btfsc	status,2,c
  2175  0028BC  EF62  F014         	goto	u7181
  2176  0028C0  EF64  F014         	goto	u7180
  2177  0028C4                     u7181:
  2178  0028C4  EF74  F014         	goto	l6787
  2179  0028C8                     u7180:
  2180  0028C8  C02A  FFD9         	movff	GPIO_Pin_Direction_Initialize@_pin_config,fsr2l
  2181  0028CC  C02B  FFDA         	movff	GPIO_Pin_Direction_Initialize@_pin_config+1,fsr2h
  2182  0028D0  50DF               	movf	indf2,w,c
  2183  0028D2  0B07               	andlw	7
  2184  0028D4  0100               	movlb	0	; () banked
  2185  0028D6  6F80               	movwf	??_GPIO_Pin_Direction_Initialize& (0+255),b
  2186  0028D8  0E07               	movlw	7
  2187  0028DA  6580               	cpfsgt	??_GPIO_Pin_Direction_Initialize& (0+255),b
  2188  0028DC  EF72  F014         	goto	u7191
  2189  0028E0  EF74  F014         	goto	u7190
  2190  0028E4                     u7191:
  2191  0028E4  EFD9  F014         	goto	l6795
  2192  0028E8                     u7190:
  2193  0028E8                     l6787:
  2194                           
  2195                           ;MCAL/GPIO/hal_gpio.c: 29:     {;MCAL/GPIO/hal_gpio.c: 30:         ERRORSTATUS=(Std_retu
      +                          rnType) 0x00;
  2196  0028E8  0E00               	movlw	0
  2197  0028EA  6E2C               	movwf	GPIO_Pin_Direction_Initialize@ERRORSTATUS^0,c
  2198                           
  2199                           ;MCAL/GPIO/hal_gpio.c: 31:     }
  2200  0028EC  EFFA  F014         	goto	l6797
  2201  0028F0                     l6789:
  2202                           
  2203                           ; BSR set to: 0
  2204                           ;MCAL/GPIO/hal_gpio.c: 37:          (*tris_registers[_pin_config->port]&=~( (uint8)1<<_p
      +                          in_config->pin ));
  2205  0028F0  C02A  FFD9         	movff	GPIO_Pin_Direction_Initialize@_pin_config,fsr2l
  2206  0028F4  C02B  FFDA         	movff	GPIO_Pin_Direction_Initialize@_pin_config+1,fsr2h
  2207  0028F8  50DF               	movf	indf2,w,c
  2208  0028FA  0B07               	andlw	7
  2209  0028FC  6F80               	movwf	??_GPIO_Pin_Direction_Initialize& (0+255),b
  2210  0028FE  0E01               	movlw	1
  2211  002900  6F81               	movwf	(??_GPIO_Pin_Direction_Initialize+1)& (0+255),b
  2212  002902  2B80               	incf	??_GPIO_Pin_Direction_Initialize& (0+255),f,b
  2213  002904  EF86  F014         	goto	u7204
  2214  002908                     u7205:
  2215  002908  90D8               	bcf	status,0,c
  2216  00290A  3781               	rlcf	(??_GPIO_Pin_Direction_Initialize+1)& (0+255),f,b
  2217  00290C                     u7204:
  2218  00290C  2F80               	decfsz	??_GPIO_Pin_Direction_Initialize& (0+255),f,b
  2219  00290E  EF84  F014         	goto	u7205
  2220  002912  0100               	movlb	0	; () banked
  2221  002914  5181               	movf	(??_GPIO_Pin_Direction_Initialize+1)& (0+255),w,b
  2222  002916  0AFF               	xorlw	255
  2223  002918  6F82               	movwf	(??_GPIO_Pin_Direction_Initialize+2)& (0+255),b
  2224  00291A  C02A  FFD9         	movff	GPIO_Pin_Direction_Initialize@_pin_config,fsr2l
  2225  00291E  C02B  FFDA         	movff	GPIO_Pin_Direction_Initialize@_pin_config+1,fsr2h
  2226  002922  30DF               	rrcf	indf2,w,c
  2227  002924  32E8               	rrcf	wreg,f,c
  2228  002926  32E8               	rrcf	wreg,f,c
  2229  002928  0B07               	andlw	7
  2230  00292A  6F83               	movwf	(??_GPIO_Pin_Direction_Initialize+3)& (0+255),b
  2231  00292C  5183               	movf	(??_GPIO_Pin_Direction_Initialize+3)& (0+255),w,b
  2232  00292E  0D02               	mullw	2
  2233  002930  0EEA               	movlw	low _tris_registers
  2234  002932  24F3               	addwf	243,w,c
  2235  002934  6ED9               	movwf	fsr2l,c
  2236  002936  0E00               	movlw	high _tris_registers
  2237  002938  20F4               	addwfc	prodh,w,c
  2238  00293A  6EDA               	movwf	fsr2h,c
  2239  00293C  CFDE F084          	movff	postinc2,??_GPIO_Pin_Direction_Initialize+4
  2240  002940  CFDD F085          	movff	postdec2,??_GPIO_Pin_Direction_Initialize+5
  2241  002944  C084  FFD9         	movff	??_GPIO_Pin_Direction_Initialize+4,fsr2l
  2242  002948  C085  FFDA         	movff	??_GPIO_Pin_Direction_Initialize+5,fsr2h
  2243  00294C  5182               	movf	(??_GPIO_Pin_Direction_Initialize+2)& (0+255),w,b
  2244  00294E  16DF               	andwf	indf2,f,c
  2245                           
  2246                           ;MCAL/GPIO/hal_gpio.c: 38:             break;
  2247  002950  EFFA  F014         	goto	l6797
  2248  002954                     l6791:
  2249                           
  2250                           ; BSR set to: 0
  2251                           ;MCAL/GPIO/hal_gpio.c: 40:           (*tris_registers[_pin_config->port]|=( (uint8)1<<_p
      +                          in_config->pin ));
  2252  002954  C02A  FFD9         	movff	GPIO_Pin_Direction_Initialize@_pin_config,fsr2l
  2253  002958  C02B  FFDA         	movff	GPIO_Pin_Direction_Initialize@_pin_config+1,fsr2h
  2254  00295C  50DF               	movf	indf2,w,c
  2255  00295E  0B07               	andlw	7
  2256  002960  6F80               	movwf	??_GPIO_Pin_Direction_Initialize& (0+255),b
  2257  002962  0E01               	movlw	1
  2258  002964  6F81               	movwf	(??_GPIO_Pin_Direction_Initialize+1)& (0+255),b
  2259  002966  2B80               	incf	??_GPIO_Pin_Direction_Initialize& (0+255),f,b
  2260  002968  EFB8  F014         	goto	u7214
  2261  00296C                     u7215:
  2262  00296C  90D8               	bcf	status,0,c
  2263  00296E  3781               	rlcf	(??_GPIO_Pin_Direction_Initialize+1)& (0+255),f,b
  2264  002970                     u7214:
  2265  002970  2F80               	decfsz	??_GPIO_Pin_Direction_Initialize& (0+255),f,b
  2266  002972  EFB6  F014         	goto	u7215
  2267  002976  C02A  FFD9         	movff	GPIO_Pin_Direction_Initialize@_pin_config,fsr2l
  2268  00297A  C02B  FFDA         	movff	GPIO_Pin_Direction_Initialize@_pin_config+1,fsr2h
  2269  00297E  30DF               	rrcf	indf2,w,c
  2270  002980  32E8               	rrcf	wreg,f,c
  2271  002982  32E8               	rrcf	wreg,f,c
  2272  002984  0B07               	andlw	7
  2273  002986  0100               	movlb	0	; () banked
  2274  002988  6F82               	movwf	(??_GPIO_Pin_Direction_Initialize+2)& (0+255),b
  2275  00298A  5182               	movf	(??_GPIO_Pin_Direction_Initialize+2)& (0+255),w,b
  2276  00298C  0D02               	mullw	2
  2277  00298E  0EEA               	movlw	low _tris_registers
  2278  002990  24F3               	addwf	243,w,c
  2279  002992  6ED9               	movwf	fsr2l,c
  2280  002994  0E00               	movlw	high _tris_registers
  2281  002996  20F4               	addwfc	prodh,w,c
  2282  002998  6EDA               	movwf	fsr2h,c
  2283  00299A  CFDE F083          	movff	postinc2,??_GPIO_Pin_Direction_Initialize+3
  2284  00299E  CFDD F084          	movff	postdec2,??_GPIO_Pin_Direction_Initialize+4
  2285  0029A2  C083  FFD9         	movff	??_GPIO_Pin_Direction_Initialize+3,fsr2l
  2286  0029A6  C084  FFDA         	movff	??_GPIO_Pin_Direction_Initialize+4,fsr2h
  2287  0029AA  5181               	movf	(??_GPIO_Pin_Direction_Initialize+1)& (0+255),w,b
  2288  0029AC  12DF               	iorwf	indf2,f,c
  2289                           
  2290                           ;MCAL/GPIO/hal_gpio.c: 41:             break;
  2291  0029AE  EFFA  F014         	goto	l6797
  2292  0029B2                     l6795:
  2293                           
  2294                           ; BSR set to: 0
  2295  0029B2  C02A  FFD9         	movff	GPIO_Pin_Direction_Initialize@_pin_config,fsr2l
  2296  0029B6  C02B  FFDA         	movff	GPIO_Pin_Direction_Initialize@_pin_config+1,fsr2h
  2297  0029BA  BCDF               	btfsc	indf2,6,c
  2298  0029BC  EFE2  F014         	goto	u7221
  2299  0029C0  EFE5  F014         	goto	u7220
  2300  0029C4                     u7221:
  2301  0029C4  0E01               	movlw	1
  2302  0029C6  EFE6  F014         	goto	u7230
  2303  0029CA                     u7220:
  2304  0029CA  0E00               	movlw	0
  2305  0029CC                     u7230:
  2306  0029CC  6F80               	movwf	??_GPIO_Pin_Direction_Initialize& (0+255),b
  2307  0029CE  6B81               	clrf	(??_GPIO_Pin_Direction_Initialize+1)& (0+255),b
  2308                           
  2309                           ; Switch on 2 bytes has been partitioned into a top level switch of size 1, and 1 sub-sw
      +                          itches
  2310                           ; Switch size 1, requested type "simple"
  2311                           ; Number of cases is 1, Range of values is 0 to 0
  2312                           ; switch strategies available:
  2313                           ; Name         Instructions Cycles
  2314                           ; simple_byte            4     3 (average)
  2315                           ;	Chosen strategy is simple_byte
  2316  0029D0  5181               	movf	(??_GPIO_Pin_Direction_Initialize+1)& (0+255),w,b
  2317  0029D2  0A00               	xorlw	0	; case 0
  2318  0029D4  B4D8               	btfsc	status,2,c
  2319  0029D6  EFEF  F014         	goto	l8199
  2320  0029DA  EF74  F014         	goto	l6787
  2321  0029DE                     l8199:
  2322                           
  2323                           ; BSR set to: 0
  2324                           ; Switch size 1, requested type "simple"
  2325                           ; Number of cases is 2, Range of values is 0 to 1
  2326                           ; switch strategies available:
  2327                           ; Name         Instructions Cycles
  2328                           ; simple_byte            7     4 (average)
  2329                           ;	Chosen strategy is simple_byte
  2330  0029DE  5180               	movf	??_GPIO_Pin_Direction_Initialize& (0+255),w,b
  2331  0029E0  0A00               	xorlw	0	; case 0
  2332  0029E2  B4D8               	btfsc	status,2,c
  2333  0029E4  EF78  F014         	goto	l6789
  2334  0029E8  0A01               	xorlw	1	; case 1
  2335  0029EA  B4D8               	btfsc	status,2,c
  2336  0029EC  EFAA  F014         	goto	l6791
  2337  0029F0  EF74  F014         	goto	l6787
  2338  0029F4                     l6797:
  2339                           
  2340                           ;MCAL/GPIO/hal_gpio.c: 47:     return ERRORSTATUS;
  2341  0029F4  502C               	movf	GPIO_Pin_Direction_Initialize@ERRORSTATUS^0,w,c
  2342  0029F6  0012               	return		;funcret
  2343  0029F8                     __end_of_GPIO_Pin_Direction_Initialize:
  2344                           	callstack 0
  2345                           
  2346 ;; *************** function _EUSART_Async_Init *****************
  2347 ;; Defined at:
  2348 ;;		line 42 in file "MCAL/EUSART/mcal_EUSART.c"
  2349 ;; Parameters:    Size  Location     Type
  2350 ;;  _eusart_obj     2   25[BANK1 ] PTR const struct .
  2351 ;;		 -> _uart_obj(12), 
  2352 ;; Auto vars:     Size  Location     Type
  2353 ;;  ret_val         1   43[BANK0 ] unsigned char 
  2354 ;; Return value:  Size  Location     Type
  2355 ;;                  1    wreg      unsigned char 
  2356 ;; Registers used:
  2357 ;;		wreg, fsr2l, fsr2h, status,2, status,0, cstack
  2358 ;; Tracked objects:
  2359 ;;		On entry : 0/0
  2360 ;;		On exit  : 0/0
  2361 ;;		Unchanged: 0/0
  2362 ;; Data sizes:     COMRAM   BANK0   BANK1   BANK2   BANK3   BANK4   BANK5   BANK6   BANK7   BANK8   BANK9  BANK10  BANK1
      +1  BANK12  BANK13  BANK14  BANK15
  2363 ;;      Params:         0       0       2       0       0       0       0       0       0       0       0       0       
      +0       0       0       0       0
  2364 ;;      Locals:         0       1       0       0       0       0       0       0       0       0       0       0       
      +0       0       0       0       0
  2365 ;;      Temps:          0       0       0       0       0       0       0       0       0       0       0       0       
      +0       0       0       0       0
  2366 ;;      Totals:         0       1       2       0       0       0       0       0       0       0       0       0       
      +0       0       0       0       0
  2367 ;;Total ram usage:        3 bytes
  2368 ;; Hardware stack levels used:    1
  2369 ;; Hardware stack levels required when called:   12
  2370 ;; This function calls:
  2371 ;;		_async_Rx_config
  2372 ;;		_async_Tx_config
  2373 ;;		_async_config_baud_rate_gen
  2374 ;; This function is called by:
  2375 ;;		_application_intialize
  2376 ;;		_Bluetooth_Init
  2377 ;; This function uses a non-reentrant model
  2378 ;;
  2379                           
  2380                           	psect	text5
  2381  0038E8                     __ptext5:
  2382                           	callstack 0
  2383  0038E8                     _EUSART_Async_Init:
  2384                           	callstack 17
  2385  0038E8                     
  2386                           ;MCAL/EUSART/mcal_EUSART.c: 46:     if(((void*)0) == _eusart_obj)
  2387  0038E8  0101               	movlb	1	; () banked
  2388  0038EA  5119               	movf	EUSART_Async_Init@_eusart_obj& (0+255),w,b
  2389  0038EC  111A               	iorwf	(EUSART_Async_Init@_eusart_obj+1)& (0+255),w,b
  2390  0038EE  A4D8               	btfss	status,2,c
  2391  0038F0  EF7C  F01C         	goto	u8321
  2392  0038F4  EF7E  F01C         	goto	u8320
  2393  0038F8                     u8321:
  2394  0038F8  EF80  F01C         	goto	l313
  2395  0038FC                     u8320:
  2396  0038FC                     
  2397                           ; BSR set to: 1
  2398                           ;MCAL/EUSART/mcal_EUSART.c: 49:     }
  2399  0038FC  EFA6  F01C         	goto	l315
  2400  003900                     l313:
  2401                           
  2402                           ; BSR set to: 1
  2403                           ;MCAL/EUSART/mcal_EUSART.c: 51:     {;MCAL/EUSART/mcal_EUSART.c: 53:         (RCSTAbits.
      +                          SPEN = 0 );
  2404  003900  9EAB               	bcf	171,7,c	;volatile
  2405  003902                     
  2406                           ; BSR set to: 1
  2407                           ;MCAL/EUSART/mcal_EUSART.c: 56:         ret_val = async_config_baud_rate_gen(_eusart_obj
      +                          );
  2408  003902  C119  F10C         	movff	EUSART_Async_Init@_eusart_obj,async_config_baud_rate_gen@_eusart_obj
  2409  003906  C11A  F10D         	movff	EUSART_Async_Init@_eusart_obj+1,async_config_baud_rate_gen@_eusart_obj+1
  2410  00390A  ECD0  F00C         	call	_async_config_baud_rate_gen	;wreg free
  2411  00390E  0100               	movlb	0	; () banked
  2412  003910  6FAB               	movwf	EUSART_Async_Init@ret_val& (0+255),b
  2413  003912                     
  2414                           ; BSR set to: 0
  2415                           ;MCAL/EUSART/mcal_EUSART.c: 59:         (TXSTA1bits.SYNC = 0);
  2416  003912  98AC               	bcf	172,4,c	;volatile
  2417  003914                     
  2418                           ; BSR set to: 0
  2419                           ;MCAL/EUSART/mcal_EUSART.c: 62:         TRISCbits.RC6 = GPIO_DIRECTION_INPUT ;
  2420  003914  8C94               	bsf	148,6,c	;volatile
  2421                           
  2422                           ;MCAL/EUSART/mcal_EUSART.c: 64:         ret_val &= async_Tx_config(&(_eusart_obj->tx_con
      +                          fig));
  2423  003916  0E02               	movlw	2
  2424  003918  0101               	movlb	1	; () banked
  2425  00391A  2519               	addwf	EUSART_Async_Init@_eusart_obj& (0+255),w,b
  2426  00391C  6E2A               	movwf	async_Tx_config@_tx_obj^0,c
  2427  00391E  0E00               	movlw	0
  2428  003920  211A               	addwfc	(EUSART_Async_Init@_eusart_obj+1)& (0+255),w,b
  2429  003922  6E2B               	movwf	(async_Tx_config@_tx_obj+1)^0,c
  2430  003924  ECF7  F019         	call	_async_Tx_config	;wreg free
  2431  003928  0100               	movlb	0	; () banked
  2432  00392A  17AB               	andwf	EUSART_Async_Init@ret_val& (0+255),f,b
  2433  00392C                     
  2434                           ; BSR set to: 0
  2435                           ;MCAL/EUSART/mcal_EUSART.c: 67:         TRISCbits.RC7 = GPIO_DIRECTION_INPUT ;
  2436  00392C  8E94               	bsf	148,7,c	;volatile
  2437                           
  2438                           ;MCAL/EUSART/mcal_EUSART.c: 69:         ret_val &= async_Rx_config(&(_eusart_obj->rx_con
      +                          fig));
  2439  00392E  0E03               	movlw	3
  2440  003930  0101               	movlb	1	; () banked
  2441  003932  2519               	addwf	EUSART_Async_Init@_eusart_obj& (0+255),w,b
  2442  003934  0100               	movlb	0	; () banked
  2443  003936  6F80               	movwf	async_Rx_config@_rx_obj& (0+255),b
  2444  003938  0E00               	movlw	0
  2445  00393A  0101               	movlb	1	; () banked
  2446  00393C  211A               	addwfc	(EUSART_Async_Init@_eusart_obj+1)& (0+255),w,b
  2447  00393E  0100               	movlb	0	; () banked
  2448  003940  6F81               	movwf	(async_Rx_config@_rx_obj+1)& (0+255),b
  2449  003942  EC45  F018         	call	_async_Rx_config	;wreg free
  2450  003946  0100               	movlb	0	; () banked
  2451  003948  17AB               	andwf	EUSART_Async_Init@ret_val& (0+255),f,b
  2452  00394A                     
  2453                           ; BSR set to: 0
  2454                           ;MCAL/EUSART/mcal_EUSART.c: 72:         (RCSTAbits.SPEN = 1 );
  2455  00394A  8EAB               	bsf	171,7,c	;volatile
  2456  00394C                     l315:
  2457  00394C  0012               	return		;funcret
  2458  00394E                     __end_of_EUSART_Async_Init:
  2459                           	callstack 0
  2460                           
  2461 ;; *************** function _async_config_baud_rate_gen *****************
  2462 ;; Defined at:
  2463 ;;		line 564 in file "MCAL/EUSART/mcal_EUSART.c"
  2464 ;; Parameters:    Size  Location     Type
  2465 ;;  _eusart_obj     2   12[BANK1 ] PTR const struct .
  2466 ;;		 -> _uart_obj(12), 
  2467 ;; Auto vars:     Size  Location     Type
  2468 ;;  Baudrate_tem    4   17[BANK1 ] float 
  2469 ;;  ret_val         1   16[BANK1 ] unsigned char 
  2470 ;; Return value:  Size  Location     Type
  2471 ;;                  1    wreg      unsigned char 
  2472 ;; Registers used:
  2473 ;;		wreg, fsr2l, fsr2h, status,2, status,0, cstack
  2474 ;; Tracked objects:
  2475 ;;		On entry : 0/0
  2476 ;;		On exit  : 0/0
  2477 ;;		Unchanged: 0/0
  2478 ;; Data sizes:     COMRAM   BANK0   BANK1   BANK2   BANK3   BANK4   BANK5   BANK6   BANK7   BANK8   BANK9  BANK10  BANK1
      +1  BANK12  BANK13  BANK14  BANK15
  2479 ;;      Params:         0       0       2       0       0       0       0       0       0       0       0       0       
      +0       0       0       0       0
  2480 ;;      Locals:         0       0       9       0       0       0       0       0       0       0       0       0       
      +0       0       0       0       0
  2481 ;;      Temps:          0       0       2       0       0       0       0       0       0       0       0       0       
      +0       0       0       0       0
  2482 ;;      Totals:         0       0      13       0       0       0       0       0       0       0       0       0       
      +0       0       0       0       0
  2483 ;;Total ram usage:       13 bytes
  2484 ;; Hardware stack levels used:    1
  2485 ;; Hardware stack levels required when called:   11
  2486 ;; This function calls:
  2487 ;;		___fladd
  2488 ;;		___fldiv
  2489 ;;		___fltol
  2490 ;;		___xxtofl
  2491 ;; This function is called by:
  2492 ;;		_EUSART_Async_Init
  2493 ;; This function uses a non-reentrant model
  2494 ;;
  2495                           
  2496                           	psect	text6
  2497  0019A0                     __ptext6:
  2498                           	callstack 0
  2499  0019A0                     _async_config_baud_rate_gen:
  2500                           	callstack 17
  2501  0019A0                     
  2502                           ;MCAL/EUSART/mcal_EUSART.c: 564: static __attribute__((inline)) Std_ReturnType async_con
      +                          fig_baud_rate_gen(const uart_config_st *_eusart_obj);MCAL/EUSART/mcal_EUSART.c: 565: {;M
      +                          CAL/EUSART/mcal_EUSART.c: 567:     Std_ReturnType ret_val = (Std_returnType) 0x01 ;
  2503  0019A0  0E01               	movlw	1
  2504  0019A2  0101               	movlb	1	; () banked
  2505  0019A4  6F10               	movwf	async_config_baud_rate_gen@ret_val& (0+255),b
  2506  0019A6                     
  2507                           ; BSR set to: 1
  2508                           ;MCAL/EUSART/mcal_EUSART.c: 569:     if(((void*)0) == _eusart_obj)
  2509  0019A6  510C               	movf	async_config_baud_rate_gen@_eusart_obj& (0+255),w,b
  2510  0019A8  110D               	iorwf	(async_config_baud_rate_gen@_eusart_obj+1)& (0+255),w,b
  2511  0019AA  A4D8               	btfss	status,2,c
  2512  0019AC  EFDA  F00C         	goto	u8211
  2513  0019B0  EFDC  F00C         	goto	u8210
  2514  0019B4                     u8211:
  2515  0019B4  EFE0  F00C         	goto	l7347
  2516  0019B8                     u8210:
  2517  0019B8                     
  2518                           ; BSR set to: 1
  2519                           ;MCAL/EUSART/mcal_EUSART.c: 570:     {;MCAL/EUSART/mcal_EUSART.c: 571:         ret_val =
      +                           (Std_returnType) 0x00 ;
  2520  0019B8  0E00               	movlw	0
  2521  0019BA  6F10               	movwf	async_config_baud_rate_gen@ret_val& (0+255),b
  2522                           
  2523                           ;MCAL/EUSART/mcal_EUSART.c: 572:     }
  2524  0019BC  EFAE  F00E         	goto	l7373
  2525  0019C0                     l7347:
  2526                           
  2527                           ; BSR set to: 1
  2528                           ;MCAL/EUSART/mcal_EUSART.c: 574:     {;MCAL/EUSART/mcal_EUSART.c: 575:         float32 B
      +                          audrate_temp=0;
  2529  0019C0  0E00               	movlw	0
  2530  0019C2  6F11               	movwf	async_config_baud_rate_gen@Baudrate_temp& (0+255),b
  2531  0019C4  0E00               	movlw	0
  2532  0019C6  6F12               	movwf	(async_config_baud_rate_gen@Baudrate_temp+1)& (0+255),b
  2533  0019C8  0E00               	movlw	0
  2534  0019CA  6F13               	movwf	(async_config_baud_rate_gen@Baudrate_temp+2)& (0+255),b
  2535  0019CC  0E00               	movlw	0
  2536  0019CE  6F14               	movwf	(async_config_baud_rate_gen@Baudrate_temp+3)& (0+255),b
  2537                           
  2538                           ;MCAL/EUSART/mcal_EUSART.c: 576:         switch(_eusart_obj->baud_rate_config)
  2539  0019D0  EF6A  F00E         	goto	l7369
  2540  0019D4                     l456:
  2541                           
  2542                           ; BSR set to: 1
  2543                           ;MCAL/EUSART/mcal_EUSART.c: 579:                 TXSTAbits.BRGH = 0 ;
  2544  0019D4  94AC               	bcf	172,2,c	;volatile
  2545                           
  2546                           ;MCAL/EUSART/mcal_EUSART.c: 580:                 BAUDCONbits.BRG16 = 0 ;
  2547  0019D6  96B8               	bcf	184,3,c	;volatile
  2548  0019D8                     
  2549                           ; BSR set to: 1
  2550                           ;MCAL/EUSART/mcal_EUSART.c: 581:                 Baudrate_temp= ((8000000/((float32)_eus
      +                          art_obj->uart_baud_rate_value))/64)-1;
  2551  0019D8  C10C  FFD9         	movff	async_config_baud_rate_gen@_eusart_obj,fsr2l
  2552  0019DC  C10D  FFDA         	movff	async_config_baud_rate_gen@_eusart_obj+1,fsr2h
  2553  0019E0  CFDE F10E          	movff	postinc2,??_async_config_baud_rate_gen
  2554  0019E4  CFDD F10F          	movff	postdec2,??_async_config_baud_rate_gen+1
  2555  0019E8  C10E  F080         	movff	??_async_config_baud_rate_gen,___xxtofl@val
  2556  0019EC  C10F  F081         	movff	??_async_config_baud_rate_gen+1,___xxtofl@val+1
  2557  0019F0  0100               	movlb	0	; () banked
  2558  0019F2  6B82               	clrf	(___xxtofl@val+2)& (0+255),b
  2559  0019F4  6B83               	clrf	(___xxtofl@val+3)& (0+255),b
  2560  0019F6  0E00               	movlw	0
  2561  0019F8  EC7D  F013         	call	___xxtofl
  2562  0019FC  C080  F092         	movff	?___xxtofl,___fldiv@a
  2563  001A00  C081  F093         	movff	?___xxtofl+1,___fldiv@a+1
  2564  001A04  C082  F094         	movff	?___xxtofl+2,___fldiv@a+2
  2565  001A08  C083  F095         	movff	?___xxtofl+3,___fldiv@a+3
  2566  001A0C  0E00               	movlw	0
  2567  001A0E  0100               	movlb	0	; () banked
  2568  001A10  6F8E               	movwf	___fldiv@b& (0+255),b
  2569  001A12  0E24               	movlw	36
  2570  001A14  6F8F               	movwf	(___fldiv@b+1)& (0+255),b
  2571  001A16  0EF4               	movlw	244
  2572  001A18  6F90               	movwf	(___fldiv@b+2)& (0+255),b
  2573  001A1A  0E4A               	movlw	74
  2574  001A1C  6F91               	movwf	(___fldiv@b+3)& (0+255),b
  2575  001A1E  ECB1  F00E         	call	___fldiv	;wreg free
  2576  001A22  C08E  F115         	movff	?___fldiv,_async_config_baud_rate_gen$3860
  2577  001A26  C08F  F116         	movff	?___fldiv+1,_async_config_baud_rate_gen$3860+1
  2578  001A2A  C090  F117         	movff	?___fldiv+2,_async_config_baud_rate_gen$3860+2
  2579  001A2E  C091  F118         	movff	?___fldiv+3,_async_config_baud_rate_gen$3860+3
  2580  001A32                     
  2581                           ;MCAL/EUSART/mcal_EUSART.c: 581:                 Baudrate_temp= ((8000000/((float32)_eus
      +                          art_obj->uart_baud_rate_value))/64)-1;
  2582  001A32  0E00               	movlw	0
  2583  001A34  0100               	movlb	0	; () banked
  2584  001A36  6F92               	movwf	___fldiv@a& (0+255),b
  2585  001A38  0E00               	movlw	0
  2586  001A3A  6F93               	movwf	(___fldiv@a+1)& (0+255),b
  2587  001A3C  0E80               	movlw	128
  2588  001A3E  6F94               	movwf	(___fldiv@a+2)& (0+255),b
  2589  001A40  0E42               	movlw	66
  2590  001A42  6F95               	movwf	(___fldiv@a+3)& (0+255),b
  2591  001A44  C115  F08E         	movff	_async_config_baud_rate_gen$3860,___fldiv@b
  2592  001A48  C116  F08F         	movff	_async_config_baud_rate_gen$3860+1,___fldiv@b+1
  2593  001A4C  C117  F090         	movff	_async_config_baud_rate_gen$3860+2,___fldiv@b+2
  2594  001A50  C118  F091         	movff	_async_config_baud_rate_gen$3860+3,___fldiv@b+3
  2595  001A54  ECB1  F00E         	call	___fldiv	;wreg free
  2596  001A58  C08E  F100         	movff	?___fldiv,___fladd@b
  2597  001A5C  C08F  F101         	movff	?___fldiv+1,___fladd@b+1
  2598  001A60  C090  F102         	movff	?___fldiv+2,___fladd@b+2
  2599  001A64  C091  F103         	movff	?___fldiv+3,___fladd@b+3
  2600  001A68  0E00               	movlw	0
  2601  001A6A  0101               	movlb	1	; () banked
  2602  001A6C  6F04               	movwf	___fladd@a& (0+255),b
  2603  001A6E  0E00               	movlw	0
  2604  001A70  6F05               	movwf	(___fladd@a+1)& (0+255),b
  2605  001A72  0E80               	movlw	128
  2606  001A74  6F06               	movwf	(___fladd@a+2)& (0+255),b
  2607  001A76  0EBF               	movlw	191
  2608  001A78  6F07               	movwf	(___fladd@a+3)& (0+255),b
  2609  001A7A  EC70  F008         	call	___fladd	;wreg free
  2610  001A7E  C100  F111         	movff	?___fladd,async_config_baud_rate_gen@Baudrate_temp
  2611  001A82  C101  F112         	movff	?___fladd+1,async_config_baud_rate_gen@Baudrate_temp+1
  2612  001A86  C102  F113         	movff	?___fladd+2,async_config_baud_rate_gen@Baudrate_temp+2
  2613  001A8A  C103  F114         	movff	?___fladd+3,async_config_baud_rate_gen@Baudrate_temp+3
  2614                           
  2615                           ;MCAL/EUSART/mcal_EUSART.c: 582:                 break;
  2616  001A8E  EF8D  F00E         	goto	l7371
  2617  001A92                     l458:
  2618                           
  2619                           ; BSR set to: 1
  2620                           ;MCAL/EUSART/mcal_EUSART.c: 584:                 TXSTAbits.BRGH = 1 ;
  2621  001A92  84AC               	bsf	172,2,c	;volatile
  2622                           
  2623                           ;MCAL/EUSART/mcal_EUSART.c: 585:                 BAUDCONbits.BRG16 = 0 ;
  2624  001A94  96B8               	bcf	184,3,c	;volatile
  2625  001A96                     
  2626                           ; BSR set to: 1
  2627                           ;MCAL/EUSART/mcal_EUSART.c: 586:                 Baudrate_temp= ((8000000/((float32)_eus
      +                          art_obj->uart_baud_rate_value))/16)-1;
  2628  001A96  C10C  FFD9         	movff	async_config_baud_rate_gen@_eusart_obj,fsr2l
  2629  001A9A  C10D  FFDA         	movff	async_config_baud_rate_gen@_eusart_obj+1,fsr2h
  2630  001A9E  CFDE F10E          	movff	postinc2,??_async_config_baud_rate_gen
  2631  001AA2  CFDD F10F          	movff	postdec2,??_async_config_baud_rate_gen+1
  2632  001AA6  C10E  F080         	movff	??_async_config_baud_rate_gen,___xxtofl@val
  2633  001AAA  C10F  F081         	movff	??_async_config_baud_rate_gen+1,___xxtofl@val+1
  2634  001AAE  0100               	movlb	0	; () banked
  2635  001AB0  6B82               	clrf	(___xxtofl@val+2)& (0+255),b
  2636  001AB2  6B83               	clrf	(___xxtofl@val+3)& (0+255),b
  2637  001AB4  0E00               	movlw	0
  2638  001AB6  EC7D  F013         	call	___xxtofl
  2639  001ABA  C080  F092         	movff	?___xxtofl,___fldiv@a
  2640  001ABE  C081  F093         	movff	?___xxtofl+1,___fldiv@a+1
  2641  001AC2  C082  F094         	movff	?___xxtofl+2,___fldiv@a+2
  2642  001AC6  C083  F095         	movff	?___xxtofl+3,___fldiv@a+3
  2643  001ACA  0E00               	movlw	0
  2644  001ACC  0100               	movlb	0	; () banked
  2645  001ACE  6F8E               	movwf	___fldiv@b& (0+255),b
  2646  001AD0  0E24               	movlw	36
  2647  001AD2  6F8F               	movwf	(___fldiv@b+1)& (0+255),b
  2648  001AD4  0EF4               	movlw	244
  2649  001AD6  6F90               	movwf	(___fldiv@b+2)& (0+255),b
  2650  001AD8  0E4A               	movlw	74
  2651  001ADA  6F91               	movwf	(___fldiv@b+3)& (0+255),b
  2652  001ADC  ECB1  F00E         	call	___fldiv	;wreg free
  2653  001AE0  C08E  F115         	movff	?___fldiv,_async_config_baud_rate_gen$3860
  2654  001AE4  C08F  F116         	movff	?___fldiv+1,_async_config_baud_rate_gen$3860+1
  2655  001AE8  C090  F117         	movff	?___fldiv+2,_async_config_baud_rate_gen$3860+2
  2656  001AEC  C091  F118         	movff	?___fldiv+3,_async_config_baud_rate_gen$3860+3
  2657  001AF0                     
  2658                           ;MCAL/EUSART/mcal_EUSART.c: 586:                 Baudrate_temp= ((8000000/((float32)_eus
      +                          art_obj->uart_baud_rate_value))/16)-1;
  2659  001AF0  0E00               	movlw	0
  2660  001AF2  0100               	movlb	0	; () banked
  2661  001AF4  6F92               	movwf	___fldiv@a& (0+255),b
  2662  001AF6  0E00               	movlw	0
  2663  001AF8  6F93               	movwf	(___fldiv@a+1)& (0+255),b
  2664  001AFA  0E80               	movlw	128
  2665  001AFC  6F94               	movwf	(___fldiv@a+2)& (0+255),b
  2666  001AFE  0E41               	movlw	65
  2667  001B00  6F95               	movwf	(___fldiv@a+3)& (0+255),b
  2668  001B02  C115  F08E         	movff	_async_config_baud_rate_gen$3860,___fldiv@b
  2669  001B06  C116  F08F         	movff	_async_config_baud_rate_gen$3860+1,___fldiv@b+1
  2670  001B0A  C117  F090         	movff	_async_config_baud_rate_gen$3860+2,___fldiv@b+2
  2671  001B0E  C118  F091         	movff	_async_config_baud_rate_gen$3860+3,___fldiv@b+3
  2672  001B12  ECB1  F00E         	call	___fldiv	;wreg free
  2673  001B16  C08E  F100         	movff	?___fldiv,___fladd@b
  2674  001B1A  C08F  F101         	movff	?___fldiv+1,___fladd@b+1
  2675  001B1E  C090  F102         	movff	?___fldiv+2,___fladd@b+2
  2676  001B22  C091  F103         	movff	?___fldiv+3,___fladd@b+3
  2677  001B26  0E00               	movlw	0
  2678  001B28  0101               	movlb	1	; () banked
  2679  001B2A  6F04               	movwf	___fladd@a& (0+255),b
  2680  001B2C  0E00               	movlw	0
  2681  001B2E  6F05               	movwf	(___fladd@a+1)& (0+255),b
  2682  001B30  0E80               	movlw	128
  2683  001B32  6F06               	movwf	(___fladd@a+2)& (0+255),b
  2684  001B34  0EBF               	movlw	191
  2685  001B36  6F07               	movwf	(___fladd@a+3)& (0+255),b
  2686  001B38  EC70  F008         	call	___fladd	;wreg free
  2687  001B3C  C100  F111         	movff	?___fladd,async_config_baud_rate_gen@Baudrate_temp
  2688  001B40  C101  F112         	movff	?___fladd+1,async_config_baud_rate_gen@Baudrate_temp+1
  2689  001B44  C102  F113         	movff	?___fladd+2,async_config_baud_rate_gen@Baudrate_temp+2
  2690  001B48  C103  F114         	movff	?___fladd+3,async_config_baud_rate_gen@Baudrate_temp+3
  2691                           
  2692                           ;MCAL/EUSART/mcal_EUSART.c: 587:                 break ;
  2693  001B4C  EF8D  F00E         	goto	l7371
  2694  001B50                     l459:
  2695                           
  2696                           ; BSR set to: 1
  2697                           ;MCAL/EUSART/mcal_EUSART.c: 589:                 TXSTAbits.BRGH = 0 ;
  2698  001B50  94AC               	bcf	172,2,c	;volatile
  2699                           
  2700                           ;MCAL/EUSART/mcal_EUSART.c: 590:                 BAUDCONbits.BRG16 = 1 ;
  2701  001B52  86B8               	bsf	184,3,c	;volatile
  2702  001B54                     
  2703                           ; BSR set to: 1
  2704                           ;MCAL/EUSART/mcal_EUSART.c: 591:                 Baudrate_temp= ((8000000/((float32)_eus
      +                          art_obj->uart_baud_rate_value))/16)-1;
  2705  001B54  C10C  FFD9         	movff	async_config_baud_rate_gen@_eusart_obj,fsr2l
  2706  001B58  C10D  FFDA         	movff	async_config_baud_rate_gen@_eusart_obj+1,fsr2h
  2707  001B5C  CFDE F10E          	movff	postinc2,??_async_config_baud_rate_gen
  2708  001B60  CFDD F10F          	movff	postdec2,??_async_config_baud_rate_gen+1
  2709  001B64  C10E  F080         	movff	??_async_config_baud_rate_gen,___xxtofl@val
  2710  001B68  C10F  F081         	movff	??_async_config_baud_rate_gen+1,___xxtofl@val+1
  2711  001B6C  0100               	movlb	0	; () banked
  2712  001B6E  6B82               	clrf	(___xxtofl@val+2)& (0+255),b
  2713  001B70  6B83               	clrf	(___xxtofl@val+3)& (0+255),b
  2714  001B72  0E00               	movlw	0
  2715  001B74  EC7D  F013         	call	___xxtofl
  2716  001B78  C080  F092         	movff	?___xxtofl,___fldiv@a
  2717  001B7C  C081  F093         	movff	?___xxtofl+1,___fldiv@a+1
  2718  001B80  C082  F094         	movff	?___xxtofl+2,___fldiv@a+2
  2719  001B84  C083  F095         	movff	?___xxtofl+3,___fldiv@a+3
  2720  001B88  0E00               	movlw	0
  2721  001B8A  0100               	movlb	0	; () banked
  2722  001B8C  6F8E               	movwf	___fldiv@b& (0+255),b
  2723  001B8E  0E24               	movlw	36
  2724  001B90  6F8F               	movwf	(___fldiv@b+1)& (0+255),b
  2725  001B92  0EF4               	movlw	244
  2726  001B94  6F90               	movwf	(___fldiv@b+2)& (0+255),b
  2727  001B96  0E4A               	movlw	74
  2728  001B98  6F91               	movwf	(___fldiv@b+3)& (0+255),b
  2729  001B9A  ECB1  F00E         	call	___fldiv	;wreg free
  2730  001B9E  C08E  F115         	movff	?___fldiv,_async_config_baud_rate_gen$3860
  2731  001BA2  C08F  F116         	movff	?___fldiv+1,_async_config_baud_rate_gen$3860+1
  2732  001BA6  C090  F117         	movff	?___fldiv+2,_async_config_baud_rate_gen$3860+2
  2733  001BAA  C091  F118         	movff	?___fldiv+3,_async_config_baud_rate_gen$3860+3
  2734  001BAE                     
  2735                           ;MCAL/EUSART/mcal_EUSART.c: 591:                 Baudrate_temp= ((8000000/((float32)_eus
      +                          art_obj->uart_baud_rate_value))/16)-1;
  2736  001BAE  0E00               	movlw	0
  2737  001BB0  0100               	movlb	0	; () banked
  2738  001BB2  6F92               	movwf	___fldiv@a& (0+255),b
  2739  001BB4  0E00               	movlw	0
  2740  001BB6  6F93               	movwf	(___fldiv@a+1)& (0+255),b
  2741  001BB8  0E80               	movlw	128
  2742  001BBA  6F94               	movwf	(___fldiv@a+2)& (0+255),b
  2743  001BBC  0E41               	movlw	65
  2744  001BBE  6F95               	movwf	(___fldiv@a+3)& (0+255),b
  2745  001BC0  C115  F08E         	movff	_async_config_baud_rate_gen$3860,___fldiv@b
  2746  001BC4  C116  F08F         	movff	_async_config_baud_rate_gen$3860+1,___fldiv@b+1
  2747  001BC8  C117  F090         	movff	_async_config_baud_rate_gen$3860+2,___fldiv@b+2
  2748  001BCC  C118  F091         	movff	_async_config_baud_rate_gen$3860+3,___fldiv@b+3
  2749  001BD0  ECB1  F00E         	call	___fldiv	;wreg free
  2750  001BD4  C08E  F100         	movff	?___fldiv,___fladd@b
  2751  001BD8  C08F  F101         	movff	?___fldiv+1,___fladd@b+1
  2752  001BDC  C090  F102         	movff	?___fldiv+2,___fladd@b+2
  2753  001BE0  C091  F103         	movff	?___fldiv+3,___fladd@b+3
  2754  001BE4  0E00               	movlw	0
  2755  001BE6  0101               	movlb	1	; () banked
  2756  001BE8  6F04               	movwf	___fladd@a& (0+255),b
  2757  001BEA  0E00               	movlw	0
  2758  001BEC  6F05               	movwf	(___fladd@a+1)& (0+255),b
  2759  001BEE  0E80               	movlw	128
  2760  001BF0  6F06               	movwf	(___fladd@a+2)& (0+255),b
  2761  001BF2  0EBF               	movlw	191
  2762  001BF4  6F07               	movwf	(___fladd@a+3)& (0+255),b
  2763  001BF6  EC70  F008         	call	___fladd	;wreg free
  2764  001BFA  C100  F111         	movff	?___fladd,async_config_baud_rate_gen@Baudrate_temp
  2765  001BFE  C101  F112         	movff	?___fladd+1,async_config_baud_rate_gen@Baudrate_temp+1
  2766  001C02  C102  F113         	movff	?___fladd+2,async_config_baud_rate_gen@Baudrate_temp+2
  2767  001C06  C103  F114         	movff	?___fladd+3,async_config_baud_rate_gen@Baudrate_temp+3
  2768                           
  2769                           ;MCAL/EUSART/mcal_EUSART.c: 592:                 break ;
  2770  001C0A  EF8D  F00E         	goto	l7371
  2771  001C0E                     l460:
  2772                           
  2773                           ; BSR set to: 1
  2774                           ;MCAL/EUSART/mcal_EUSART.c: 594:                 TXSTAbits.BRGH = 1 ;
  2775  001C0E  84AC               	bsf	172,2,c	;volatile
  2776                           
  2777                           ;MCAL/EUSART/mcal_EUSART.c: 595:                 BAUDCONbits.BRG16 = 1 ;
  2778  001C10  86B8               	bsf	184,3,c	;volatile
  2779  001C12                     
  2780                           ; BSR set to: 1
  2781                           ;MCAL/EUSART/mcal_EUSART.c: 596:                 Baudrate_temp= ((8000000/((float32)_eus
      +                          art_obj->uart_baud_rate_value))/4)-1;
  2782  001C12  C10C  FFD9         	movff	async_config_baud_rate_gen@_eusart_obj,fsr2l
  2783  001C16  C10D  FFDA         	movff	async_config_baud_rate_gen@_eusart_obj+1,fsr2h
  2784  001C1A  CFDE F10E          	movff	postinc2,??_async_config_baud_rate_gen
  2785  001C1E  CFDD F10F          	movff	postdec2,??_async_config_baud_rate_gen+1
  2786  001C22  C10E  F080         	movff	??_async_config_baud_rate_gen,___xxtofl@val
  2787  001C26  C10F  F081         	movff	??_async_config_baud_rate_gen+1,___xxtofl@val+1
  2788  001C2A  0100               	movlb	0	; () banked
  2789  001C2C  6B82               	clrf	(___xxtofl@val+2)& (0+255),b
  2790  001C2E  6B83               	clrf	(___xxtofl@val+3)& (0+255),b
  2791  001C30  0E00               	movlw	0
  2792  001C32  EC7D  F013         	call	___xxtofl
  2793  001C36  C080  F092         	movff	?___xxtofl,___fldiv@a
  2794  001C3A  C081  F093         	movff	?___xxtofl+1,___fldiv@a+1
  2795  001C3E  C082  F094         	movff	?___xxtofl+2,___fldiv@a+2
  2796  001C42  C083  F095         	movff	?___xxtofl+3,___fldiv@a+3
  2797  001C46  0E00               	movlw	0
  2798  001C48  0100               	movlb	0	; () banked
  2799  001C4A  6F8E               	movwf	___fldiv@b& (0+255),b
  2800  001C4C  0E24               	movlw	36
  2801  001C4E  6F8F               	movwf	(___fldiv@b+1)& (0+255),b
  2802  001C50  0EF4               	movlw	244
  2803  001C52  6F90               	movwf	(___fldiv@b+2)& (0+255),b
  2804  001C54  0E4A               	movlw	74
  2805  001C56  6F91               	movwf	(___fldiv@b+3)& (0+255),b
  2806  001C58  ECB1  F00E         	call	___fldiv	;wreg free
  2807  001C5C  C08E  F115         	movff	?___fldiv,_async_config_baud_rate_gen$3860
  2808  001C60  C08F  F116         	movff	?___fldiv+1,_async_config_baud_rate_gen$3860+1
  2809  001C64  C090  F117         	movff	?___fldiv+2,_async_config_baud_rate_gen$3860+2
  2810  001C68  C091  F118         	movff	?___fldiv+3,_async_config_baud_rate_gen$3860+3
  2811  001C6C                     
  2812                           ;MCAL/EUSART/mcal_EUSART.c: 596:                 Baudrate_temp= ((8000000/((float32)_eus
      +                          art_obj->uart_baud_rate_value))/4)-1;
  2813  001C6C  0E00               	movlw	0
  2814  001C6E  0100               	movlb	0	; () banked
  2815  001C70  6F92               	movwf	___fldiv@a& (0+255),b
  2816  001C72  0E00               	movlw	0
  2817  001C74  6F93               	movwf	(___fldiv@a+1)& (0+255),b
  2818  001C76  0E80               	movlw	128
  2819  001C78  6F94               	movwf	(___fldiv@a+2)& (0+255),b
  2820  001C7A  0E40               	movlw	64
  2821  001C7C  6F95               	movwf	(___fldiv@a+3)& (0+255),b
  2822  001C7E  C115  F08E         	movff	_async_config_baud_rate_gen$3860,___fldiv@b
  2823  001C82  C116  F08F         	movff	_async_config_baud_rate_gen$3860+1,___fldiv@b+1
  2824  001C86  C117  F090         	movff	_async_config_baud_rate_gen$3860+2,___fldiv@b+2
  2825  001C8A  C118  F091         	movff	_async_config_baud_rate_gen$3860+3,___fldiv@b+3
  2826  001C8E  ECB1  F00E         	call	___fldiv	;wreg free
  2827  001C92  C08E  F100         	movff	?___fldiv,___fladd@b
  2828  001C96  C08F  F101         	movff	?___fldiv+1,___fladd@b+1
  2829  001C9A  C090  F102         	movff	?___fldiv+2,___fladd@b+2
  2830  001C9E  C091  F103         	movff	?___fldiv+3,___fladd@b+3
  2831  001CA2  0E00               	movlw	0
  2832  001CA4  0101               	movlb	1	; () banked
  2833  001CA6  6F04               	movwf	___fladd@a& (0+255),b
  2834  001CA8  0E00               	movlw	0
  2835  001CAA  6F05               	movwf	(___fladd@a+1)& (0+255),b
  2836  001CAC  0E80               	movlw	128
  2837  001CAE  6F06               	movwf	(___fladd@a+2)& (0+255),b
  2838  001CB0  0EBF               	movlw	191
  2839  001CB2  6F07               	movwf	(___fladd@a+3)& (0+255),b
  2840  001CB4  EC70  F008         	call	___fladd	;wreg free
  2841  001CB8  C100  F111         	movff	?___fladd,async_config_baud_rate_gen@Baudrate_temp
  2842  001CBC  C101  F112         	movff	?___fladd+1,async_config_baud_rate_gen@Baudrate_temp+1
  2843  001CC0  C102  F113         	movff	?___fladd+2,async_config_baud_rate_gen@Baudrate_temp+2
  2844  001CC4  C103  F114         	movff	?___fladd+3,async_config_baud_rate_gen@Baudrate_temp+3
  2845                           
  2846                           ;MCAL/EUSART/mcal_EUSART.c: 597:                 break ;
  2847  001CC8  EF8D  F00E         	goto	l7371
  2848  001CCC                     l7365:
  2849                           
  2850                           ; BSR set to: 1
  2851                           ;MCAL/EUSART/mcal_EUSART.c: 599:                 ret_val = (Std_returnType) 0x00 ;
  2852  001CCC  0E00               	movlw	0
  2853  001CCE  6F10               	movwf	async_config_baud_rate_gen@ret_val& (0+255),b
  2854                           
  2855                           ;MCAL/EUSART/mcal_EUSART.c: 600:                 break ;
  2856  001CD0  EF8D  F00E         	goto	l7371
  2857  001CD4                     l7369:
  2858                           
  2859                           ; BSR set to: 1
  2860  001CD4  EE20 F00B          	lfsr	2,11
  2861  001CD8  510C               	movf	async_config_baud_rate_gen@_eusart_obj& (0+255),w,b
  2862  001CDA  26D9               	addwf	fsr2l,f,c
  2863  001CDC  510D               	movf	(async_config_baud_rate_gen@_eusart_obj+1)& (0+255),w,b
  2864  001CDE  22DA               	addwfc	fsr2h,f,c
  2865  001CE0  50DF               	movf	indf2,w,c
  2866  001CE2  6F0E               	movwf	??_async_config_baud_rate_gen& (0+255),b
  2867  001CE4  6B0F               	clrf	(??_async_config_baud_rate_gen+1)& (0+255),b
  2868                           
  2869                           ; Switch on 2 bytes has been partitioned into a top level switch of size 1, and 1 sub-sw
      +                          itches
  2870                           ; Switch size 1, requested type "simple"
  2871                           ; Number of cases is 1, Range of values is 0 to 0
  2872                           ; switch strategies available:
  2873                           ; Name         Instructions Cycles
  2874                           ; simple_byte            4     3 (average)
  2875                           ;	Chosen strategy is simple_byte
  2876  001CE6  510F               	movf	(??_async_config_baud_rate_gen+1)& (0+255),w,b
  2877  001CE8  0A00               	xorlw	0	; case 0
  2878  001CEA  B4D8               	btfsc	status,2,c
  2879  001CEC  EF7A  F00E         	goto	l8201
  2880  001CF0  EF66  F00E         	goto	l7365
  2881  001CF4                     l8201:
  2882                           
  2883                           ; BSR set to: 1
  2884                           ; Switch size 1, requested type "simple"
  2885                           ; Number of cases is 4, Range of values is 0 to 3
  2886                           ; switch strategies available:
  2887                           ; Name         Instructions Cycles
  2888                           ; simple_byte           13     7 (average)
  2889                           ;	Chosen strategy is simple_byte
  2890  001CF4  510E               	movf	??_async_config_baud_rate_gen& (0+255),w,b
  2891  001CF6  0A00               	xorlw	0	; case 0
  2892  001CF8  B4D8               	btfsc	status,2,c
  2893  001CFA  EFEA  F00C         	goto	l456
  2894  001CFE  0A01               	xorlw	1	; case 1
  2895  001D00  B4D8               	btfsc	status,2,c
  2896  001D02  EF49  F00D         	goto	l458
  2897  001D06  0A03               	xorlw	3	; case 2
  2898  001D08  B4D8               	btfsc	status,2,c
  2899  001D0A  EFA8  F00D         	goto	l459
  2900  001D0E  0A01               	xorlw	1	; case 3
  2901  001D10  B4D8               	btfsc	status,2,c
  2902  001D12  EF07  F00E         	goto	l460
  2903  001D16  EF66  F00E         	goto	l7365
  2904  001D1A                     l7371:
  2905                           
  2906                           ;MCAL/EUSART/mcal_EUSART.c: 604:         SPBRG=(uint8)((uint32)Baudrate_temp);
  2907  001D1A  C111  F080         	movff	async_config_baud_rate_gen@Baudrate_temp,___fltol@f1
  2908  001D1E  C112  F081         	movff	async_config_baud_rate_gen@Baudrate_temp+1,___fltol@f1+1
  2909  001D22  C113  F082         	movff	async_config_baud_rate_gen@Baudrate_temp+2,___fltol@f1+2
  2910  001D26  C114  F083         	movff	async_config_baud_rate_gen@Baudrate_temp+3,___fltol@f1+3
  2911  001D2A  EC4F  F017         	call	___fltol	;wreg free
  2912  001D2E  0100               	movlb	0	; () banked
  2913  001D30  5180               	movf	?___fltol& (0+255),w,b
  2914  001D32  6EAF               	movwf	175,c	;volatile
  2915                           
  2916                           ;MCAL/EUSART/mcal_EUSART.c: 605:         SPBRGH=(uint8)(((uint32)Baudrate_temp)>>8);
  2917  001D34  C111  F080         	movff	async_config_baud_rate_gen@Baudrate_temp,___fltol@f1
  2918  001D38  C112  F081         	movff	async_config_baud_rate_gen@Baudrate_temp+1,___fltol@f1+1
  2919  001D3C  C113  F082         	movff	async_config_baud_rate_gen@Baudrate_temp+2,___fltol@f1+2
  2920  001D40  C114  F083         	movff	async_config_baud_rate_gen@Baudrate_temp+3,___fltol@f1+3
  2921  001D44  EC4F  F017         	call	___fltol	;wreg free
  2922  001D48  0100               	movlb	0	; () banked
  2923  001D4A  C081  F080         	movff	?___fltol+1,?___fltol
  2924  001D4E  C082  F081         	movff	?___fltol+2,?___fltol+1
  2925  001D52  C083  F082         	movff	?___fltol+3,?___fltol+2
  2926  001D56  6B83               	clrf	(?___fltol+3)& (0+255),b
  2927  001D58  5180               	movf	?___fltol& (0+255),w,b
  2928  001D5A  6EB0               	movwf	176,c	;volatile
  2929  001D5C                     l7373:
  2930                           
  2931                           ;MCAL/EUSART/mcal_EUSART.c: 608:     return ret_val ;
  2932  001D5C  0101               	movlb	1	; () banked
  2933  001D5E  5110               	movf	async_config_baud_rate_gen@ret_val& (0+255),w,b
  2934  001D60                     
  2935                           ; BSR set to: 1
  2936  001D60  0012               	return		;funcret
  2937  001D62                     __end_of_async_config_baud_rate_gen:
  2938                           	callstack 0
  2939                           
  2940 ;; *************** function ___xxtofl *****************
  2941 ;; Defined at:
  2942 ;;		line 10 in file "C:\Program Files\Microchip\xc8\v2.30\pic\sources\c99\common\xxtofl.c"
  2943 ;; Parameters:    Size  Location     Type
  2944 ;;  sign            1    wreg     unsigned char 
  2945 ;;  val             4    0[BANK0 ] long 
  2946 ;; Auto vars:     Size  Location     Type
  2947 ;;  sign            1    8[BANK0 ] unsigned char 
  2948 ;;  arg             4   10[BANK0 ] unsigned long 
  2949 ;;  exp             1    9[BANK0 ] unsigned char 
  2950 ;; Return value:  Size  Location     Type
  2951 ;;                  4    0[BANK0 ] unsigned char 
  2952 ;; Registers used:
  2953 ;;		wreg, status,2, status,0
  2954 ;; Tracked objects:
  2955 ;;		On entry : 0/0
  2956 ;;		On exit  : 0/0
  2957 ;;		Unchanged: 0/0
  2958 ;; Data sizes:     COMRAM   BANK0   BANK1   BANK2   BANK3   BANK4   BANK5   BANK6   BANK7   BANK8   BANK9  BANK10  BANK1
      +1  BANK12  BANK13  BANK14  BANK15
  2959 ;;      Params:         0       4       0       0       0       0       0       0       0       0       0       0       
      +0       0       0       0       0
  2960 ;;      Locals:         0       6       0       0       0       0       0       0       0       0       0       0       
      +0       0       0       0       0
  2961 ;;      Temps:          0       4       0       0       0       0       0       0       0       0       0       0       
      +0       0       0       0       0
  2962 ;;      Totals:         0      14       0       0       0       0       0       0       0       0       0       0       
      +0       0       0       0       0
  2963 ;;Total ram usage:       14 bytes
  2964 ;; Hardware stack levels used:    1
  2965 ;; Hardware stack levels required when called:   10
  2966 ;; This function calls:
  2967 ;;		Nothing
  2968 ;; This function is called by:
  2969 ;;		_async_config_baud_rate_gen
  2970 ;;		_Servo_SetAngle
  2971 ;;		_I2C_Master_Mode_Clock_Configurations
  2972 ;; This function uses a non-reentrant model
  2973 ;;
  2974                           
  2975                           	psect	text7
  2976  0026FA                     __ptext7:
  2977                           	callstack 0
  2978  0026FA                     ___xxtofl:
  2979                           	callstack 17
  2980                           
  2981                           ; BSR set to: 1
  2982                           ;incstack = 0
  2983                           ;___xxtofl@sign stored from wreg
  2984  0026FA  0100               	movlb	0	; () banked
  2985  0026FC  6F88               	movwf	___xxtofl@sign& (0+255),b
  2986  0026FE  0100               	movlb	0	; () banked
  2987  002700  5188               	movf	___xxtofl@sign& (0+255),w,b
  2988  002702  B4D8               	btfsc	status,2,c
  2989  002704  EF86  F013         	goto	u7931
  2990  002708  EF88  F013         	goto	u7930
  2991  00270C                     u7931:
  2992  00270C  EFAA  F013         	goto	l1928
  2993  002710                     u7930:
  2994  002710                     
  2995                           ; BSR set to: 0
  2996  002710  BF83               	btfsc	(___xxtofl@val+3)& (0+255),7,b
  2997  002712  EF8F  F013         	goto	u7940
  2998  002716  EF8D  F013         	goto	u7941
  2999  00271A                     u7941:
  3000  00271A  EFAA  F013         	goto	l1928
  3001  00271E                     u7940:
  3002  00271E                     
  3003                           ; BSR set to: 0
  3004  00271E  C080  F084         	movff	___xxtofl@val,??___xxtofl
  3005  002722  C081  F085         	movff	___xxtofl@val+1,??___xxtofl+1
  3006  002726  C082  F086         	movff	___xxtofl@val+2,??___xxtofl+2
  3007  00272A  C083  F087         	movff	___xxtofl@val+3,??___xxtofl+3
  3008  00272E  1F84               	comf	??___xxtofl& (0+255),f,b
  3009  002730  1F85               	comf	(??___xxtofl+1)& (0+255),f,b
  3010  002732  1F86               	comf	(??___xxtofl+2)& (0+255),f,b
  3011  002734  1F87               	comf	(??___xxtofl+3)& (0+255),f,b
  3012  002736  2B84               	incf	??___xxtofl& (0+255),f,b
  3013  002738  0E00               	movlw	0
  3014  00273A  2385               	addwfc	(??___xxtofl+1)& (0+255),f,b
  3015  00273C  2386               	addwfc	(??___xxtofl+2)& (0+255),f,b
  3016  00273E  2387               	addwfc	(??___xxtofl+3)& (0+255),f,b
  3017  002740  C084  F08A         	movff	??___xxtofl,___xxtofl@arg
  3018  002744  C085  F08B         	movff	??___xxtofl+1,___xxtofl@arg+1
  3019  002748  C086  F08C         	movff	??___xxtofl+2,___xxtofl@arg+2
  3020  00274C  C087  F08D         	movff	??___xxtofl+3,___xxtofl@arg+3
  3021  002750  EFB2  F013         	goto	l7195
  3022  002754                     l1928:
  3023                           
  3024                           ; BSR set to: 0
  3025  002754  C080  F08A         	movff	___xxtofl@val,___xxtofl@arg
  3026  002758  C081  F08B         	movff	___xxtofl@val+1,___xxtofl@arg+1
  3027  00275C  C082  F08C         	movff	___xxtofl@val+2,___xxtofl@arg+2
  3028  002760  C083  F08D         	movff	___xxtofl@val+3,___xxtofl@arg+3
  3029  002764                     l7195:
  3030                           
  3031                           ; BSR set to: 0
  3032  002764  5180               	movf	___xxtofl@val& (0+255),w,b
  3033  002766  1181               	iorwf	(___xxtofl@val+1)& (0+255),w,b
  3034  002768  1182               	iorwf	(___xxtofl@val+2)& (0+255),w,b
  3035  00276A  1183               	iorwf	(___xxtofl@val+3)& (0+255),w,b
  3036  00276C  A4D8               	btfss	status,2,c
  3037  00276E  EFBB  F013         	goto	u7951
  3038  002772  EFBD  F013         	goto	u7950
  3039  002776                     u7951:
  3040  002776  EFC7  F013         	goto	l7201
  3041  00277A                     u7950:
  3042  00277A                     
  3043                           ; BSR set to: 0
  3044  00277A  0E00               	movlw	0
  3045  00277C  6F80               	movwf	?___xxtofl& (0+255),b
  3046  00277E  0E00               	movlw	0
  3047  002780  6F81               	movwf	(?___xxtofl+1)& (0+255),b
  3048  002782  0E00               	movlw	0
  3049  002784  6F82               	movwf	(?___xxtofl+2)& (0+255),b
  3050  002786  0E00               	movlw	0
  3051  002788  6F83               	movwf	(?___xxtofl+3)& (0+255),b
  3052  00278A  EF58  F014         	goto	l1931
  3053  00278E                     l7201:
  3054                           
  3055                           ; BSR set to: 0
  3056  00278E  0E96               	movlw	150
  3057  002790  6F89               	movwf	___xxtofl@exp& (0+255),b
  3058  002792  EFD1  F013         	goto	l7205
  3059  002796                     l7203:
  3060                           
  3061                           ; BSR set to: 0
  3062  002796  2B89               	incf	___xxtofl@exp& (0+255),f,b
  3063  002798  90D8               	bcf	status,0,c
  3064  00279A  338D               	rrcf	(___xxtofl@arg+3)& (0+255),f,b
  3065  00279C  338C               	rrcf	(___xxtofl@arg+2)& (0+255),f,b
  3066  00279E  338B               	rrcf	(___xxtofl@arg+1)& (0+255),f,b
  3067  0027A0  338A               	rrcf	___xxtofl@arg& (0+255),f,b
  3068  0027A2                     l7205:
  3069                           
  3070                           ; BSR set to: 0
  3071  0027A2  0E00               	movlw	0
  3072  0027A4  158A               	andwf	___xxtofl@arg& (0+255),w,b
  3073  0027A6  6F84               	movwf	??___xxtofl& (0+255),b
  3074  0027A8  0E00               	movlw	0
  3075  0027AA  158B               	andwf	(___xxtofl@arg+1)& (0+255),w,b
  3076  0027AC  6F85               	movwf	(??___xxtofl+1)& (0+255),b
  3077  0027AE  0E00               	movlw	0
  3078  0027B0  158C               	andwf	(___xxtofl@arg+2)& (0+255),w,b
  3079  0027B2  6F86               	movwf	(??___xxtofl+2)& (0+255),b
  3080  0027B4  0EFE               	movlw	254
  3081  0027B6  158D               	andwf	(___xxtofl@arg+3)& (0+255),w,b
  3082  0027B8  6F87               	movwf	(??___xxtofl+3)& (0+255),b
  3083  0027BA  5184               	movf	??___xxtofl& (0+255),w,b
  3084  0027BC  1185               	iorwf	(??___xxtofl+1)& (0+255),w,b
  3085  0027BE  1186               	iorwf	(??___xxtofl+2)& (0+255),w,b
  3086  0027C0  1187               	iorwf	(??___xxtofl+3)& (0+255),w,b
  3087  0027C2  A4D8               	btfss	status,2,c
  3088  0027C4  EFE6  F013         	goto	u7961
  3089  0027C8  EFE8  F013         	goto	u7960
  3090  0027CC                     u7961:
  3091  0027CC  EFCB  F013         	goto	l7203
  3092  0027D0                     u7960:
  3093  0027D0  EFF6  F013         	goto	l1935
  3094  0027D4                     l7207:
  3095                           
  3096                           ; BSR set to: 0
  3097  0027D4  2B89               	incf	___xxtofl@exp& (0+255),f,b
  3098  0027D6                     
  3099                           ; BSR set to: 0
  3100  0027D6  0E01               	movlw	1
  3101  0027D8  278A               	addwf	___xxtofl@arg& (0+255),f,b
  3102  0027DA  0E00               	movlw	0
  3103  0027DC  238B               	addwfc	(___xxtofl@arg+1)& (0+255),f,b
  3104  0027DE  238C               	addwfc	(___xxtofl@arg+2)& (0+255),f,b
  3105  0027E0  238D               	addwfc	(___xxtofl@arg+3)& (0+255),f,b
  3106  0027E2                     
  3107                           ; BSR set to: 0
  3108  0027E2  90D8               	bcf	status,0,c
  3109  0027E4  338D               	rrcf	(___xxtofl@arg+3)& (0+255),f,b
  3110  0027E6  338C               	rrcf	(___xxtofl@arg+2)& (0+255),f,b
  3111  0027E8  338B               	rrcf	(___xxtofl@arg+1)& (0+255),f,b
  3112  0027EA  338A               	rrcf	___xxtofl@arg& (0+255),f,b
  3113  0027EC                     l1935:
  3114                           
  3115                           ; BSR set to: 0
  3116  0027EC  0E00               	movlw	0
  3117  0027EE  158A               	andwf	___xxtofl@arg& (0+255),w,b
  3118  0027F0  6F84               	movwf	??___xxtofl& (0+255),b
  3119  0027F2  0E00               	movlw	0
  3120  0027F4  158B               	andwf	(___xxtofl@arg+1)& (0+255),w,b
  3121  0027F6  6F85               	movwf	(??___xxtofl+1)& (0+255),b
  3122  0027F8  0E00               	movlw	0
  3123  0027FA  158C               	andwf	(___xxtofl@arg+2)& (0+255),w,b
  3124  0027FC  6F86               	movwf	(??___xxtofl+2)& (0+255),b
  3125  0027FE  0EFF               	movlw	255
  3126  002800  158D               	andwf	(___xxtofl@arg+3)& (0+255),w,b
  3127  002802  6F87               	movwf	(??___xxtofl+3)& (0+255),b
  3128  002804  5184               	movf	??___xxtofl& (0+255),w,b
  3129  002806  1185               	iorwf	(??___xxtofl+1)& (0+255),w,b
  3130  002808  1186               	iorwf	(??___xxtofl+2)& (0+255),w,b
  3131  00280A  1187               	iorwf	(??___xxtofl+3)& (0+255),w,b
  3132  00280C  A4D8               	btfss	status,2,c
  3133  00280E  EF0B  F014         	goto	u7971
  3134  002812  EF0D  F014         	goto	u7970
  3135  002816                     u7971:
  3136  002816  EFEA  F013         	goto	l7207
  3137  00281A                     u7970:
  3138  00281A  EF15  F014         	goto	l7215
  3139  00281E                     l7213:
  3140                           
  3141                           ; BSR set to: 0
  3142  00281E  0789               	decf	___xxtofl@exp& (0+255),f,b
  3143  002820  90D8               	bcf	status,0,c
  3144  002822  378A               	rlcf	___xxtofl@arg& (0+255),f,b
  3145  002824  378B               	rlcf	(___xxtofl@arg+1)& (0+255),f,b
  3146  002826  378C               	rlcf	(___xxtofl@arg+2)& (0+255),f,b
  3147  002828  378D               	rlcf	(___xxtofl@arg+3)& (0+255),f,b
  3148  00282A                     l7215:
  3149                           
  3150                           ; BSR set to: 0
  3151  00282A  BF8C               	btfsc	(___xxtofl@arg+2)& (0+255),7,b
  3152  00282C  EF1A  F014         	goto	u7981
  3153  002830  EF1C  F014         	goto	u7980
  3154  002834                     u7981:
  3155  002834  EF24  F014         	goto	l1942
  3156  002838                     u7980:
  3157  002838                     
  3158                           ; BSR set to: 0
  3159  002838  0E02               	movlw	2
  3160  00283A  6189               	cpfslt	___xxtofl@exp& (0+255),b
  3161  00283C  EF22  F014         	goto	u7991
  3162  002840  EF24  F014         	goto	u7990
  3163  002844                     u7991:
  3164  002844  EF0F  F014         	goto	l7213
  3165  002848                     u7990:
  3166  002848                     l1942:
  3167                           
  3168                           ; BSR set to: 0
  3169  002848  B189               	btfsc	___xxtofl@exp& (0+255),0,b
  3170  00284A  EF29  F014         	goto	u8001
  3171  00284E  EF2B  F014         	goto	u8000
  3172  002852                     u8001:
  3173  002852  EF2C  F014         	goto	l7221
  3174  002856                     u8000:
  3175  002856                     
  3176                           ; BSR set to: 0
  3177  002856  9F8C               	bcf	(___xxtofl@arg+2)& (0+255),7,b
  3178  002858                     l7221:
  3179                           
  3180                           ; BSR set to: 0
  3181  002858  90D8               	bcf	status,0,c
  3182  00285A  3389               	rrcf	___xxtofl@exp& (0+255),f,b
  3183  00285C                     
  3184                           ; BSR set to: 0
  3185  00285C  C089  F084         	movff	___xxtofl@exp,??___xxtofl
  3186  002860  6B85               	clrf	(??___xxtofl+1)& (0+255),b
  3187  002862  6B86               	clrf	(??___xxtofl+2)& (0+255),b
  3188  002864  6B87               	clrf	(??___xxtofl+3)& (0+255),b
  3189  002866  C084  F087         	movff	??___xxtofl,??___xxtofl+3
  3190  00286A  6B86               	clrf	(??___xxtofl+2)& (0+255),b
  3191  00286C  6B85               	clrf	(??___xxtofl+1)& (0+255),b
  3192  00286E  6B84               	clrf	??___xxtofl& (0+255),b
  3193  002870  5184               	movf	??___xxtofl& (0+255),w,b
  3194  002872  138A               	iorwf	___xxtofl@arg& (0+255),f,b
  3195  002874  5185               	movf	(??___xxtofl+1)& (0+255),w,b
  3196  002876  138B               	iorwf	(___xxtofl@arg+1)& (0+255),f,b
  3197  002878  5186               	movf	(??___xxtofl+2)& (0+255),w,b
  3198  00287A  138C               	iorwf	(___xxtofl@arg+2)& (0+255),f,b
  3199  00287C  5187               	movf	(??___xxtofl+3)& (0+255),w,b
  3200  00287E  138D               	iorwf	(___xxtofl@arg+3)& (0+255),f,b
  3201  002880                     
  3202                           ; BSR set to: 0
  3203  002880  5188               	movf	___xxtofl@sign& (0+255),w,b
  3204  002882  B4D8               	btfsc	status,2,c
  3205  002884  EF46  F014         	goto	u8011
  3206  002888  EF48  F014         	goto	u8010
  3207  00288C                     u8011:
  3208  00288C  EF50  F014         	goto	l7231
  3209  002890                     u8010:
  3210  002890                     
  3211                           ; BSR set to: 0
  3212  002890  BF83               	btfsc	(___xxtofl@val+3)& (0+255),7,b
  3213  002892  EF4F  F014         	goto	u8020
  3214  002896  EF4D  F014         	goto	u8021
  3215  00289A                     u8021:
  3216  00289A  EF50  F014         	goto	l7231
  3217  00289E                     u8020:
  3218  00289E                     
  3219                           ; BSR set to: 0
  3220  00289E  8F8D               	bsf	(___xxtofl@arg+3)& (0+255),7,b
  3221  0028A0                     l7231:
  3222                           
  3223                           ; BSR set to: 0
  3224  0028A0  C08A  F080         	movff	___xxtofl@arg,?___xxtofl
  3225  0028A4  C08B  F081         	movff	___xxtofl@arg+1,?___xxtofl+1
  3226  0028A8  C08C  F082         	movff	___xxtofl@arg+2,?___xxtofl+2
  3227  0028AC  C08D  F083         	movff	___xxtofl@arg+3,?___xxtofl+3
  3228  0028B0                     l1931:
  3229                           
  3230                           ; BSR set to: 0
  3231  0028B0  0012               	return		;funcret
  3232  0028B2                     __end_of___xxtofl:
  3233                           	callstack 0
  3234                           
  3235 ;; *************** function ___fltol *****************
  3236 ;; Defined at:
  3237 ;;		line 43 in file "C:\Program Files\Microchip\xc8\v2.30\pic\sources\c99\common\fltol.c"
  3238 ;; Parameters:    Size  Location     Type
  3239 ;;  f1              4    0[BANK0 ] unsigned char 
  3240 ;; Auto vars:     Size  Location     Type
  3241 ;;  exp1            1   42[COMRAM] unsigned char 
  3242 ;;  sign1           1   41[COMRAM] unsigned char 
  3243 ;; Return value:  Size  Location     Type
  3244 ;;                  4    0[BANK0 ] long 
  3245 ;; Registers used:
  3246 ;;		wreg, status,2, status,0
  3247 ;; Tracked objects:
  3248 ;;		On entry : 0/0
  3249 ;;		On exit  : 0/0
  3250 ;;		Unchanged: 0/0
  3251 ;; Data sizes:     COMRAM   BANK0   BANK1   BANK2   BANK3   BANK4   BANK5   BANK6   BANK7   BANK8   BANK9  BANK10  BANK1
      +1  BANK12  BANK13  BANK14  BANK15
  3252 ;;      Params:         0       4       0       0       0       0       0       0       0       0       0       0       
      +0       0       0       0       0
  3253 ;;      Locals:         2       0       0       0       0       0       0       0       0       0       0       0       
      +0       0       0       0       0
  3254 ;;      Temps:          0       4       0       0       0       0       0       0       0       0       0       0       
      +0       0       0       0       0
  3255 ;;      Totals:         2       8       0       0       0       0       0       0       0       0       0       0       
      +0       0       0       0       0
  3256 ;;Total ram usage:       10 bytes
  3257 ;; Hardware stack levels used:    1
  3258 ;; Hardware stack levels required when called:   10
  3259 ;; This function calls:
  3260 ;;		Nothing
  3261 ;; This function is called by:
  3262 ;;		_async_config_baud_rate_gen
  3263 ;;		_Servo_SetAngle
  3264 ;;		_I2C_Master_Mode_Clock_Configurations
  3265 ;; This function uses a non-reentrant model
  3266 ;;
  3267                           
  3268                           	psect	text8
  3269  002E9E                     __ptext8:
  3270                           	callstack 0
  3271  002E9E                     ___fltol:
  3272                           	callstack 17
  3273  002E9E  0100               	movlb	0	; () banked
  3274  002EA0  3582               	rlcf	(___fltol@f1+2)& (0+255),w,b
  3275  002EA2  3583               	rlcf	(___fltol@f1+3)& (0+255),w,b
  3276  002EA4  6E2B               	movwf	___fltol@exp1^0,c
  3277  002EA6  502B               	movf	___fltol@exp1^0,w,c
  3278  002EA8  A4D8               	btfss	status,2,c
  3279  002EAA  EF59  F017         	goto	u7861
  3280  002EAE  EF5B  F017         	goto	u7860
  3281  002EB2                     u7861:
  3282  002EB2  EF65  F017         	goto	l7151
  3283  002EB6                     u7860:
  3284  002EB6                     l7147:
  3285                           
  3286                           ; BSR set to: 0
  3287  002EB6  0E00               	movlw	0
  3288  002EB8  6F80               	movwf	?___fltol& (0+255),b
  3289  002EBA  0E00               	movlw	0
  3290  002EBC  6F81               	movwf	(?___fltol+1)& (0+255),b
  3291  002EBE  0E00               	movlw	0
  3292  002EC0  6F82               	movwf	(?___fltol+2)& (0+255),b
  3293  002EC2  0E00               	movlw	0
  3294  002EC4  6F83               	movwf	(?___fltol+3)& (0+255),b
  3295  002EC6  EFD2  F017         	goto	l1570
  3296  002ECA                     l7151:
  3297                           
  3298                           ; BSR set to: 0
  3299  002ECA  C080  F084         	movff	___fltol@f1,??___fltol
  3300  002ECE  C081  F085         	movff	___fltol@f1+1,??___fltol+1
  3301  002ED2  C082  F086         	movff	___fltol@f1+2,??___fltol+2
  3302  002ED6  C083  F087         	movff	___fltol@f1+3,??___fltol+3
  3303  002EDA  0E20               	movlw	32
  3304  002EDC  EF75  F017         	goto	u7870
  3305  002EE0                     u7875:
  3306  002EE0  90D8               	bcf	status,0,c
  3307  002EE2  3387               	rrcf	(??___fltol+3)& (0+255),f,b
  3308  002EE4  3386               	rrcf	(??___fltol+2)& (0+255),f,b
  3309  002EE6  3385               	rrcf	(??___fltol+1)& (0+255),f,b
  3310  002EE8  3384               	rrcf	??___fltol& (0+255),f,b
  3311  002EEA                     u7870:
  3312  002EEA  2EE8               	decfsz	wreg,f,c
  3313  002EEC  EF70  F017         	goto	u7875
  3314  002EF0  5184               	movf	??___fltol& (0+255),w,b
  3315  002EF2  6E2A               	movwf	___fltol@sign1^0,c
  3316  002EF4                     
  3317                           ; BSR set to: 0
  3318  002EF4  8F82               	bsf	(___fltol@f1+2)& (0+255),7,b
  3319  002EF6                     
  3320                           ; BSR set to: 0
  3321  002EF6  0EFF               	movlw	255
  3322  002EF8  1780               	andwf	___fltol@f1& (0+255),f,b
  3323  002EFA  0EFF               	movlw	255
  3324  002EFC  1781               	andwf	(___fltol@f1+1)& (0+255),f,b
  3325  002EFE  0EFF               	movlw	255
  3326  002F00  1782               	andwf	(___fltol@f1+2)& (0+255),f,b
  3327  002F02  0E00               	movlw	0
  3328  002F04  1783               	andwf	(___fltol@f1+3)& (0+255),f,b
  3329  002F06                     
  3330                           ; BSR set to: 0
  3331  002F06  0E96               	movlw	150
  3332  002F08  5E2B               	subwf	___fltol@exp1^0,f,c
  3333  002F0A                     
  3334                           ; BSR set to: 0
  3335  002F0A  BE2B               	btfsc	___fltol@exp1^0,7,c
  3336  002F0C  EF8C  F017         	goto	u7880
  3337  002F10  EF8A  F017         	goto	u7881
  3338  002F14                     u7881:
  3339  002F14  EFA2  F017         	goto	l7171
  3340  002F18                     u7880:
  3341  002F18                     
  3342                           ; BSR set to: 0
  3343  002F18  502B               	movf	___fltol@exp1^0,w,c
  3344  002F1A  0A80               	xorlw	128
  3345  002F1C  0F97               	addlw	151
  3346  002F1E  B0D8               	btfsc	status,0,c
  3347  002F20  EF94  F017         	goto	u7891
  3348  002F24  EF96  F017         	goto	u7890
  3349  002F28                     u7891:
  3350  002F28  EF98  F017         	goto	l7167
  3351  002F2C                     u7890:
  3352  002F2C  EF5B  F017         	goto	l7147
  3353  002F30                     l7167:
  3354                           
  3355                           ; BSR set to: 0
  3356  002F30  90D8               	bcf	status,0,c
  3357  002F32  3383               	rrcf	(___fltol@f1+3)& (0+255),f,b
  3358  002F34  3382               	rrcf	(___fltol@f1+2)& (0+255),f,b
  3359  002F36  3381               	rrcf	(___fltol@f1+1)& (0+255),f,b
  3360  002F38  3380               	rrcf	___fltol@f1& (0+255),f,b
  3361  002F3A                     
  3362                           ; BSR set to: 0
  3363  002F3A  3E2B               	incfsz	___fltol@exp1^0,f,c
  3364  002F3C  EF98  F017         	goto	l7167
  3365  002F40  EFBA  F017         	goto	l7181
  3366  002F44                     l7171:
  3367                           
  3368                           ; BSR set to: 0
  3369  002F44  0E1F               	movlw	31
  3370  002F46  642B               	cpfsgt	___fltol@exp1^0,c
  3371  002F48  EFA8  F017         	goto	u7901
  3372  002F4C  EFAA  F017         	goto	u7900
  3373  002F50                     u7901:
  3374  002F50  EFB2  F017         	goto	l7179
  3375  002F54                     u7900:
  3376  002F54  EF5B  F017         	goto	l7147
  3377  002F58                     l7177:
  3378                           
  3379                           ; BSR set to: 0
  3380  002F58  90D8               	bcf	status,0,c
  3381  002F5A  3780               	rlcf	___fltol@f1& (0+255),f,b
  3382  002F5C  3781               	rlcf	(___fltol@f1+1)& (0+255),f,b
  3383  002F5E  3782               	rlcf	(___fltol@f1+2)& (0+255),f,b
  3384  002F60  3783               	rlcf	(___fltol@f1+3)& (0+255),f,b
  3385  002F62  062B               	decf	___fltol@exp1^0,f,c
  3386  002F64                     l7179:
  3387                           
  3388                           ; BSR set to: 0
  3389  002F64  502B               	movf	___fltol@exp1^0,w,c
  3390  002F66  A4D8               	btfss	status,2,c
  3391  002F68  EFB8  F017         	goto	u7911
  3392  002F6C  EFBA  F017         	goto	u7910
  3393  002F70                     u7911:
  3394  002F70  EFAC  F017         	goto	l7177
  3395  002F74                     u7910:
  3396  002F74                     l7181:
  3397                           
  3398                           ; BSR set to: 0
  3399  002F74  502A               	movf	___fltol@sign1^0,w,c
  3400  002F76  B4D8               	btfsc	status,2,c
  3401  002F78  EFC0  F017         	goto	u7921
  3402  002F7C  EFC2  F017         	goto	u7920
  3403  002F80                     u7921:
  3404  002F80  EFCA  F017         	goto	l7185
  3405  002F84                     u7920:
  3406  002F84                     
  3407                           ; BSR set to: 0
  3408  002F84  1F83               	comf	(___fltol@f1+3)& (0+255),f,b
  3409  002F86  1F82               	comf	(___fltol@f1+2)& (0+255),f,b
  3410  002F88  1F81               	comf	(___fltol@f1+1)& (0+255),f,b
  3411  002F8A  6D80               	negf	___fltol@f1& (0+255),b
  3412  002F8C  0E00               	movlw	0
  3413  002F8E  2381               	addwfc	(___fltol@f1+1)& (0+255),f,b
  3414  002F90  2382               	addwfc	(___fltol@f1+2)& (0+255),f,b
  3415  002F92  2383               	addwfc	(___fltol@f1+3)& (0+255),f,b
  3416  002F94                     l7185:
  3417                           
  3418                           ; BSR set to: 0
  3419  002F94  C080  F080         	movff	___fltol@f1,?___fltol
  3420  002F98  C081  F081         	movff	___fltol@f1+1,?___fltol+1
  3421  002F9C  C082  F082         	movff	___fltol@f1+2,?___fltol+2
  3422  002FA0  C083  F083         	movff	___fltol@f1+3,?___fltol+3
  3423  002FA4                     l1570:
  3424                           
  3425                           ; BSR set to: 0
  3426  002FA4  0012               	return		;funcret
  3427  002FA6                     __end_of___fltol:
  3428                           	callstack 0
  3429                           
  3430 ;; *************** function ___fldiv *****************
  3431 ;; Defined at:
  3432 ;;		line 11 in file "C:\Program Files\Microchip\xc8\v2.30\pic\sources\c99\common\sprcdiv.c"
  3433 ;; Parameters:    Size  Location     Type
  3434 ;;  b               4   14[BANK0 ] long 
  3435 ;;  a               4   18[BANK0 ] long 
  3436 ;; Auto vars:     Size  Location     Type
  3437 ;;  grs             4   33[BANK0 ] unsigned long 
  3438 ;;  rem             4   26[BANK0 ] unsigned long 
  3439 ;;  new_exp         2   31[BANK0 ] short 
  3440 ;;  aexp            1   38[BANK0 ] unsigned char 
  3441 ;;  bexp            1   37[BANK0 ] unsigned char 
  3442 ;;  sign            1   30[BANK0 ] unsigned char 
  3443 ;; Return value:  Size  Location     Type
  3444 ;;                  4   14[BANK0 ] unsigned char 
  3445 ;; Registers used:
  3446 ;;		wreg, status,2, status,0
  3447 ;; Tracked objects:
  3448 ;;		On entry : 0/0
  3449 ;;		On exit  : 0/0
  3450 ;;		Unchanged: 0/0
  3451 ;; Data sizes:     COMRAM   BANK0   BANK1   BANK2   BANK3   BANK4   BANK5   BANK6   BANK7   BANK8   BANK9  BANK10  BANK1
      +1  BANK12  BANK13  BANK14  BANK15
  3452 ;;      Params:         0       8       0       0       0       0       0       0       0       0       0       0       
      +0       0       0       0       0
  3453 ;;      Locals:         0      13       0       0       0       0       0       0       0       0       0       0       
      +0       0       0       0       0
  3454 ;;      Temps:          0       4       0       0       0       0       0       0       0       0       0       0       
      +0       0       0       0       0
  3455 ;;      Totals:         0      25       0       0       0       0       0       0       0       0       0       0       
      +0       0       0       0       0
  3456 ;;Total ram usage:       25 bytes
  3457 ;; Hardware stack levels used:    1
  3458 ;; Hardware stack levels required when called:   10
  3459 ;; This function calls:
  3460 ;;		Nothing
  3461 ;; This function is called by:
  3462 ;;		_async_config_baud_rate_gen
  3463 ;;		_I2C_Master_Mode_Clock_Configurations
  3464 ;; This function uses a non-reentrant model
  3465 ;;
  3466                           
  3467                           	psect	text9
  3468  001D62                     __ptext9:
  3469                           	callstack 0
  3470  001D62                     ___fldiv:
  3471                           	callstack 17
  3472  001D62  0100               	movlb	0	; () banked
  3473  001D64  5191               	movf	(___fldiv@b+3)& (0+255),w,b
  3474  001D66  0B80               	andlw	128
  3475  001D68  6F9E               	movwf	___fldiv@sign& (0+255),b
  3476  001D6A  5191               	movf	(___fldiv@b+3)& (0+255),w,b
  3477  001D6C  2591               	addwf	(___fldiv@b+3)& (0+255),w,b
  3478  001D6E  6FA5               	movwf	___fldiv@bexp& (0+255),b
  3479  001D70                     
  3480                           ; BSR set to: 0
  3481  001D70  AF90               	btfss	(___fldiv@b+2)& (0+255),7,b
  3482  001D72  EFBD  F00E         	goto	u7631
  3483  001D76  EFBF  F00E         	goto	u7630
  3484  001D7A                     u7631:
  3485  001D7A  EFC0  F00E         	goto	l7013
  3486  001D7E                     u7630:
  3487  001D7E                     
  3488                           ; BSR set to: 0
  3489  001D7E  81A5               	bsf	___fldiv@bexp& (0+255),0,b
  3490  001D80                     l7013:
  3491                           
  3492                           ; BSR set to: 0
  3493  001D80  51A5               	movf	___fldiv@bexp& (0+255),w,b
  3494  001D82  B4D8               	btfsc	status,2,c
  3495  001D84  EFC6  F00E         	goto	u7641
  3496  001D88  EFC8  F00E         	goto	u7640
  3497  001D8C                     u7641:
  3498  001D8C  EFDD  F00E         	goto	l7023
  3499  001D90                     u7640:
  3500  001D90                     
  3501                           ; BSR set to: 0
  3502  001D90  29A5               	incf	___fldiv@bexp& (0+255),w,b
  3503  001D92  A4D8               	btfss	status,2,c
  3504  001D94  EFCE  F00E         	goto	u7651
  3505  001D98  EFD0  F00E         	goto	u7650
  3506  001D9C                     u7651:
  3507  001D9C  EFD8  F00E         	goto	l7019
  3508  001DA0                     u7650:
  3509  001DA0                     
  3510                           ; BSR set to: 0
  3511  001DA0  0E00               	movlw	0
  3512  001DA2  6F8E               	movwf	___fldiv@b& (0+255),b
  3513  001DA4  0E00               	movlw	0
  3514  001DA6  6F8F               	movwf	(___fldiv@b+1)& (0+255),b
  3515  001DA8  0E00               	movlw	0
  3516  001DAA  6F90               	movwf	(___fldiv@b+2)& (0+255),b
  3517  001DAC  0E00               	movlw	0
  3518  001DAE  6F91               	movwf	(___fldiv@b+3)& (0+255),b
  3519  001DB0                     l7019:
  3520                           
  3521                           ; BSR set to: 0
  3522  001DB0  8F90               	bsf	(___fldiv@b+2)& (0+255),7,b
  3523  001DB2                     
  3524                           ; BSR set to: 0
  3525  001DB2  0E00               	movlw	0
  3526  001DB4  6F91               	movwf	(___fldiv@b+3)& (0+255),b
  3527  001DB6  EFE5  F00E         	goto	l7025
  3528  001DBA                     l7023:
  3529                           
  3530                           ; BSR set to: 0
  3531  001DBA  0E00               	movlw	0
  3532  001DBC  6F8E               	movwf	___fldiv@b& (0+255),b
  3533  001DBE  0E00               	movlw	0
  3534  001DC0  6F8F               	movwf	(___fldiv@b+1)& (0+255),b
  3535  001DC2  0E00               	movlw	0
  3536  001DC4  6F90               	movwf	(___fldiv@b+2)& (0+255),b
  3537  001DC6  0E00               	movlw	0
  3538  001DC8  6F91               	movwf	(___fldiv@b+3)& (0+255),b
  3539  001DCA                     l7025:
  3540                           
  3541                           ; BSR set to: 0
  3542  001DCA  5195               	movf	(___fldiv@a+3)& (0+255),w,b
  3543  001DCC  0B80               	andlw	128
  3544  001DCE  1B9E               	xorwf	___fldiv@sign& (0+255),f,b
  3545  001DD0                     
  3546                           ; BSR set to: 0
  3547  001DD0  5195               	movf	(___fldiv@a+3)& (0+255),w,b
  3548  001DD2  2595               	addwf	(___fldiv@a+3)& (0+255),w,b
  3549  001DD4  6FA6               	movwf	___fldiv@aexp& (0+255),b
  3550  001DD6                     
  3551                           ; BSR set to: 0
  3552  001DD6  AF94               	btfss	(___fldiv@a+2)& (0+255),7,b
  3553  001DD8  EFF0  F00E         	goto	u7661
  3554  001DDC  EFF2  F00E         	goto	u7660
  3555  001DE0                     u7661:
  3556  001DE0  EFF3  F00E         	goto	l7033
  3557  001DE4                     u7660:
  3558  001DE4                     
  3559                           ; BSR set to: 0
  3560  001DE4  81A6               	bsf	___fldiv@aexp& (0+255),0,b
  3561  001DE6                     l7033:
  3562                           
  3563                           ; BSR set to: 0
  3564  001DE6  51A6               	movf	___fldiv@aexp& (0+255),w,b
  3565  001DE8  B4D8               	btfsc	status,2,c
  3566  001DEA  EFF9  F00E         	goto	u7671
  3567  001DEE  EFFB  F00E         	goto	u7670
  3568  001DF2                     u7671:
  3569  001DF2  EF10  F00F         	goto	l7043
  3570  001DF6                     u7670:
  3571  001DF6                     
  3572                           ; BSR set to: 0
  3573  001DF6  29A6               	incf	___fldiv@aexp& (0+255),w,b
  3574  001DF8  A4D8               	btfss	status,2,c
  3575  001DFA  EF01  F00F         	goto	u7681
  3576  001DFE  EF03  F00F         	goto	u7680
  3577  001E02                     u7681:
  3578  001E02  EF0B  F00F         	goto	l7039
  3579  001E06                     u7680:
  3580  001E06                     
  3581                           ; BSR set to: 0
  3582  001E06  0E00               	movlw	0
  3583  001E08  6F92               	movwf	___fldiv@a& (0+255),b
  3584  001E0A  0E00               	movlw	0
  3585  001E0C  6F93               	movwf	(___fldiv@a+1)& (0+255),b
  3586  001E0E  0E00               	movlw	0
  3587  001E10  6F94               	movwf	(___fldiv@a+2)& (0+255),b
  3588  001E12  0E00               	movlw	0
  3589  001E14  6F95               	movwf	(___fldiv@a+3)& (0+255),b
  3590  001E16                     l7039:
  3591                           
  3592                           ; BSR set to: 0
  3593  001E16  8F94               	bsf	(___fldiv@a+2)& (0+255),7,b
  3594  001E18                     
  3595                           ; BSR set to: 0
  3596  001E18  0E00               	movlw	0
  3597  001E1A  6F95               	movwf	(___fldiv@a+3)& (0+255),b
  3598  001E1C  EF18  F00F         	goto	l7045
  3599  001E20                     l7043:
  3600                           
  3601                           ; BSR set to: 0
  3602  001E20  0E00               	movlw	0
  3603  001E22  6F92               	movwf	___fldiv@a& (0+255),b
  3604  001E24  0E00               	movlw	0
  3605  001E26  6F93               	movwf	(___fldiv@a+1)& (0+255),b
  3606  001E28  0E00               	movlw	0
  3607  001E2A  6F94               	movwf	(___fldiv@a+2)& (0+255),b
  3608  001E2C  0E00               	movlw	0
  3609  001E2E  6F95               	movwf	(___fldiv@a+3)& (0+255),b
  3610  001E30                     l7045:
  3611                           
  3612                           ; BSR set to: 0
  3613  001E30  5192               	movf	___fldiv@a& (0+255),w,b
  3614  001E32  1193               	iorwf	(___fldiv@a+1)& (0+255),w,b
  3615  001E34  1194               	iorwf	(___fldiv@a+2)& (0+255),w,b
  3616  001E36  1195               	iorwf	(___fldiv@a+3)& (0+255),w,b
  3617  001E38  A4D8               	btfss	status,2,c
  3618  001E3A  EF21  F00F         	goto	u7691
  3619  001E3E  EF23  F00F         	goto	u7690
  3620  001E42                     u7691:
  3621  001E42  EF3B  F00F         	goto	l7057
  3622  001E46                     u7690:
  3623  001E46                     
  3624                           ; BSR set to: 0
  3625  001E46  0E00               	movlw	0
  3626  001E48  6F8E               	movwf	___fldiv@b& (0+255),b
  3627  001E4A  0E00               	movlw	0
  3628  001E4C  6F8F               	movwf	(___fldiv@b+1)& (0+255),b
  3629  001E4E  0E00               	movlw	0
  3630  001E50  6F90               	movwf	(___fldiv@b+2)& (0+255),b
  3631  001E52  0E00               	movlw	0
  3632  001E54  6F91               	movwf	(___fldiv@b+3)& (0+255),b
  3633  001E56                     
  3634                           ; BSR set to: 0
  3635  001E56  0E80               	movlw	128
  3636  001E58  1390               	iorwf	(___fldiv@b+2)& (0+255),f,b
  3637  001E5A  0E7F               	movlw	127
  3638  001E5C  1391               	iorwf	(___fldiv@b+3)& (0+255),f,b
  3639  001E5E                     l7051:
  3640                           
  3641                           ; BSR set to: 0
  3642  001E5E  519E               	movf	___fldiv@sign& (0+255),w,b
  3643  001E60  1391               	iorwf	(___fldiv@b+3)& (0+255),f,b
  3644  001E62                     
  3645                           ; BSR set to: 0
  3646  001E62  C08E  F08E         	movff	___fldiv@b,?___fldiv
  3647  001E66  C08F  F08F         	movff	___fldiv@b+1,?___fldiv+1
  3648  001E6A  C090  F090         	movff	___fldiv@b+2,?___fldiv+2
  3649  001E6E  C091  F091         	movff	___fldiv@b+3,?___fldiv+3
  3650  001E72  EF7E  F010         	goto	l1855
  3651  001E76                     l7057:
  3652                           
  3653                           ; BSR set to: 0
  3654  001E76  51A5               	movf	___fldiv@bexp& (0+255),w,b
  3655  001E78  A4D8               	btfss	status,2,c
  3656  001E7A  EF41  F00F         	goto	u7701
  3657  001E7E  EF43  F00F         	goto	u7700
  3658  001E82                     u7701:
  3659  001E82  EF4D  F00F         	goto	l7065
  3660  001E86                     u7700:
  3661  001E86                     
  3662                           ; BSR set to: 0
  3663  001E86  0E00               	movlw	0
  3664  001E88  6F8E               	movwf	?___fldiv& (0+255),b
  3665  001E8A  0E00               	movlw	0
  3666  001E8C  6F8F               	movwf	(?___fldiv+1)& (0+255),b
  3667  001E8E  0E00               	movlw	0
  3668  001E90  6F90               	movwf	(?___fldiv+2)& (0+255),b
  3669  001E92  0E00               	movlw	0
  3670  001E94  6F91               	movwf	(?___fldiv+3)& (0+255),b
  3671  001E96  EF7E  F010         	goto	l1855
  3672  001E9A                     l7065:
  3673                           
  3674                           ; BSR set to: 0
  3675  001E9A  51A6               	movf	___fldiv@aexp& (0+255),w,b
  3676  001E9C  C0A5  F096         	movff	___fldiv@bexp,??___fldiv
  3677  001EA0  6B97               	clrf	(??___fldiv+1)& (0+255),b
  3678  001EA2  5F96               	subwf	??___fldiv& (0+255),f,b
  3679  001EA4  0E00               	movlw	0
  3680  001EA6  5B97               	subwfb	(??___fldiv+1)& (0+255),f,b
  3681  001EA8  0E7F               	movlw	127
  3682  001EAA  2596               	addwf	??___fldiv& (0+255),w,b
  3683  001EAC  6F9F               	movwf	___fldiv@new_exp& (0+255),b
  3684  001EAE  0E00               	movlw	0
  3685  001EB0  2197               	addwfc	(??___fldiv+1)& (0+255),w,b
  3686  001EB2  6FA0               	movwf	(___fldiv@new_exp+1)& (0+255),b
  3687  001EB4                     
  3688                           ; BSR set to: 0
  3689  001EB4  C08E  F09A         	movff	___fldiv@b,___fldiv@rem
  3690  001EB8  C08F  F09B         	movff	___fldiv@b+1,___fldiv@rem+1
  3691  001EBC  C090  F09C         	movff	___fldiv@b+2,___fldiv@rem+2
  3692  001EC0  C091  F09D         	movff	___fldiv@b+3,___fldiv@rem+3
  3693  001EC4                     
  3694                           ; BSR set to: 0
  3695  001EC4  0E00               	movlw	0
  3696  001EC6  6F8E               	movwf	___fldiv@b& (0+255),b
  3697  001EC8  0E00               	movlw	0
  3698  001ECA  6F8F               	movwf	(___fldiv@b+1)& (0+255),b
  3699  001ECC  0E00               	movlw	0
  3700  001ECE  6F90               	movwf	(___fldiv@b+2)& (0+255),b
  3701  001ED0  0E00               	movlw	0
  3702  001ED2  6F91               	movwf	(___fldiv@b+3)& (0+255),b
  3703  001ED4                     
  3704                           ; BSR set to: 0
  3705  001ED4  0E00               	movlw	0
  3706  001ED6  6FA1               	movwf	___fldiv@grs& (0+255),b
  3707  001ED8  0E00               	movlw	0
  3708  001EDA  6FA2               	movwf	(___fldiv@grs+1)& (0+255),b
  3709  001EDC  0E00               	movlw	0
  3710  001EDE  6FA3               	movwf	(___fldiv@grs+2)& (0+255),b
  3711  001EE0  0E00               	movlw	0
  3712  001EE2  6FA4               	movwf	(___fldiv@grs+3)& (0+255),b
  3713  001EE4                     
  3714                           ; BSR set to: 0
  3715  001EE4  0E00               	movlw	0
  3716  001EE6  6FA6               	movwf	___fldiv@aexp& (0+255),b
  3717  001EE8  EFAE  F00F         	goto	l1857
  3718  001EEC                     l7075:
  3719                           
  3720                           ; BSR set to: 0
  3721  001EEC  51A6               	movf	___fldiv@aexp& (0+255),w,b
  3722  001EEE  B4D8               	btfsc	status,2,c
  3723  001EF0  EF7C  F00F         	goto	u7711
  3724  001EF4  EF7E  F00F         	goto	u7710
  3725  001EF8                     u7711:
  3726  001EF8  EF95  F00F         	goto	l7083
  3727  001EFC                     u7710:
  3728  001EFC                     
  3729                           ; BSR set to: 0
  3730  001EFC  90D8               	bcf	status,0,c
  3731  001EFE  379A               	rlcf	___fldiv@rem& (0+255),f,b
  3732  001F00  379B               	rlcf	(___fldiv@rem+1)& (0+255),f,b
  3733  001F02  379C               	rlcf	(___fldiv@rem+2)& (0+255),f,b
  3734  001F04  379D               	rlcf	(___fldiv@rem+3)& (0+255),f,b
  3735  001F06  90D8               	bcf	status,0,c
  3736  001F08  378E               	rlcf	___fldiv@b& (0+255),f,b
  3737  001F0A  378F               	rlcf	(___fldiv@b+1)& (0+255),f,b
  3738  001F0C  3790               	rlcf	(___fldiv@b+2)& (0+255),f,b
  3739  001F0E  3791               	rlcf	(___fldiv@b+3)& (0+255),f,b
  3740  001F10                     
  3741                           ; BSR set to: 0
  3742  001F10  AFA4               	btfss	(___fldiv@grs+3)& (0+255),7,b
  3743  001F12  EF8D  F00F         	goto	u7721
  3744  001F16  EF8F  F00F         	goto	u7720
  3745  001F1A                     u7721:
  3746  001F1A  EF90  F00F         	goto	l1860
  3747  001F1E                     u7720:
  3748  001F1E                     
  3749                           ; BSR set to: 0
  3750  001F1E  818E               	bsf	___fldiv@b& (0+255),0,b
  3751  001F20                     l1860:
  3752                           
  3753                           ; BSR set to: 0
  3754  001F20  90D8               	bcf	status,0,c
  3755  001F22  37A1               	rlcf	___fldiv@grs& (0+255),f,b
  3756  001F24  37A2               	rlcf	(___fldiv@grs+1)& (0+255),f,b
  3757  001F26  37A3               	rlcf	(___fldiv@grs+2)& (0+255),f,b
  3758  001F28  37A4               	rlcf	(___fldiv@grs+3)& (0+255),f,b
  3759  001F2A                     l7083:
  3760                           
  3761                           ; BSR set to: 0
  3762  001F2A  5192               	movf	___fldiv@a& (0+255),w,b
  3763  001F2C  5D9A               	subwf	___fldiv@rem& (0+255),w,b
  3764  001F2E  5193               	movf	(___fldiv@a+1)& (0+255),w,b
  3765  001F30  599B               	subwfb	(___fldiv@rem+1)& (0+255),w,b
  3766  001F32  5194               	movf	(___fldiv@a+2)& (0+255),w,b
  3767  001F34  599C               	subwfb	(___fldiv@rem+2)& (0+255),w,b
  3768  001F36  5195               	movf	(___fldiv@a+3)& (0+255),w,b
  3769  001F38  599D               	subwfb	(___fldiv@rem+3)& (0+255),w,b
  3770  001F3A  A0D8               	btfss	status,0,c
  3771  001F3C  EFA2  F00F         	goto	u7731
  3772  001F40  EFA4  F00F         	goto	u7730
  3773  001F44                     u7731:
  3774  001F44  EFAD  F00F         	goto	l7089
  3775  001F48                     u7730:
  3776  001F48                     
  3777                           ; BSR set to: 0
  3778  001F48  8DA4               	bsf	(___fldiv@grs+3)& (0+255),6,b
  3779  001F4A                     
  3780                           ; BSR set to: 0
  3781  001F4A  5192               	movf	___fldiv@a& (0+255),w,b
  3782  001F4C  5F9A               	subwf	___fldiv@rem& (0+255),f,b
  3783  001F4E  5193               	movf	(___fldiv@a+1)& (0+255),w,b
  3784  001F50  5B9B               	subwfb	(___fldiv@rem+1)& (0+255),f,b
  3785  001F52  5194               	movf	(___fldiv@a+2)& (0+255),w,b
  3786  001F54  5B9C               	subwfb	(___fldiv@rem+2)& (0+255),f,b
  3787  001F56  5195               	movf	(___fldiv@a+3)& (0+255),w,b
  3788  001F58  5B9D               	subwfb	(___fldiv@rem+3)& (0+255),f,b
  3789  001F5A                     l7089:
  3790                           
  3791                           ; BSR set to: 0
  3792  001F5A  2BA6               	incf	___fldiv@aexp& (0+255),f,b
  3793  001F5C                     l1857:
  3794                           
  3795                           ; BSR set to: 0
  3796  001F5C  0E19               	movlw	25
  3797  001F5E  65A6               	cpfsgt	___fldiv@aexp& (0+255),b
  3798  001F60  EFB4  F00F         	goto	u7741
  3799  001F64  EFB6  F00F         	goto	u7740
  3800  001F68                     u7741:
  3801  001F68  EF76  F00F         	goto	l7075
  3802  001F6C                     u7740:
  3803  001F6C                     
  3804                           ; BSR set to: 0
  3805  001F6C  519A               	movf	___fldiv@rem& (0+255),w,b
  3806  001F6E  119B               	iorwf	(___fldiv@rem+1)& (0+255),w,b
  3807  001F70  119C               	iorwf	(___fldiv@rem+2)& (0+255),w,b
  3808  001F72  119D               	iorwf	(___fldiv@rem+3)& (0+255),w,b
  3809  001F74  B4D8               	btfsc	status,2,c
  3810  001F76  EFBF  F00F         	goto	u7751
  3811  001F7A  EFC1  F00F         	goto	u7750
  3812  001F7E                     u7751:
  3813  001F7E  EFD9  F00F         	goto	l7101
  3814  001F82                     u7750:
  3815  001F82                     
  3816                           ; BSR set to: 0
  3817  001F82  81A1               	bsf	___fldiv@grs& (0+255),0,b
  3818  001F84  EFD9  F00F         	goto	l7101
  3819  001F88                     l7095:
  3820                           
  3821                           ; BSR set to: 0
  3822  001F88  90D8               	bcf	status,0,c
  3823  001F8A  378E               	rlcf	___fldiv@b& (0+255),f,b
  3824  001F8C  378F               	rlcf	(___fldiv@b+1)& (0+255),f,b
  3825  001F8E  3790               	rlcf	(___fldiv@b+2)& (0+255),f,b
  3826  001F90  3791               	rlcf	(___fldiv@b+3)& (0+255),f,b
  3827  001F92                     
  3828                           ; BSR set to: 0
  3829  001F92  AFA4               	btfss	(___fldiv@grs+3)& (0+255),7,b
  3830  001F94  EFCE  F00F         	goto	u7761
  3831  001F98  EFD0  F00F         	goto	u7760
  3832  001F9C                     u7761:
  3833  001F9C  EFD1  F00F         	goto	l1866
  3834  001FA0                     u7760:
  3835  001FA0                     
  3836                           ; BSR set to: 0
  3837  001FA0  818E               	bsf	___fldiv@b& (0+255),0,b
  3838  001FA2                     l1866:
  3839                           
  3840                           ; BSR set to: 0
  3841  001FA2  90D8               	bcf	status,0,c
  3842  001FA4  37A1               	rlcf	___fldiv@grs& (0+255),f,b
  3843  001FA6  37A2               	rlcf	(___fldiv@grs+1)& (0+255),f,b
  3844  001FA8  37A3               	rlcf	(___fldiv@grs+2)& (0+255),f,b
  3845  001FAA  37A4               	rlcf	(___fldiv@grs+3)& (0+255),f,b
  3846  001FAC  079F               	decf	___fldiv@new_exp& (0+255),f,b
  3847  001FAE  A0D8               	btfss	status,0,c
  3848  001FB0  07A0               	decf	(___fldiv@new_exp+1)& (0+255),f,b
  3849  001FB2                     l7101:
  3850                           
  3851                           ; BSR set to: 0
  3852  001FB2  AF90               	btfss	(___fldiv@b+2)& (0+255),7,b
  3853  001FB4  EFDE  F00F         	goto	u7771
  3854  001FB8  EFE0  F00F         	goto	u7770
  3855  001FBC                     u7771:
  3856  001FBC  EFC4  F00F         	goto	l7095
  3857  001FC0                     u7770:
  3858  001FC0                     
  3859                           ; BSR set to: 0
  3860  001FC0  0E00               	movlw	0
  3861  001FC2  6FA6               	movwf	___fldiv@aexp& (0+255),b
  3862  001FC4                     
  3863                           ; BSR set to: 0
  3864  001FC4  AFA4               	btfss	(___fldiv@grs+3)& (0+255),7,b
  3865  001FC6  EFE7  F00F         	goto	u7781
  3866  001FCA  EFE9  F00F         	goto	u7780
  3867  001FCE                     u7781:
  3868  001FCE  EF0D  F010         	goto	l1868
  3869  001FD2                     u7780:
  3870  001FD2                     
  3871                           ; BSR set to: 0
  3872  001FD2  0EFF               	movlw	255
  3873  001FD4  15A1               	andwf	___fldiv@grs& (0+255),w,b
  3874  001FD6  6F96               	movwf	??___fldiv& (0+255),b
  3875  001FD8  0EFF               	movlw	255
  3876  001FDA  15A2               	andwf	(___fldiv@grs+1)& (0+255),w,b
  3877  001FDC  6F97               	movwf	(??___fldiv+1)& (0+255),b
  3878  001FDE  0EFF               	movlw	255
  3879  001FE0  15A3               	andwf	(___fldiv@grs+2)& (0+255),w,b
  3880  001FE2  6F98               	movwf	(??___fldiv+2)& (0+255),b
  3881  001FE4  0E7F               	movlw	127
  3882  001FE6  15A4               	andwf	(___fldiv@grs+3)& (0+255),w,b
  3883  001FE8  6F99               	movwf	(??___fldiv+3)& (0+255),b
  3884  001FEA  5196               	movf	??___fldiv& (0+255),w,b
  3885  001FEC  1197               	iorwf	(??___fldiv+1)& (0+255),w,b
  3886  001FEE  1198               	iorwf	(??___fldiv+2)& (0+255),w,b
  3887  001FF0  1199               	iorwf	(??___fldiv+3)& (0+255),w,b
  3888  001FF2  B4D8               	btfsc	status,2,c
  3889  001FF4  EFFE  F00F         	goto	u7791
  3890  001FF8  EF00  F010         	goto	u7790
  3891  001FFC                     u7791:
  3892  001FFC  EF04  F010         	goto	l1869
  3893  002000                     u7790:
  3894  002000                     l7109:
  3895                           
  3896                           ; BSR set to: 0
  3897  002000  0E01               	movlw	1
  3898  002002  6FA6               	movwf	___fldiv@aexp& (0+255),b
  3899  002004  EF0D  F010         	goto	l1868
  3900  002008                     l1869:
  3901                           
  3902                           ; BSR set to: 0
  3903  002008  A18E               	btfss	___fldiv@b& (0+255),0,b
  3904  00200A  EF09  F010         	goto	u7801
  3905  00200E  EF0B  F010         	goto	u7800
  3906  002012                     u7801:
  3907  002012  EF0D  F010         	goto	l1868
  3908  002016                     u7800:
  3909  002016  EF00  F010         	goto	l7109
  3910  00201A                     l1868:
  3911                           
  3912                           ; BSR set to: 0
  3913  00201A  51A6               	movf	___fldiv@aexp& (0+255),w,b
  3914  00201C  B4D8               	btfsc	status,2,c
  3915  00201E  EF13  F010         	goto	u7811
  3916  002022  EF15  F010         	goto	u7810
  3917  002026                     u7811:
  3918  002026  EF39  F010         	goto	l7121
  3919  00202A                     u7810:
  3920  00202A                     
  3921                           ; BSR set to: 0
  3922  00202A  0E01               	movlw	1
  3923  00202C  278E               	addwf	___fldiv@b& (0+255),f,b
  3924  00202E  0E00               	movlw	0
  3925  002030  238F               	addwfc	(___fldiv@b+1)& (0+255),f,b
  3926  002032  2390               	addwfc	(___fldiv@b+2)& (0+255),f,b
  3927  002034  2391               	addwfc	(___fldiv@b+3)& (0+255),f,b
  3928  002036                     
  3929                           ; BSR set to: 0
  3930  002036  A191               	btfss	(___fldiv@b+3)& (0+255),0,b
  3931  002038  EF20  F010         	goto	u7821
  3932  00203C  EF22  F010         	goto	u7820
  3933  002040                     u7821:
  3934  002040  EF39  F010         	goto	l7121
  3935  002044                     u7820:
  3936  002044                     
  3937                           ; BSR set to: 0
  3938  002044  C08E  F096         	movff	___fldiv@b,??___fldiv
  3939  002048  C08F  F097         	movff	___fldiv@b+1,??___fldiv+1
  3940  00204C  C090  F098         	movff	___fldiv@b+2,??___fldiv+2
  3941  002050  C091  F099         	movff	___fldiv@b+3,??___fldiv+3
  3942  002054  3599               	rlcf	(??___fldiv+3)& (0+255),w,b
  3943  002056  3399               	rrcf	(??___fldiv+3)& (0+255),f,b
  3944  002058  3398               	rrcf	(??___fldiv+2)& (0+255),f,b
  3945  00205A  3397               	rrcf	(??___fldiv+1)& (0+255),f,b
  3946  00205C  3396               	rrcf	??___fldiv& (0+255),f,b
  3947  00205E  C096  F08E         	movff	??___fldiv,___fldiv@b
  3948  002062  C097  F08F         	movff	??___fldiv+1,___fldiv@b+1
  3949  002066  C098  F090         	movff	??___fldiv+2,___fldiv@b+2
  3950  00206A  C099  F091         	movff	??___fldiv+3,___fldiv@b+3
  3951  00206E                     
  3952                           ; BSR set to: 0
  3953  00206E  4B9F               	infsnz	___fldiv@new_exp& (0+255),f,b
  3954  002070  2BA0               	incf	(___fldiv@new_exp+1)& (0+255),f,b
  3955  002072                     l7121:
  3956                           
  3957                           ; BSR set to: 0
  3958  002072  BFA0               	btfsc	(___fldiv@new_exp+1)& (0+255),7,b
  3959  002074  EF44  F010         	goto	u7831
  3960  002078  51A0               	movf	(___fldiv@new_exp+1)& (0+255),w,b
  3961  00207A  E108               	bnz	u7830
  3962  00207C  299F               	incf	___fldiv@new_exp& (0+255),w,b
  3963  00207E  A0D8               	btfss	status,0,c
  3964  002080  EF44  F010         	goto	u7831
  3965  002084  EF46  F010         	goto	u7830
  3966  002088                     u7831:
  3967  002088  EF51  F010         	goto	l7125
  3968  00208C                     u7830:
  3969  00208C                     
  3970                           ; BSR set to: 0
  3971  00208C  0E00               	movlw	0
  3972  00208E  6FA0               	movwf	(___fldiv@new_exp+1)& (0+255),b
  3973  002090  699F               	setf	___fldiv@new_exp& (0+255),b
  3974  002092  0E00               	movlw	0
  3975  002094  6F8E               	movwf	___fldiv@b& (0+255),b
  3976  002096  0E00               	movlw	0
  3977  002098  6F8F               	movwf	(___fldiv@b+1)& (0+255),b
  3978  00209A  0E00               	movlw	0
  3979  00209C  6F90               	movwf	(___fldiv@b+2)& (0+255),b
  3980  00209E  0E00               	movlw	0
  3981  0020A0  6F91               	movwf	(___fldiv@b+3)& (0+255),b
  3982  0020A2                     l7125:
  3983                           
  3984                           ; BSR set to: 0
  3985  0020A2  BFA0               	btfsc	(___fldiv@new_exp+1)& (0+255),7,b
  3986  0020A4  EF5E  F010         	goto	u7840
  3987  0020A8  51A0               	movf	(___fldiv@new_exp+1)& (0+255),w,b
  3988  0020AA  E106               	bnz	u7841
  3989  0020AC  059F               	decf	___fldiv@new_exp& (0+255),w,b
  3990  0020AE  B0D8               	btfsc	status,0,c
  3991  0020B0  EF5C  F010         	goto	u7841
  3992  0020B4  EF5E  F010         	goto	u7840
  3993  0020B8                     u7841:
  3994  0020B8  EF6C  F010         	goto	l7129
  3995  0020BC                     u7840:
  3996  0020BC                     
  3997                           ; BSR set to: 0
  3998  0020BC  0E00               	movlw	0
  3999  0020BE  6FA0               	movwf	(___fldiv@new_exp+1)& (0+255),b
  4000  0020C0  0E00               	movlw	0
  4001  0020C2  6F9F               	movwf	___fldiv@new_exp& (0+255),b
  4002  0020C4  0E00               	movlw	0
  4003  0020C6  6F8E               	movwf	___fldiv@b& (0+255),b
  4004  0020C8  0E00               	movlw	0
  4005  0020CA  6F8F               	movwf	(___fldiv@b+1)& (0+255),b
  4006  0020CC  0E00               	movlw	0
  4007  0020CE  6F90               	movwf	(___fldiv@b+2)& (0+255),b
  4008  0020D0  0E00               	movlw	0
  4009  0020D2  6F91               	movwf	(___fldiv@b+3)& (0+255),b
  4010  0020D4  0E00               	movlw	0
  4011  0020D6  6F9E               	movwf	___fldiv@sign& (0+255),b
  4012  0020D8                     l7129:
  4013                           
  4014                           ; BSR set to: 0
  4015  0020D8  C09F  F0A5         	movff	___fldiv@new_exp,___fldiv@bexp
  4016  0020DC                     
  4017                           ; BSR set to: 0
  4018  0020DC  A1A5               	btfss	___fldiv@bexp& (0+255),0,b
  4019  0020DE  EF73  F010         	goto	u7851
  4020  0020E2  EF75  F010         	goto	u7850
  4021  0020E6                     u7851:
  4022  0020E6  EF78  F010         	goto	l7135
  4023  0020EA                     u7850:
  4024  0020EA                     
  4025                           ; BSR set to: 0
  4026  0020EA  8F90               	bsf	(___fldiv@b+2)& (0+255),7,b
  4027  0020EC  EF79  F010         	goto	l7137
  4028  0020F0                     l7135:
  4029                           
  4030                           ; BSR set to: 0
  4031  0020F0  9F90               	bcf	(___fldiv@b+2)& (0+255),7,b
  4032  0020F2                     l7137:
  4033                           
  4034                           ; BSR set to: 0
  4035  0020F2  90D8               	bcf	status,0,c
  4036  0020F4  31A5               	rrcf	___fldiv@bexp& (0+255),w,b
  4037  0020F6  6F91               	movwf	(___fldiv@b+3)& (0+255),b
  4038  0020F8  EF2F  F00F         	goto	l7051
  4039  0020FC                     l1855:
  4040                           
  4041                           ; BSR set to: 0
  4042  0020FC  0012               	return		;funcret
  4043  0020FE                     __end_of___fldiv:
  4044                           	callstack 0
  4045                           
  4046 ;; *************** function ___fladd *****************
  4047 ;; Defined at:
  4048 ;;		line 10 in file "C:\Program Files\Microchip\xc8\v2.30\pic\sources\c99\common\sprcadd.c"
  4049 ;; Parameters:    Size  Location     Type
  4050 ;;  b               4    0[BANK1 ] unsigned char 
  4051 ;;  a               4    4[BANK1 ] unsigned char 
  4052 ;; Auto vars:     Size  Location     Type
  4053 ;;  grs             1   11[BANK1 ] unsigned char 
  4054 ;;  bexp            1   10[BANK1 ] unsigned char 
  4055 ;;  aexp            1    9[BANK1 ] unsigned char 
  4056 ;;  signs           1    8[BANK1 ] unsigned char 
  4057 ;; Return value:  Size  Location     Type
  4058 ;;                  4    0[BANK1 ] unsigned char 
  4059 ;; Registers used:
  4060 ;;		wreg, status,2, status,0
  4061 ;; Tracked objects:
  4062 ;;		On entry : 0/0
  4063 ;;		On exit  : 0/0
  4064 ;;		Unchanged: 0/0
  4065 ;; Data sizes:     COMRAM   BANK0   BANK1   BANK2   BANK3   BANK4   BANK5   BANK6   BANK7   BANK8   BANK9  BANK10  BANK1
      +1  BANK12  BANK13  BANK14  BANK15
  4066 ;;      Params:         0       0       8       0       0       0       0       0       0       0       0       0       
      +0       0       0       0       0
  4067 ;;      Locals:         0       0       4       0       0       0       0       0       0       0       0       0       
      +0       0       0       0       0
  4068 ;;      Temps:          0       4       0       0       0       0       0       0       0       0       0       0       
      +0       0       0       0       0
  4069 ;;      Totals:         0       4      12       0       0       0       0       0       0       0       0       0       
      +0       0       0       0       0
  4070 ;;Total ram usage:       16 bytes
  4071 ;; Hardware stack levels used:    1
  4072 ;; Hardware stack levels required when called:   10
  4073 ;; This function calls:
  4074 ;;		Nothing
  4075 ;; This function is called by:
  4076 ;;		_async_config_baud_rate_gen
  4077 ;;		_Servo_SetAngle
  4078 ;;		_I2C_Master_Mode_Clock_Configurations
  4079 ;; This function uses a non-reentrant model
  4080 ;;
  4081                           
  4082                           	psect	text10
  4083  0010E0                     __ptext10:
  4084                           	callstack 0
  4085  0010E0                     ___fladd:
  4086                           	callstack 17
  4087  0010E0  0101               	movlb	1	; () banked
  4088  0010E2  5103               	movf	(___fladd@b+3)& (0+255),w,b
  4089  0010E4  0B80               	andlw	128
  4090  0010E6  6F08               	movwf	___fladd@signs& (0+255),b
  4091  0010E8  5103               	movf	(___fladd@b+3)& (0+255),w,b
  4092  0010EA  2503               	addwf	(___fladd@b+3)& (0+255),w,b
  4093  0010EC  6F0A               	movwf	___fladd@bexp& (0+255),b
  4094  0010EE                     
  4095                           ; BSR set to: 1
  4096  0010EE  AF02               	btfss	(___fladd@b+2)& (0+255),7,b
  4097  0010F0  EF7C  F008         	goto	u7241
  4098  0010F4  EF7E  F008         	goto	u7240
  4099  0010F8                     u7241:
  4100  0010F8  EF7F  F008         	goto	l6811
  4101  0010FC                     u7240:
  4102  0010FC                     
  4103                           ; BSR set to: 1
  4104  0010FC  810A               	bsf	___fladd@bexp& (0+255),0,b
  4105  0010FE                     l6811:
  4106                           
  4107                           ; BSR set to: 1
  4108  0010FE  510A               	movf	___fladd@bexp& (0+255),w,b
  4109  001100  B4D8               	btfsc	status,2,c
  4110  001102  EF85  F008         	goto	u7251
  4111  001106  EF87  F008         	goto	u7250
  4112  00110A                     u7251:
  4113  00110A  EF9C  F008         	goto	l6821
  4114  00110E                     u7250:
  4115  00110E                     
  4116                           ; BSR set to: 1
  4117  00110E  290A               	incf	___fladd@bexp& (0+255),w,b
  4118  001110  A4D8               	btfss	status,2,c
  4119  001112  EF8D  F008         	goto	u7261
  4120  001116  EF8F  F008         	goto	u7260
  4121  00111A                     u7261:
  4122  00111A  EF97  F008         	goto	l6817
  4123  00111E                     u7260:
  4124  00111E                     
  4125                           ; BSR set to: 1
  4126  00111E  0E00               	movlw	0
  4127  001120  6F00               	movwf	___fladd@b& (0+255),b
  4128  001122  0E00               	movlw	0
  4129  001124  6F01               	movwf	(___fladd@b+1)& (0+255),b
  4130  001126  0E00               	movlw	0
  4131  001128  6F02               	movwf	(___fladd@b+2)& (0+255),b
  4132  00112A  0E00               	movlw	0
  4133  00112C  6F03               	movwf	(___fladd@b+3)& (0+255),b
  4134  00112E                     l6817:
  4135                           
  4136                           ; BSR set to: 1
  4137  00112E  8F02               	bsf	(___fladd@b+2)& (0+255),7,b
  4138  001130                     
  4139                           ; BSR set to: 1
  4140  001130  0E00               	movlw	0
  4141  001132  6F03               	movwf	(___fladd@b+3)& (0+255),b
  4142  001134  EFA4  F008         	goto	l6823
  4143  001138                     l6821:
  4144                           
  4145                           ; BSR set to: 1
  4146  001138  0E00               	movlw	0
  4147  00113A  6F00               	movwf	___fladd@b& (0+255),b
  4148  00113C  0E00               	movlw	0
  4149  00113E  6F01               	movwf	(___fladd@b+1)& (0+255),b
  4150  001140  0E00               	movlw	0
  4151  001142  6F02               	movwf	(___fladd@b+2)& (0+255),b
  4152  001144  0E00               	movlw	0
  4153  001146  6F03               	movwf	(___fladd@b+3)& (0+255),b
  4154  001148                     l6823:
  4155                           
  4156                           ; BSR set to: 1
  4157  001148  5107               	movf	(___fladd@a+3)& (0+255),w,b
  4158  00114A  0B80               	andlw	128
  4159  00114C  6F09               	movwf	___fladd@aexp& (0+255),b
  4160  00114E                     
  4161                           ; BSR set to: 1
  4162  00114E  5108               	movf	___fladd@signs& (0+255),w,b
  4163  001150  1909               	xorwf	___fladd@aexp& (0+255),w,b
  4164  001152  B4D8               	btfsc	status,2,c
  4165  001154  EFAE  F008         	goto	u7271
  4166  001158  EFB0  F008         	goto	u7270
  4167  00115C                     u7271:
  4168  00115C  EFB1  F008         	goto	l6829
  4169  001160                     u7270:
  4170  001160                     
  4171                           ; BSR set to: 1
  4172  001160  8D08               	bsf	___fladd@signs& (0+255),6,b
  4173  001162                     l6829:
  4174                           
  4175                           ; BSR set to: 1
  4176  001162  5107               	movf	(___fladd@a+3)& (0+255),w,b
  4177  001164  2507               	addwf	(___fladd@a+3)& (0+255),w,b
  4178  001166  6F09               	movwf	___fladd@aexp& (0+255),b
  4179  001168                     
  4180                           ; BSR set to: 1
  4181  001168  AF06               	btfss	(___fladd@a+2)& (0+255),7,b
  4182  00116A  EFB9  F008         	goto	u7281
  4183  00116E  EFBB  F008         	goto	u7280
  4184  001172                     u7281:
  4185  001172  EFBC  F008         	goto	l6835
  4186  001176                     u7280:
  4187  001176                     
  4188                           ; BSR set to: 1
  4189  001176  8109               	bsf	___fladd@aexp& (0+255),0,b
  4190  001178                     l6835:
  4191                           
  4192                           ; BSR set to: 1
  4193  001178  5109               	movf	___fladd@aexp& (0+255),w,b
  4194  00117A  B4D8               	btfsc	status,2,c
  4195  00117C  EFC2  F008         	goto	u7291
  4196  001180  EFC4  F008         	goto	u7290
  4197  001184                     u7291:
  4198  001184  EFD9  F008         	goto	l6845
  4199  001188                     u7290:
  4200  001188                     
  4201                           ; BSR set to: 1
  4202  001188  2909               	incf	___fladd@aexp& (0+255),w,b
  4203  00118A  A4D8               	btfss	status,2,c
  4204  00118C  EFCA  F008         	goto	u7301
  4205  001190  EFCC  F008         	goto	u7300
  4206  001194                     u7301:
  4207  001194  EFD4  F008         	goto	l6841
  4208  001198                     u7300:
  4209  001198                     
  4210                           ; BSR set to: 1
  4211  001198  0E00               	movlw	0
  4212  00119A  6F04               	movwf	___fladd@a& (0+255),b
  4213  00119C  0E00               	movlw	0
  4214  00119E  6F05               	movwf	(___fladd@a+1)& (0+255),b
  4215  0011A0  0E00               	movlw	0
  4216  0011A2  6F06               	movwf	(___fladd@a+2)& (0+255),b
  4217  0011A4  0E00               	movlw	0
  4218  0011A6  6F07               	movwf	(___fladd@a+3)& (0+255),b
  4219  0011A8                     l6841:
  4220                           
  4221                           ; BSR set to: 1
  4222  0011A8  8F06               	bsf	(___fladd@a+2)& (0+255),7,b
  4223  0011AA                     
  4224                           ; BSR set to: 1
  4225  0011AA  0E00               	movlw	0
  4226  0011AC  6F07               	movwf	(___fladd@a+3)& (0+255),b
  4227  0011AE  EFE1  F008         	goto	l6847
  4228  0011B2                     l6845:
  4229                           
  4230                           ; BSR set to: 1
  4231  0011B2  0E00               	movlw	0
  4232  0011B4  6F04               	movwf	___fladd@a& (0+255),b
  4233  0011B6  0E00               	movlw	0
  4234  0011B8  6F05               	movwf	(___fladd@a+1)& (0+255),b
  4235  0011BA  0E00               	movlw	0
  4236  0011BC  6F06               	movwf	(___fladd@a+2)& (0+255),b
  4237  0011BE  0E00               	movlw	0
  4238  0011C0  6F07               	movwf	(___fladd@a+3)& (0+255),b
  4239  0011C2                     l6847:
  4240                           
  4241                           ; BSR set to: 1
  4242  0011C2  510A               	movf	___fladd@bexp& (0+255),w,b
  4243  0011C4  5D09               	subwf	___fladd@aexp& (0+255),w,b
  4244  0011C6  B0D8               	btfsc	status,0,c
  4245  0011C8  EFE8  F008         	goto	u7311
  4246  0011CC  EFEA  F008         	goto	u7310
  4247  0011D0                     u7311:
  4248  0011D0  EF11  F009         	goto	l6883
  4249  0011D4                     u7310:
  4250  0011D4                     
  4251                           ; BSR set to: 1
  4252  0011D4  AD08               	btfss	___fladd@signs& (0+255),6,b
  4253  0011D6  EFEF  F008         	goto	u7321
  4254  0011DA  EFF1  F008         	goto	u7320
  4255  0011DE                     u7321:
  4256  0011DE  EFF3  F008         	goto	l6853
  4257  0011E2                     u7320:
  4258  0011E2                     
  4259                           ; BSR set to: 1
  4260  0011E2  0E80               	movlw	128
  4261  0011E4  1B08               	xorwf	___fladd@signs& (0+255),f,b
  4262  0011E6                     l6853:
  4263                           
  4264                           ; BSR set to: 1
  4265  0011E6  C10A  F10B         	movff	___fladd@bexp,___fladd@grs
  4266  0011EA                     
  4267                           ; BSR set to: 1
  4268  0011EA  C109  F10A         	movff	___fladd@aexp,___fladd@bexp
  4269  0011EE                     
  4270                           ; BSR set to: 1
  4271  0011EE  C10B  F109         	movff	___fladd@grs,___fladd@aexp
  4272  0011F2                     
  4273                           ; BSR set to: 1
  4274  0011F2  C100  F10B         	movff	___fladd@b,___fladd@grs
  4275  0011F6                     
  4276                           ; BSR set to: 1
  4277  0011F6  C104  F100         	movff	___fladd@a,___fladd@b
  4278  0011FA                     
  4279                           ; BSR set to: 1
  4280  0011FA  C10B  F104         	movff	___fladd@grs,___fladd@a
  4281  0011FE                     
  4282                           ; BSR set to: 1
  4283  0011FE  C101  F10B         	movff	___fladd@b+1,___fladd@grs
  4284  001202                     
  4285                           ; BSR set to: 1
  4286  001202  C105  F101         	movff	___fladd@a+1,___fladd@b+1
  4287  001206                     
  4288                           ; BSR set to: 1
  4289  001206  C10B  F105         	movff	___fladd@grs,___fladd@a+1
  4290  00120A                     
  4291                           ; BSR set to: 1
  4292  00120A  C102  F10B         	movff	___fladd@b+2,___fladd@grs
  4293  00120E                     
  4294                           ; BSR set to: 1
  4295  00120E  C106  F102         	movff	___fladd@a+2,___fladd@b+2
  4296  001212                     
  4297                           ; BSR set to: 1
  4298  001212  C10B  F106         	movff	___fladd@grs,___fladd@a+2
  4299  001216                     
  4300                           ; BSR set to: 1
  4301  001216  C103  F10B         	movff	___fladd@b+3,___fladd@grs
  4302  00121A                     
  4303                           ; BSR set to: 1
  4304  00121A  C107  F103         	movff	___fladd@a+3,___fladd@b+3
  4305  00121E                     
  4306                           ; BSR set to: 1
  4307  00121E  C10B  F107         	movff	___fladd@grs,___fladd@a+3
  4308  001222                     l6883:
  4309                           
  4310                           ; BSR set to: 1
  4311  001222  0E00               	movlw	0
  4312  001224  6F0B               	movwf	___fladd@grs& (0+255),b
  4313  001226                     
  4314                           ; BSR set to: 1
  4315  001226  510A               	movf	___fladd@bexp& (0+255),w,b
  4316  001228  C109  F0A7         	movff	___fladd@aexp,??___fladd
  4317  00122C  0100               	movlb	0	; () banked
  4318  00122E  6BA8               	clrf	(??___fladd+1)& (0+255),b
  4319  001230  5FA7               	subwf	??___fladd& (0+255),f,b
  4320  001232  0E00               	movlw	0
  4321  001234  5BA8               	subwfb	(??___fladd+1)& (0+255),f,b
  4322  001236  BFA8               	btfsc	(??___fladd+1)& (0+255),7,b
  4323  001238  EF27  F009         	goto	u7331
  4324  00123C  51A8               	movf	(??___fladd+1)& (0+255),w,b
  4325  00123E  E109               	bnz	u7330
  4326  001240  0E1A               	movlw	26
  4327  001242  5DA7               	subwf	??___fladd& (0+255),w,b
  4328  001244  A0D8               	btfss	status,0,c
  4329  001246  EF27  F009         	goto	u7331
  4330  00124A  EF29  F009         	goto	u7330
  4331  00124E                     u7331:
  4332  00124E  EF61  F009         	goto	l1802
  4333  001252                     u7330:
  4334  001252                     
  4335                           ; BSR set to: 0
  4336  001252  0101               	movlb	1	; () banked
  4337  001254  5100               	movf	___fladd@b& (0+255),w,b
  4338  001256  1101               	iorwf	(___fladd@b+1)& (0+255),w,b
  4339  001258  1102               	iorwf	(___fladd@b+2)& (0+255),w,b
  4340  00125A  1103               	iorwf	(___fladd@b+3)& (0+255),w,b
  4341  00125C  A4D8               	btfss	status,2,c
  4342  00125E  EF33  F009         	goto	u7341
  4343  001262  EF36  F009         	goto	u7340
  4344  001266                     u7341:
  4345  001266  0E01               	movlw	1
  4346  001268  EF37  F009         	goto	u7350
  4347  00126C                     u7340:
  4348  00126C  0E00               	movlw	0
  4349  00126E                     u7350:
  4350  00126E  6F0B               	movwf	___fladd@grs& (0+255),b
  4351  001270                     
  4352                           ; BSR set to: 1
  4353  001270  0E00               	movlw	0
  4354  001272  6F00               	movwf	___fladd@b& (0+255),b
  4355  001274  0E00               	movlw	0
  4356  001276  6F01               	movwf	(___fladd@b+1)& (0+255),b
  4357  001278  0E00               	movlw	0
  4358  00127A  6F02               	movwf	(___fladd@b+2)& (0+255),b
  4359  00127C  0E00               	movlw	0
  4360  00127E  6F03               	movwf	(___fladd@b+3)& (0+255),b
  4361  001280                     
  4362                           ; BSR set to: 1
  4363  001280  C109  F10A         	movff	___fladd@aexp,___fladd@bexp
  4364  001284  EF6B  F009         	goto	l1801
  4365  001288                     l1803:
  4366                           
  4367                           ; BSR set to: 1
  4368  001288  A10B               	btfss	___fladd@grs& (0+255),0,b
  4369  00128A  EF49  F009         	goto	u7361
  4370  00128E  EF4B  F009         	goto	u7360
  4371  001292                     u7361:
  4372  001292  EF51  F009         	goto	l6895
  4373  001296                     u7360:
  4374  001296                     
  4375                           ; BSR set to: 1
  4376  001296  90D8               	bcf	status,0,c
  4377  001298  310B               	rrcf	___fladd@grs& (0+255),w,b
  4378  00129A  0901               	iorlw	1
  4379  00129C  6F0B               	movwf	___fladd@grs& (0+255),b
  4380  00129E  EF53  F009         	goto	l6897
  4381  0012A2                     l6895:
  4382                           
  4383                           ; BSR set to: 1
  4384  0012A2  90D8               	bcf	status,0,c
  4385  0012A4  330B               	rrcf	___fladd@grs& (0+255),f,b
  4386  0012A6                     l6897:
  4387                           
  4388                           ; BSR set to: 1
  4389  0012A6  A100               	btfss	___fladd@b& (0+255),0,b
  4390  0012A8  EF58  F009         	goto	u7371
  4391  0012AC  EF5A  F009         	goto	u7370
  4392  0012B0                     u7371:
  4393  0012B0  EF5B  F009         	goto	l6901
  4394  0012B4                     u7370:
  4395  0012B4                     
  4396                           ; BSR set to: 1
  4397  0012B4  8F0B               	bsf	___fladd@grs& (0+255),7,b
  4398  0012B6                     l6901:
  4399                           
  4400                           ; BSR set to: 1
  4401  0012B6  3503               	rlcf	(___fladd@b+3)& (0+255),w,b
  4402  0012B8  3303               	rrcf	(___fladd@b+3)& (0+255),f,b
  4403  0012BA  3302               	rrcf	(___fladd@b+2)& (0+255),f,b
  4404  0012BC  3301               	rrcf	(___fladd@b+1)& (0+255),f,b
  4405  0012BE  3300               	rrcf	___fladd@b& (0+255),f,b
  4406  0012C0                     
  4407                           ; BSR set to: 1
  4408  0012C0  2B0A               	incf	___fladd@bexp& (0+255),f,b
  4409  0012C2                     l1802:
  4410  0012C2  0101               	movlb	1	; () banked
  4411  0012C4  5109               	movf	___fladd@aexp& (0+255),w,b
  4412  0012C6  5D0A               	subwf	___fladd@bexp& (0+255),w,b
  4413  0012C8  A0D8               	btfss	status,0,c
  4414  0012CA  EF69  F009         	goto	u7381
  4415  0012CE  EF6B  F009         	goto	u7380
  4416  0012D2                     u7381:
  4417  0012D2  EF44  F009         	goto	l1803
  4418  0012D6                     u7380:
  4419  0012D6                     l1801:
  4420                           
  4421                           ; BSR set to: 1
  4422  0012D6  BD08               	btfsc	___fladd@signs& (0+255),6,b
  4423  0012D8  EF70  F009         	goto	u7391
  4424  0012DC  EF72  F009         	goto	u7390
  4425  0012E0                     u7391:
  4426  0012E0  EFB2  F009         	goto	l6929
  4427  0012E4                     u7390:
  4428  0012E4                     
  4429                           ; BSR set to: 1
  4430  0012E4  510A               	movf	___fladd@bexp& (0+255),w,b
  4431  0012E6  A4D8               	btfss	status,2,c
  4432  0012E8  EF78  F009         	goto	u7401
  4433  0012EC  EF7A  F009         	goto	u7400
  4434  0012F0                     u7401:
  4435  0012F0  EF84  F009         	goto	l6911
  4436  0012F4                     u7400:
  4437  0012F4                     
  4438                           ; BSR set to: 1
  4439  0012F4  0E00               	movlw	0
  4440  0012F6  6F00               	movwf	?___fladd& (0+255),b
  4441  0012F8  0E00               	movlw	0
  4442  0012FA  6F01               	movwf	(?___fladd+1)& (0+255),b
  4443  0012FC  0E00               	movlw	0
  4444  0012FE  6F02               	movwf	(?___fladd+2)& (0+255),b
  4445  001300  0E00               	movlw	0
  4446  001302  6F03               	movwf	(?___fladd+3)& (0+255),b
  4447  001304  EFEB  F00A         	goto	l1810
  4448  001308                     l6911:
  4449                           
  4450                           ; BSR set to: 1
  4451  001308  5104               	movf	___fladd@a& (0+255),w,b
  4452  00130A  2700               	addwf	___fladd@b& (0+255),f,b
  4453  00130C  5105               	movf	(___fladd@a+1)& (0+255),w,b
  4454  00130E  2301               	addwfc	(___fladd@b+1)& (0+255),f,b
  4455  001310  5106               	movf	(___fladd@a+2)& (0+255),w,b
  4456  001312  2302               	addwfc	(___fladd@b+2)& (0+255),f,b
  4457  001314  5107               	movf	(___fladd@a+3)& (0+255),w,b
  4458  001316  2303               	addwfc	(___fladd@b+3)& (0+255),f,b
  4459  001318                     
  4460                           ; BSR set to: 1
  4461  001318  A103               	btfss	(___fladd@b+3)& (0+255),0,b
  4462  00131A  EF91  F009         	goto	u7411
  4463  00131E  EF93  F009         	goto	u7410
  4464  001322                     u7411:
  4465  001322  EF52  F00A         	goto	l6965
  4466  001326                     u7410:
  4467  001326                     
  4468                           ; BSR set to: 1
  4469  001326  A10B               	btfss	___fladd@grs& (0+255),0,b
  4470  001328  EF98  F009         	goto	u7421
  4471  00132C  EF9A  F009         	goto	u7420
  4472  001330                     u7421:
  4473  001330  EFA0  F009         	goto	l6919
  4474  001334                     u7420:
  4475  001334                     
  4476                           ; BSR set to: 1
  4477  001334  90D8               	bcf	status,0,c
  4478  001336  310B               	rrcf	___fladd@grs& (0+255),w,b
  4479  001338  0901               	iorlw	1
  4480  00133A  6F0B               	movwf	___fladd@grs& (0+255),b
  4481  00133C  EFA2  F009         	goto	l6921
  4482  001340                     l6919:
  4483                           
  4484                           ; BSR set to: 1
  4485  001340  90D8               	bcf	status,0,c
  4486  001342  330B               	rrcf	___fladd@grs& (0+255),f,b
  4487  001344                     l6921:
  4488                           
  4489                           ; BSR set to: 1
  4490  001344  A100               	btfss	___fladd@b& (0+255),0,b
  4491  001346  EFA7  F009         	goto	u7431
  4492  00134A  EFA9  F009         	goto	u7430
  4493  00134E                     u7431:
  4494  00134E  EFAA  F009         	goto	l6925
  4495  001352                     u7430:
  4496  001352                     
  4497                           ; BSR set to: 1
  4498  001352  8F0B               	bsf	___fladd@grs& (0+255),7,b
  4499  001354                     l6925:
  4500                           
  4501                           ; BSR set to: 1
  4502  001354  3503               	rlcf	(___fladd@b+3)& (0+255),w,b
  4503  001356  3303               	rrcf	(___fladd@b+3)& (0+255),f,b
  4504  001358  3302               	rrcf	(___fladd@b+2)& (0+255),f,b
  4505  00135A  3301               	rrcf	(___fladd@b+1)& (0+255),f,b
  4506  00135C  3300               	rrcf	___fladd@b& (0+255),f,b
  4507  00135E                     
  4508                           ; BSR set to: 1
  4509  00135E  2B0A               	incf	___fladd@bexp& (0+255),f,b
  4510  001360  EF52  F00A         	goto	l6965
  4511  001364                     l6929:
  4512                           
  4513                           ; BSR set to: 1
  4514  001364  5104               	movf	___fladd@a& (0+255),w,b
  4515  001366  5D00               	subwf	___fladd@b& (0+255),w,b
  4516  001368  5105               	movf	(___fladd@a+1)& (0+255),w,b
  4517  00136A  5901               	subwfb	(___fladd@b+1)& (0+255),w,b
  4518  00136C  5106               	movf	(___fladd@a+2)& (0+255),w,b
  4519  00136E  5902               	subwfb	(___fladd@b+2)& (0+255),w,b
  4520  001370  5103               	movf	(___fladd@b+3)& (0+255),w,b
  4521  001372  0A80               	xorlw	128
  4522  001374  0100               	movlb	0	; () banked
  4523  001376  6FA7               	movwf	??___fladd& (0+255),b
  4524  001378  0101               	movlb	1	; () banked
  4525  00137A  5107               	movf	(___fladd@a+3)& (0+255),w,b
  4526  00137C  0A80               	xorlw	128
  4527  00137E  0100               	movlb	0	; () banked
  4528  001380  59A7               	subwfb	??___fladd& (0+255),w,b
  4529  001382  B0D8               	btfsc	status,0,c
  4530  001384  EFC6  F009         	goto	u7441
  4531  001388  EFC8  F009         	goto	u7440
  4532  00138C                     u7441:
  4533  00138C  EF02  F00A         	goto	l6939
  4534  001390                     u7440:
  4535  001390                     
  4536                           ; BSR set to: 0
  4537  001390  0101               	movlb	1	; () banked
  4538  001392  5100               	movf	___fladd@b& (0+255),w,b
  4539  001394  5D04               	subwf	___fladd@a& (0+255),w,b
  4540  001396  0100               	movlb	0	; () banked
  4541  001398  6FA7               	movwf	??___fladd& (0+255),b
  4542  00139A  0101               	movlb	1	; () banked
  4543  00139C  5101               	movf	(___fladd@b+1)& (0+255),w,b
  4544  00139E  5905               	subwfb	(___fladd@a+1)& (0+255),w,b
  4545  0013A0  0100               	movlb	0	; () banked
  4546  0013A2  6FA8               	movwf	(??___fladd+1)& (0+255),b
  4547  0013A4  0101               	movlb	1	; () banked
  4548  0013A6  5102               	movf	(___fladd@b+2)& (0+255),w,b
  4549  0013A8  5906               	subwfb	(___fladd@a+2)& (0+255),w,b
  4550  0013AA  0100               	movlb	0	; () banked
  4551  0013AC  6FA9               	movwf	(??___fladd+2)& (0+255),b
  4552  0013AE  0101               	movlb	1	; () banked
  4553  0013B0  5103               	movf	(___fladd@b+3)& (0+255),w,b
  4554  0013B2  5907               	subwfb	(___fladd@a+3)& (0+255),w,b
  4555  0013B4  0100               	movlb	0	; () banked
  4556  0013B6  6FAA               	movwf	(??___fladd+3)& (0+255),b
  4557  0013B8  0EFF               	movlw	255
  4558  0013BA  25A7               	addwf	??___fladd& (0+255),w,b
  4559  0013BC  0101               	movlb	1	; () banked
  4560  0013BE  6F00               	movwf	___fladd@b& (0+255),b
  4561  0013C0  0EFF               	movlw	255
  4562  0013C2  0100               	movlb	0	; () banked
  4563  0013C4  21A8               	addwfc	(??___fladd+1)& (0+255),w,b
  4564  0013C6  0101               	movlb	1	; () banked
  4565  0013C8  6F01               	movwf	(___fladd@b+1)& (0+255),b
  4566  0013CA  0EFF               	movlw	255
  4567  0013CC  0100               	movlb	0	; () banked
  4568  0013CE  21A9               	addwfc	(??___fladd+2)& (0+255),w,b
  4569  0013D0  0101               	movlb	1	; () banked
  4570  0013D2  6F02               	movwf	(___fladd@b+2)& (0+255),b
  4571  0013D4  0EFF               	movlw	255
  4572  0013D6  0100               	movlb	0	; () banked
  4573  0013D8  21AA               	addwfc	(??___fladd+3)& (0+255),w,b
  4574  0013DA  0101               	movlb	1	; () banked
  4575  0013DC  6F03               	movwf	(___fladd@b+3)& (0+255),b
  4576  0013DE  0E80               	movlw	128
  4577  0013E0  1B08               	xorwf	___fladd@signs& (0+255),f,b
  4578  0013E2                     
  4579                           ; BSR set to: 1
  4580  0013E2  6D0B               	negf	___fladd@grs& (0+255),b
  4581  0013E4                     
  4582                           ; BSR set to: 1
  4583  0013E4  510B               	movf	___fladd@grs& (0+255),w,b
  4584  0013E6  A4D8               	btfss	status,2,c
  4585  0013E8  EFF8  F009         	goto	u7451
  4586  0013EC  EFFA  F009         	goto	u7450
  4587  0013F0                     u7451:
  4588  0013F0  EF0B  F00A         	goto	l1818
  4589  0013F4                     u7450:
  4590  0013F4                     
  4591                           ; BSR set to: 1
  4592  0013F4  0E01               	movlw	1
  4593  0013F6  2700               	addwf	___fladd@b& (0+255),f,b
  4594  0013F8  0E00               	movlw	0
  4595  0013FA  2301               	addwfc	(___fladd@b+1)& (0+255),f,b
  4596  0013FC  2302               	addwfc	(___fladd@b+2)& (0+255),f,b
  4597  0013FE  2303               	addwfc	(___fladd@b+3)& (0+255),f,b
  4598  001400  EF0B  F00A         	goto	l1818
  4599  001404                     l6939:
  4600                           
  4601                           ; BSR set to: 0
  4602  001404  0101               	movlb	1	; () banked
  4603  001406  5104               	movf	___fladd@a& (0+255),w,b
  4604  001408  5F00               	subwf	___fladd@b& (0+255),f,b
  4605  00140A  5105               	movf	(___fladd@a+1)& (0+255),w,b
  4606  00140C  5B01               	subwfb	(___fladd@b+1)& (0+255),f,b
  4607  00140E  5106               	movf	(___fladd@a+2)& (0+255),w,b
  4608  001410  5B02               	subwfb	(___fladd@b+2)& (0+255),f,b
  4609  001412  5107               	movf	(___fladd@a+3)& (0+255),w,b
  4610  001414  5B03               	subwfb	(___fladd@b+3)& (0+255),f,b
  4611  001416                     l1818:
  4612                           
  4613                           ; BSR set to: 1
  4614  001416  5100               	movf	___fladd@b& (0+255),w,b
  4615  001418  1101               	iorwf	(___fladd@b+1)& (0+255),w,b
  4616  00141A  1102               	iorwf	(___fladd@b+2)& (0+255),w,b
  4617  00141C  1103               	iorwf	(___fladd@b+3)& (0+255),w,b
  4618  00141E  A4D8               	btfss	status,2,c
  4619  001420  EF14  F00A         	goto	u7461
  4620  001424  EF16  F00A         	goto	u7460
  4621  001428                     u7461:
  4622  001428  EF4B  F00A         	goto	l6963
  4623  00142C                     u7460:
  4624  00142C                     
  4625                           ; BSR set to: 1
  4626  00142C  510B               	movf	___fladd@grs& (0+255),w,b
  4627  00142E  A4D8               	btfss	status,2,c
  4628  001430  EF1C  F00A         	goto	u7471
  4629  001434  EF1E  F00A         	goto	u7470
  4630  001438                     u7471:
  4631  001438  EF4B  F00A         	goto	l6963
  4632  00143C                     u7470:
  4633  00143C                     
  4634                           ; BSR set to: 1
  4635  00143C  0E00               	movlw	0
  4636  00143E  6F00               	movwf	?___fladd& (0+255),b
  4637  001440  0E00               	movlw	0
  4638  001442  6F01               	movwf	(?___fladd+1)& (0+255),b
  4639  001444  0E00               	movlw	0
  4640  001446  6F02               	movwf	(?___fladd+2)& (0+255),b
  4641  001448  0E00               	movlw	0
  4642  00144A  6F03               	movwf	(?___fladd+3)& (0+255),b
  4643  00144C  EFEB  F00A         	goto	l1810
  4644  001450                     l6947:
  4645                           
  4646                           ; BSR set to: 1
  4647  001450  90D8               	bcf	status,0,c
  4648  001452  3700               	rlcf	___fladd@b& (0+255),f,b
  4649  001454  3701               	rlcf	(___fladd@b+1)& (0+255),f,b
  4650  001456  3702               	rlcf	(___fladd@b+2)& (0+255),f,b
  4651  001458  3703               	rlcf	(___fladd@b+3)& (0+255),f,b
  4652  00145A                     
  4653                           ; BSR set to: 1
  4654  00145A  AF0B               	btfss	___fladd@grs& (0+255),7,b
  4655  00145C  EF32  F00A         	goto	u7481
  4656  001460  EF34  F00A         	goto	u7480
  4657  001464                     u7481:
  4658  001464  EF35  F00A         	goto	l6953
  4659  001468                     u7480:
  4660  001468                     
  4661                           ; BSR set to: 1
  4662  001468  8100               	bsf	___fladd@b& (0+255),0,b
  4663  00146A                     l6953:
  4664                           
  4665                           ; BSR set to: 1
  4666  00146A  A10B               	btfss	___fladd@grs& (0+255),0,b
  4667  00146C  EF3A  F00A         	goto	u7491
  4668  001470  EF3C  F00A         	goto	u7490
  4669  001474                     u7491:
  4670  001474  EF40  F00A         	goto	l6957
  4671  001478                     u7490:
  4672  001478                     
  4673                           ; BSR set to: 1
  4674  001478  80D8               	bsf	status,0,c
  4675  00147A  370B               	rlcf	___fladd@grs& (0+255),f,b
  4676  00147C  EF42  F00A         	goto	l6959
  4677  001480                     l6957:
  4678                           
  4679                           ; BSR set to: 1
  4680  001480  90D8               	bcf	status,0,c
  4681  001482  370B               	rlcf	___fladd@grs& (0+255),f,b
  4682  001484                     l6959:
  4683                           
  4684                           ; BSR set to: 1
  4685  001484  510A               	movf	___fladd@bexp& (0+255),w,b
  4686  001486  B4D8               	btfsc	status,2,c
  4687  001488  EF48  F00A         	goto	u7501
  4688  00148C  EF4A  F00A         	goto	u7500
  4689  001490                     u7501:
  4690  001490  EF4B  F00A         	goto	l6963
  4691  001494                     u7500:
  4692  001494                     
  4693                           ; BSR set to: 1
  4694  001494  070A               	decf	___fladd@bexp& (0+255),f,b
  4695  001496                     l6963:
  4696                           
  4697                           ; BSR set to: 1
  4698  001496  AF02               	btfss	(___fladd@b+2)& (0+255),7,b
  4699  001498  EF50  F00A         	goto	u7511
  4700  00149C  EF52  F00A         	goto	u7510
  4701  0014A0                     u7511:
  4702  0014A0  EF28  F00A         	goto	l6947
  4703  0014A4                     u7510:
  4704  0014A4                     l6965:
  4705                           
  4706                           ; BSR set to: 1
  4707  0014A4  0E00               	movlw	0
  4708  0014A6  6F09               	movwf	___fladd@aexp& (0+255),b
  4709  0014A8                     
  4710                           ; BSR set to: 1
  4711  0014A8  AF0B               	btfss	___fladd@grs& (0+255),7,b
  4712  0014AA  EF59  F00A         	goto	u7521
  4713  0014AE  EF5B  F00A         	goto	u7520
  4714  0014B2                     u7521:
  4715  0014B2  EF76  F00A         	goto	l1827
  4716  0014B6                     u7520:
  4717  0014B6                     
  4718                           ; BSR set to: 1
  4719  0014B6  C10B  F0A7         	movff	___fladd@grs,??___fladd
  4720  0014BA  0E7F               	movlw	127
  4721  0014BC  0100               	movlb	0	; () banked
  4722  0014BE  17A7               	andwf	??___fladd& (0+255),f,b
  4723  0014C0  B4D8               	btfsc	status,2,c
  4724  0014C2  EF65  F00A         	goto	u7531
  4725  0014C6  EF67  F00A         	goto	u7530
  4726  0014CA                     u7531:
  4727  0014CA  EF6C  F00A         	goto	l1828
  4728  0014CE                     u7530:
  4729  0014CE                     l6971:
  4730  0014CE  0E01               	movlw	1
  4731  0014D0  0101               	movlb	1	; () banked
  4732  0014D2  6F09               	movwf	___fladd@aexp& (0+255),b
  4733  0014D4  EF76  F00A         	goto	l1827
  4734  0014D8                     l1828:
  4735                           
  4736                           ; BSR set to: 0
  4737  0014D8  0101               	movlb	1	; () banked
  4738  0014DA  A100               	btfss	___fladd@b& (0+255),0,b
  4739  0014DC  EF72  F00A         	goto	u7541
  4740  0014E0  EF74  F00A         	goto	u7540
  4741  0014E4                     u7541:
  4742  0014E4  EF76  F00A         	goto	l1827
  4743  0014E8                     u7540:
  4744  0014E8  EF67  F00A         	goto	l6971
  4745  0014EC                     l1827:
  4746                           
  4747                           ; BSR set to: 1
  4748  0014EC  5109               	movf	___fladd@aexp& (0+255),w,b
  4749  0014EE  B4D8               	btfsc	status,2,c
  4750  0014F0  EF7C  F00A         	goto	u7551
  4751  0014F4  EF7E  F00A         	goto	u7550
  4752  0014F8                     u7551:
  4753  0014F8  EFAB  F00A         	goto	l6983
  4754  0014FC                     u7550:
  4755  0014FC                     
  4756                           ; BSR set to: 1
  4757  0014FC  0E01               	movlw	1
  4758  0014FE  2700               	addwf	___fladd@b& (0+255),f,b
  4759  001500  0E00               	movlw	0
  4760  001502  2301               	addwfc	(___fladd@b+1)& (0+255),f,b
  4761  001504  2302               	addwfc	(___fladd@b+2)& (0+255),f,b
  4762  001506  2303               	addwfc	(___fladd@b+3)& (0+255),f,b
  4763  001508                     
  4764                           ; BSR set to: 1
  4765  001508  A103               	btfss	(___fladd@b+3)& (0+255),0,b
  4766  00150A  EF89  F00A         	goto	u7561
  4767  00150E  EF8B  F00A         	goto	u7560
  4768  001512                     u7561:
  4769  001512  EFAB  F00A         	goto	l6983
  4770  001516                     u7560:
  4771  001516                     
  4772                           ; BSR set to: 1
  4773  001516  C100  F0A7         	movff	___fladd@b,??___fladd
  4774  00151A  C101  F0A8         	movff	___fladd@b+1,??___fladd+1
  4775  00151E  C102  F0A9         	movff	___fladd@b+2,??___fladd+2
  4776  001522  C103  F0AA         	movff	___fladd@b+3,??___fladd+3
  4777  001526  0100               	movlb	0	; () banked
  4778  001528  35AA               	rlcf	(??___fladd+3)& (0+255),w,b
  4779  00152A  33AA               	rrcf	(??___fladd+3)& (0+255),f,b
  4780  00152C  33A9               	rrcf	(??___fladd+2)& (0+255),f,b
  4781  00152E  33A8               	rrcf	(??___fladd+1)& (0+255),f,b
  4782  001530  33A7               	rrcf	??___fladd& (0+255),f,b
  4783  001532  C0A7  F100         	movff	??___fladd,___fladd@b
  4784  001536  C0A8  F101         	movff	??___fladd+1,___fladd@b+1
  4785  00153A  C0A9  F102         	movff	??___fladd+2,___fladd@b+2
  4786  00153E  C0AA  F103         	movff	??___fladd+3,___fladd@b+3
  4787  001542  0101               	movlb	1	; () banked
  4788  001544  290A               	incf	___fladd@bexp& (0+255),w,b
  4789  001546  B4D8               	btfsc	status,2,c
  4790  001548  EFA8  F00A         	goto	u7571
  4791  00154C  EFAA  F00A         	goto	u7570
  4792  001550                     u7571:
  4793  001550  EFAB  F00A         	goto	l6983
  4794  001554                     u7570:
  4795  001554                     
  4796                           ; BSR set to: 1
  4797  001554  2B0A               	incf	___fladd@bexp& (0+255),f,b
  4798  001556                     l6983:
  4799                           
  4800                           ; BSR set to: 1
  4801  001556  290A               	incf	___fladd@bexp& (0+255),w,b
  4802  001558  B4D8               	btfsc	status,2,c
  4803  00155A  EFB1  F00A         	goto	u7581
  4804  00155E  EFB3  F00A         	goto	u7580
  4805  001562                     u7581:
  4806  001562  EFBB  F00A         	goto	l6987
  4807  001566                     u7580:
  4808  001566                     
  4809                           ; BSR set to: 1
  4810  001566  510A               	movf	___fladd@bexp& (0+255),w,b
  4811  001568  A4D8               	btfss	status,2,c
  4812  00156A  EFB9  F00A         	goto	u7591
  4813  00156E  EFBB  F00A         	goto	u7590
  4814  001572                     u7591:
  4815  001572  EFCD  F00A         	goto	l6991
  4816  001576                     u7590:
  4817  001576                     l6987:
  4818                           
  4819                           ; BSR set to: 1
  4820  001576  0E00               	movlw	0
  4821  001578  6F00               	movwf	___fladd@b& (0+255),b
  4822  00157A  0E00               	movlw	0
  4823  00157C  6F01               	movwf	(___fladd@b+1)& (0+255),b
  4824  00157E  0E00               	movlw	0
  4825  001580  6F02               	movwf	(___fladd@b+2)& (0+255),b
  4826  001582  0E00               	movlw	0
  4827  001584  6F03               	movwf	(___fladd@b+3)& (0+255),b
  4828  001586  510A               	movf	___fladd@bexp& (0+255),w,b
  4829  001588  A4D8               	btfss	status,2,c
  4830  00158A  EFC9  F00A         	goto	u7601
  4831  00158E  EFCB  F00A         	goto	u7600
  4832  001592                     u7601:
  4833  001592  EFCD  F00A         	goto	l6991
  4834  001596                     u7600:
  4835  001596                     
  4836                           ; BSR set to: 1
  4837  001596  0E00               	movlw	0
  4838  001598  6F08               	movwf	___fladd@signs& (0+255),b
  4839  00159A                     l6991:
  4840                           
  4841                           ; BSR set to: 1
  4842  00159A  A10A               	btfss	___fladd@bexp& (0+255),0,b
  4843  00159C  EFD2  F00A         	goto	u7611
  4844  0015A0  EFD4  F00A         	goto	u7610
  4845  0015A4                     u7611:
  4846  0015A4  EFD7  F00A         	goto	l6995
  4847  0015A8                     u7610:
  4848  0015A8                     
  4849                           ; BSR set to: 1
  4850  0015A8  8F02               	bsf	(___fladd@b+2)& (0+255),7,b
  4851  0015AA  EFD8  F00A         	goto	l6997
  4852  0015AE                     l6995:
  4853                           
  4854                           ; BSR set to: 1
  4855  0015AE  9F02               	bcf	(___fladd@b+2)& (0+255),7,b
  4856  0015B0                     l6997:
  4857                           
  4858                           ; BSR set to: 1
  4859  0015B0  90D8               	bcf	status,0,c
  4860  0015B2  310A               	rrcf	___fladd@bexp& (0+255),w,b
  4861  0015B4  6F03               	movwf	(___fladd@b+3)& (0+255),b
  4862  0015B6                     
  4863                           ; BSR set to: 1
  4864  0015B6  AF08               	btfss	___fladd@signs& (0+255),7,b
  4865  0015B8  EFE0  F00A         	goto	u7621
  4866  0015BC  EFE2  F00A         	goto	u7620
  4867  0015C0                     u7621:
  4868  0015C0  EFE3  F00A         	goto	l7003
  4869  0015C4                     u7620:
  4870  0015C4                     
  4871                           ; BSR set to: 1
  4872  0015C4  8F03               	bsf	(___fladd@b+3)& (0+255),7,b
  4873  0015C6                     l7003:
  4874                           
  4875                           ; BSR set to: 1
  4876  0015C6  C100  F100         	movff	___fladd@b,?___fladd
  4877  0015CA  C101  F101         	movff	___fladd@b+1,?___fladd+1
  4878  0015CE  C102  F102         	movff	___fladd@b+2,?___fladd+2
  4879  0015D2  C103  F103         	movff	___fladd@b+3,?___fladd+3
  4880  0015D6                     l1810:
  4881                           
  4882                           ; BSR set to: 1
  4883  0015D6  0012               	return		;funcret
  4884  0015D8                     __end_of___fladd:
  4885                           	callstack 0
  4886                           
  4887 ;; *************** function _async_Tx_config *****************
  4888 ;; Defined at:
  4889 ;;		line 386 in file "MCAL/EUSART/mcal_EUSART.c"
  4890 ;; Parameters:    Size  Location     Type
  4891 ;;  _tx_obj         2   41[COMRAM] PTR const struct .
  4892 ;;		 -> _uart_obj(12), 
  4893 ;; Auto vars:     Size  Location     Type
  4894 ;;  ret_val         1   43[COMRAM] unsigned char 
  4895 ;; Return value:  Size  Location     Type
  4896 ;;                  1    wreg      unsigned char 
  4897 ;; Registers used:
  4898 ;;		wreg, fsr2l, fsr2h, status,2, status,0
  4899 ;; Tracked objects:
  4900 ;;		On entry : 0/0
  4901 ;;		On exit  : 0/0
  4902 ;;		Unchanged: 0/0
  4903 ;; Data sizes:     COMRAM   BANK0   BANK1   BANK2   BANK3   BANK4   BANK5   BANK6   BANK7   BANK8   BANK9  BANK10  BANK1
      +1  BANK12  BANK13  BANK14  BANK15
  4904 ;;      Params:         2       0       0       0       0       0       0       0       0       0       0       0       
      +0       0       0       0       0
  4905 ;;      Locals:         1       0       0       0       0       0       0       0       0       0       0       0       
      +0       0       0       0       0
  4906 ;;      Temps:          0       0       0       0       0       0       0       0       0       0       0       0       
      +0       0       0       0       0
  4907 ;;      Totals:         3       0       0       0       0       0       0       0       0       0       0       0       
      +0       0       0       0       0
  4908 ;;Total ram usage:        3 bytes
  4909 ;; Hardware stack levels used:    1
  4910 ;; Hardware stack levels required when called:   10
  4911 ;; This function calls:
  4912 ;;		Nothing
  4913 ;; This function is called by:
  4914 ;;		_EUSART_Async_Init
  4915 ;; This function uses a non-reentrant model
  4916 ;;
  4917                           
  4918                           	psect	text11
  4919  0033EE                     __ptext11:
  4920                           	callstack 0
  4921  0033EE                     _async_Tx_config:
  4922                           	callstack 18
  4923  0033EE                     
  4924                           ;MCAL/EUSART/mcal_EUSART.c: 386: static Std_ReturnType async_Tx_config(const uart_tx_con
      +                          fig_st *_tx_obj );MCAL/EUSART/mcal_EUSART.c: 387: {;MCAL/EUSART/mcal_EUSART.c: 388:     
      +                          Std_ReturnType ret_val = (Std_returnType) 0x01 ;
  4925  0033EE  0E01               	movlw	1
  4926  0033F0  6E2C               	movwf	async_Tx_config@ret_val^0,c
  4927  0033F2                     
  4928                           ;MCAL/EUSART/mcal_EUSART.c: 390:     if(((void*)0) == _tx_obj)
  4929  0033F2  502A               	movf	async_Tx_config@_tx_obj^0,w,c
  4930  0033F4  102B               	iorwf	(async_Tx_config@_tx_obj+1)^0,w,c
  4931  0033F6  A4D8               	btfss	status,2,c
  4932  0033F8  EF00  F01A         	goto	u8221
  4933  0033FC  EF02  F01A         	goto	u8220
  4934  003400                     u8221:
  4935  003400  EF06  F01A         	goto	l7389
  4936  003404                     u8220:
  4937  003404                     
  4938                           ;MCAL/EUSART/mcal_EUSART.c: 391:     {;MCAL/EUSART/mcal_EUSART.c: 392:         ret_val =
      +                           (Std_returnType) 0x00 ;
  4939  003404  0E00               	movlw	0
  4940  003406  6E2C               	movwf	async_Tx_config@ret_val^0,c
  4941                           
  4942                           ;MCAL/EUSART/mcal_EUSART.c: 393:     }
  4943  003408  EF3D  F01A         	goto	l7405
  4944  00340C                     l7389:
  4945                           
  4946                           ;MCAL/EUSART/mcal_EUSART.c: 395:     {;MCAL/EUSART/mcal_EUSART.c: 396:         if(1 == _
      +                          tx_obj->tx_enable)
  4947  00340C  C02A  FFD9         	movff	async_Tx_config@_tx_obj,fsr2l
  4948  003410  C02B  FFDA         	movff	async_Tx_config@_tx_obj+1,fsr2h
  4949  003414  A4DF               	btfss	indf2,2,c
  4950  003416  EF0F  F01A         	goto	u8231
  4951  00341A  EF11  F01A         	goto	u8230
  4952  00341E                     u8231:
  4953  00341E  EF2F  F01A         	goto	l7401
  4954  003422                     u8230:
  4955  003422                     
  4956                           ;MCAL/EUSART/mcal_EUSART.c: 397:         {;MCAL/EUSART/mcal_EUSART.c: 400:             (
      +                          TXSTAbits.TXEN = 0);
  4957  003422  9AAC               	bcf	172,5,c	;volatile
  4958  003424                     
  4959                           ;MCAL/EUSART/mcal_EUSART.c: 406:             if(1 == _tx_obj->tx_9th_bit_en )
  4960  003424  C02A  FFD9         	movff	async_Tx_config@_tx_obj,fsr2l
  4961  003428  C02B  FFDA         	movff	async_Tx_config@_tx_obj+1,fsr2h
  4962  00342C  A6DF               	btfss	indf2,3,c
  4963  00342E  EF1B  F01A         	goto	u8241
  4964  003432  EF1D  F01A         	goto	u8240
  4965  003436                     u8241:
  4966  003436  EF20  F01A         	goto	l7397
  4967  00343A                     u8240:
  4968  00343A                     
  4969                           ;MCAL/EUSART/mcal_EUSART.c: 407:             {;MCAL/EUSART/mcal_EUSART.c: 408:          
      +                                 TXSTAbits.TX9 = 1 ;
  4970  00343A  8CAC               	bsf	172,6,c	;volatile
  4971                           
  4972                           ;MCAL/EUSART/mcal_EUSART.c: 409:             }
  4973  00343C  EF2C  F01A         	goto	l417
  4974  003440                     l7397:
  4975  003440  C02A  FFD9         	movff	async_Tx_config@_tx_obj,fsr2l
  4976  003444  C02B  FFDA         	movff	async_Tx_config@_tx_obj+1,fsr2h
  4977  003448  B6DF               	btfsc	indf2,3,c
  4978  00344A  EF29  F01A         	goto	u8251
  4979  00344E  EF2B  F01A         	goto	u8250
  4980  003452                     u8251:
  4981  003452  EF2C  F01A         	goto	l417
  4982  003456                     u8250:
  4983  003456                     
  4984                           ;MCAL/EUSART/mcal_EUSART.c: 411:             {;MCAL/EUSART/mcal_EUSART.c: 412:          
      +                                 TXSTAbits.TX9 = 0 ;
  4985  003456  9CAC               	bcf	172,6,c	;volatile
  4986  003458                     l417:
  4987                           
  4988                           ;MCAL/EUSART/mcal_EUSART.c: 417:             (TXSTAbits.TXEN = 1);
  4989  003458  8AAC               	bsf	172,5,c	;volatile
  4990                           
  4991                           ;MCAL/EUSART/mcal_EUSART.c: 418:         }
  4992  00345A  EF3D  F01A         	goto	l7405
  4993  00345E                     l7401:
  4994  00345E  C02A  FFD9         	movff	async_Tx_config@_tx_obj,fsr2l
  4995  003462  C02B  FFDA         	movff	async_Tx_config@_tx_obj+1,fsr2h
  4996  003466  B4DF               	btfsc	indf2,2,c
  4997  003468  EF38  F01A         	goto	u8261
  4998  00346C  EF3A  F01A         	goto	u8260
  4999  003470                     u8261:
  5000  003470  EF3D  F01A         	goto	l420
  5001  003474                     u8260:
  5002  003474                     
  5003                           ;MCAL/EUSART/mcal_EUSART.c: 420:         {;MCAL/EUSART/mcal_EUSART.c: 422:             (
      +                          TXSTAbits.TXEN = 0);
  5004  003474  9AAC               	bcf	172,5,c	;volatile
  5005                           
  5006                           ;MCAL/EUSART/mcal_EUSART.c: 423:         }
  5007  003476  EF3D  F01A         	goto	l7405
  5008  00347A                     l420:
  5009  00347A                     l7405:
  5010                           
  5011                           ;MCAL/EUSART/mcal_EUSART.c: 428:     return ret_val ;
  5012  00347A  502C               	movf	async_Tx_config@ret_val^0,w,c
  5013  00347C  0012               	return		;funcret
  5014  00347E                     __end_of_async_Tx_config:
  5015                           	callstack 0
  5016                           
  5017 ;; *************** function _async_Rx_config *****************
  5018 ;; Defined at:
  5019 ;;		line 431 in file "MCAL/EUSART/mcal_EUSART.c"
  5020 ;; Parameters:    Size  Location     Type
  5021 ;;  _rx_obj         2    0[BANK0 ] PTR const struct .
  5022 ;;		 -> _uart_obj(12), 
  5023 ;; Auto vars:     Size  Location     Type
  5024 ;;  ret_val         1    2[BANK0 ] unsigned char 
  5025 ;; Return value:  Size  Location     Type
  5026 ;;                  1    wreg      unsigned char 
  5027 ;; Registers used:
  5028 ;;		wreg, fsr2l, fsr2h, status,2, status,0, cstack
  5029 ;; Tracked objects:
  5030 ;;		On entry : 0/0
  5031 ;;		On exit  : 0/0
  5032 ;;		Unchanged: 0/0
  5033 ;; Data sizes:     COMRAM   BANK0   BANK1   BANK2   BANK3   BANK4   BANK5   BANK6   BANK7   BANK8   BANK9  BANK10  BANK1
      +1  BANK12  BANK13  BANK14  BANK15
  5034 ;;      Params:         0       2       0       0       0       0       0       0       0       0       0       0       
      +0       0       0       0       0
  5035 ;;      Locals:         0       1       0       0       0       0       0       0       0       0       0       0       
      +0       0       0       0       0
  5036 ;;      Temps:          0       0       0       0       0       0       0       0       0       0       0       0       
      +0       0       0       0       0
  5037 ;;      Totals:         0       3       0       0       0       0       0       0       0       0       0       0       
      +0       0       0       0       0
  5038 ;;Total ram usage:        3 bytes
  5039 ;; Hardware stack levels used:    1
  5040 ;; Hardware stack levels required when called:   11
  5041 ;; This function calls:
  5042 ;;		_Rx_config_interrupt
  5043 ;; This function is called by:
  5044 ;;		_EUSART_Async_Init
  5045 ;; This function uses a non-reentrant model
  5046 ;;
  5047                           
  5048                           	psect	text12
  5049  00308A                     __ptext12:
  5050                           	callstack 0
  5051  00308A                     _async_Rx_config:
  5052                           	callstack 17
  5053  00308A                     
  5054                           ;MCAL/EUSART/mcal_EUSART.c: 431: static Std_ReturnType async_Rx_config(const uart_rx_con
      +                          fig_st *_rx_obj );MCAL/EUSART/mcal_EUSART.c: 432: {;MCAL/EUSART/mcal_EUSART.c: 433:     
      +                          Std_ReturnType ret_val = (Std_returnType) 0x01 ;
  5055  00308A  0E01               	movlw	1
  5056  00308C  0100               	movlb	0	; () banked
  5057  00308E  6F82               	movwf	async_Rx_config@ret_val& (0+255),b
  5058  003090                     
  5059                           ; BSR set to: 0
  5060                           ;MCAL/EUSART/mcal_EUSART.c: 435:     if(((void*)0) == _rx_obj)
  5061  003090  5180               	movf	async_Rx_config@_rx_obj& (0+255),w,b
  5062  003092  1181               	iorwf	(async_Rx_config@_rx_obj+1)& (0+255),w,b
  5063  003094  A4D8               	btfss	status,2,c
  5064  003096  EF4F  F018         	goto	u8271
  5065  00309A  EF51  F018         	goto	u8270
  5066  00309E                     u8271:
  5067  00309E  EF55  F018         	goto	l7415
  5068  0030A2                     u8270:
  5069  0030A2                     
  5070                           ; BSR set to: 0
  5071                           ;MCAL/EUSART/mcal_EUSART.c: 436:     {;MCAL/EUSART/mcal_EUSART.c: 437:         ret_val =
      +                           (Std_returnType) 0x00 ;
  5072  0030A2  0E00               	movlw	0
  5073  0030A4  6F82               	movwf	async_Rx_config@ret_val& (0+255),b
  5074                           
  5075                           ;MCAL/EUSART/mcal_EUSART.c: 438:     }
  5076  0030A6  EF9C  F018         	goto	l7433
  5077  0030AA                     l7415:
  5078                           
  5079                           ; BSR set to: 0
  5080                           ;MCAL/EUSART/mcal_EUSART.c: 440:     {;MCAL/EUSART/mcal_EUSART.c: 441:         if(1 == _
      +                          rx_obj->rx_enable)
  5081  0030AA  EE20 F006          	lfsr	2,6
  5082  0030AE  5180               	movf	async_Rx_config@_rx_obj& (0+255),w,b
  5083  0030B0  26D9               	addwf	fsr2l,f,c
  5084  0030B2  5181               	movf	(async_Rx_config@_rx_obj+1)& (0+255),w,b
  5085  0030B4  22DA               	addwfc	fsr2h,f,c
  5086  0030B6  A6DF               	btfss	indf2,3,c
  5087  0030B8  EF60  F018         	goto	u8281
  5088  0030BC  EF62  F018         	goto	u8280
  5089  0030C0                     u8281:
  5090  0030C0  EF8C  F018         	goto	l7429
  5091  0030C4                     u8280:
  5092  0030C4                     
  5093                           ; BSR set to: 0
  5094                           ;MCAL/EUSART/mcal_EUSART.c: 442:         {;MCAL/EUSART/mcal_EUSART.c: 444:             (
      +                          RCSTAbits.CREN = 0);
  5095  0030C4  98AB               	bcf	171,4,c	;volatile
  5096  0030C6                     
  5097                           ; BSR set to: 0
  5098                           ;MCAL/EUSART/mcal_EUSART.c: 447:             ret_val = Rx_config_interrupt(_rx_obj);
  5099  0030C6  C080  F02A         	movff	async_Rx_config@_rx_obj,Rx_config_interrupt@_rx_obj
  5100  0030CA  C081  F02B         	movff	async_Rx_config@_rx_obj+1,Rx_config_interrupt@_rx_obj+1
  5101  0030CE  ECA6  F019         	call	_Rx_config_interrupt	;wreg free
  5102  0030D2  0100               	movlb	0	; () banked
  5103  0030D4  6F82               	movwf	async_Rx_config@ret_val& (0+255),b
  5104  0030D6                     
  5105                           ; BSR set to: 0
  5106                           ;MCAL/EUSART/mcal_EUSART.c: 450:             if(1 == _rx_obj->rx_9th_bit_en )
  5107  0030D6  EE20 F006          	lfsr	2,6
  5108  0030DA  5180               	movf	async_Rx_config@_rx_obj& (0+255),w,b
  5109  0030DC  26D9               	addwf	fsr2l,f,c
  5110  0030DE  5181               	movf	(async_Rx_config@_rx_obj+1)& (0+255),w,b
  5111  0030E0  22DA               	addwfc	fsr2h,f,c
  5112  0030E2  A8DF               	btfss	indf2,4,c
  5113  0030E4  EF76  F018         	goto	u8291
  5114  0030E8  EF78  F018         	goto	u8290
  5115  0030EC                     u8291:
  5116  0030EC  EF7B  F018         	goto	l7425
  5117  0030F0                     u8290:
  5118  0030F0                     
  5119                           ; BSR set to: 0
  5120                           ;MCAL/EUSART/mcal_EUSART.c: 451:             {;MCAL/EUSART/mcal_EUSART.c: 452:          
      +                                 RCSTAbits.RX9 = 1 ;
  5121  0030F0  8CAB               	bsf	171,6,c	;volatile
  5122                           
  5123                           ;MCAL/EUSART/mcal_EUSART.c: 453:             }
  5124  0030F2  EF89  F018         	goto	l430
  5125  0030F6                     l7425:
  5126                           
  5127                           ; BSR set to: 0
  5128  0030F6  EE20 F006          	lfsr	2,6
  5129  0030FA  5180               	movf	async_Rx_config@_rx_obj& (0+255),w,b
  5130  0030FC  26D9               	addwf	fsr2l,f,c
  5131  0030FE  5181               	movf	(async_Rx_config@_rx_obj+1)& (0+255),w,b
  5132  003100  22DA               	addwfc	fsr2h,f,c
  5133  003102  B8DF               	btfsc	indf2,4,c
  5134  003104  EF86  F018         	goto	u8301
  5135  003108  EF88  F018         	goto	u8300
  5136  00310C                     u8301:
  5137  00310C  EF89  F018         	goto	l430
  5138  003110                     u8300:
  5139  003110                     
  5140                           ; BSR set to: 0
  5141                           ;MCAL/EUSART/mcal_EUSART.c: 455:             {;MCAL/EUSART/mcal_EUSART.c: 456:          
      +                                 RCSTAbits.RX9 = 0 ;
  5142  003110  9CAB               	bcf	171,6,c	;volatile
  5143  003112                     l430:
  5144                           
  5145                           ; BSR set to: 0
  5146                           ;MCAL/EUSART/mcal_EUSART.c: 461:             (RCSTAbits.CREN = 1);
  5147  003112  88AB               	bsf	171,4,c	;volatile
  5148                           
  5149                           ;MCAL/EUSART/mcal_EUSART.c: 462:         }
  5150  003114  EF9C  F018         	goto	l7433
  5151  003118                     l7429:
  5152                           
  5153                           ; BSR set to: 0
  5154  003118  EE20 F006          	lfsr	2,6
  5155  00311C  5180               	movf	async_Rx_config@_rx_obj& (0+255),w,b
  5156  00311E  26D9               	addwf	fsr2l,f,c
  5157  003120  5181               	movf	(async_Rx_config@_rx_obj+1)& (0+255),w,b
  5158  003122  22DA               	addwfc	fsr2h,f,c
  5159  003124  B6DF               	btfsc	indf2,3,c
  5160  003126  EF97  F018         	goto	u8311
  5161  00312A  EF99  F018         	goto	u8310
  5162  00312E                     u8311:
  5163  00312E  EF9C  F018         	goto	l433
  5164  003132                     u8310:
  5165  003132                     
  5166                           ; BSR set to: 0
  5167                           ;MCAL/EUSART/mcal_EUSART.c: 464:         {;MCAL/EUSART/mcal_EUSART.c: 466:             (
      +                          RCSTAbits.CREN = 0);
  5168  003132  98AB               	bcf	171,4,c	;volatile
  5169                           
  5170                           ;MCAL/EUSART/mcal_EUSART.c: 467:         }
  5171  003134  EF9C  F018         	goto	l7433
  5172  003138                     l433:
  5173  003138                     l7433:
  5174                           
  5175                           ; BSR set to: 0
  5176                           ;MCAL/EUSART/mcal_EUSART.c: 472:     return ret_val ;
  5177  003138  5182               	movf	async_Rx_config@ret_val& (0+255),w,b
  5178  00313A                     
  5179                           ; BSR set to: 0
  5180  00313A  0012               	return		;funcret
  5181  00313C                     __end_of_async_Rx_config:
  5182                           	callstack 0
  5183                           
  5184 ;; *************** function _Rx_config_interrupt *****************
  5185 ;; Defined at:
  5186 ;;		line 518 in file "MCAL/EUSART/mcal_EUSART.c"
  5187 ;; Parameters:    Size  Location     Type
  5188 ;;  _rx_obj         2   41[COMRAM] PTR const struct .
  5189 ;;		 -> _uart_obj(12), 
  5190 ;; Auto vars:     Size  Location     Type
  5191 ;;  ret_val         1   43[COMRAM] unsigned char 
  5192 ;; Return value:  Size  Location     Type
  5193 ;;                  1    wreg      unsigned char 
  5194 ;; Registers used:
  5195 ;;		wreg, fsr2l, fsr2h, status,2, status,0
  5196 ;; Tracked objects:
  5197 ;;		On entry : 0/0
  5198 ;;		On exit  : 0/0
  5199 ;;		Unchanged: 0/0
  5200 ;; Data sizes:     COMRAM   BANK0   BANK1   BANK2   BANK3   BANK4   BANK5   BANK6   BANK7   BANK8   BANK9  BANK10  BANK1
      +1  BANK12  BANK13  BANK14  BANK15
  5201 ;;      Params:         2       0       0       0       0       0       0       0       0       0       0       0       
      +0       0       0       0       0
  5202 ;;      Locals:         1       0       0       0       0       0       0       0       0       0       0       0       
      +0       0       0       0       0
  5203 ;;      Temps:          0       0       0       0       0       0       0       0       0       0       0       0       
      +0       0       0       0       0
  5204 ;;      Totals:         3       0       0       0       0       0       0       0       0       0       0       0       
      +0       0       0       0       0
  5205 ;;Total ram usage:        3 bytes
  5206 ;; Hardware stack levels used:    1
  5207 ;; Hardware stack levels required when called:   10
  5208 ;; This function calls:
  5209 ;;		Nothing
  5210 ;; This function is called by:
  5211 ;;		_async_Rx_config
  5212 ;; This function uses a non-reentrant model
  5213 ;;
  5214                           
  5215                           	psect	text13
  5216  00334C                     __ptext13:
  5217                           	callstack 0
  5218  00334C                     _Rx_config_interrupt:
  5219                           	callstack 17
  5220  00334C                     
  5221                           ;MCAL/EUSART/mcal_EUSART.c: 518: static __attribute__((inline)) Std_ReturnType Rx_config
      +                          _interrupt(const uart_rx_config_st *_rx_obj);MCAL/EUSART/mcal_EUSART.c: 519: {;MCAL/EUSA
      +                          RT/mcal_EUSART.c: 521:      Std_ReturnType ret_val = (Std_returnType) 0x01 ;
  5222  00334C  0E01               	movlw	1
  5223  00334E  6E2C               	movwf	Rx_config_interrupt@ret_val^0,c
  5224  003350                     
  5225                           ;MCAL/EUSART/mcal_EUSART.c: 523:     if(((void*)0) == _rx_obj)
  5226  003350  502A               	movf	Rx_config_interrupt@_rx_obj^0,w,c
  5227  003352  102B               	iorwf	(Rx_config_interrupt@_rx_obj+1)^0,w,c
  5228  003354  A4D8               	btfss	status,2,c
  5229  003356  EFAF  F019         	goto	u7151
  5230  00335A  EFB1  F019         	goto	u7150
  5231  00335E                     u7151:
  5232  00335E  EFB5  F019         	goto	l444
  5233  003362                     u7150:
  5234  003362                     
  5235                           ;MCAL/EUSART/mcal_EUSART.c: 524:     {;MCAL/EUSART/mcal_EUSART.c: 525:         ret_val =
      +                           (Std_returnType) 0x00 ;
  5236  003362  0E00               	movlw	0
  5237  003364  6E2C               	movwf	Rx_config_interrupt@ret_val^0,c
  5238                           
  5239                           ;MCAL/EUSART/mcal_EUSART.c: 526:     }
  5240  003366  EFF5  F019         	goto	l6777
  5241  00336A                     l444:
  5242                           
  5243                           ;MCAL/EUSART/mcal_EUSART.c: 528:     {;MCAL/EUSART/mcal_EUSART.c: 530:         (PIE1bits
      +                          .RCIE = 0);
  5244  00336A  9A9D               	bcf	157,5,c	;volatile
  5245  00336C                     
  5246                           ;MCAL/EUSART/mcal_EUSART.c: 531:         eusart_Rx_InterruptHandler = _rx_obj->rx_Interr
      +                          uptHandler ;
  5247  00336C  C02A  FFD9         	movff	Rx_config_interrupt@_rx_obj,fsr2l
  5248  003370  C02B  FFDA         	movff	Rx_config_interrupt@_rx_obj+1,fsr2h
  5249  003374  CFDE F043          	movff	postinc2,_eusart_Rx_InterruptHandler
  5250  003378  CFDD F044          	movff	postdec2,_eusart_Rx_InterruptHandler+1
  5251  00337C                     
  5252                           ;MCAL/EUSART/mcal_EUSART.c: 532:         eusart_frameerr_CallBack = _rx_obj->ferr_Interr
      +                          uptHandler ;
  5253  00337C  EE20 F004          	lfsr	2,4
  5254  003380  502A               	movf	Rx_config_interrupt@_rx_obj^0,w,c
  5255  003382  26D9               	addwf	fsr2l,f,c
  5256  003384  502B               	movf	(Rx_config_interrupt@_rx_obj+1)^0,w,c
  5257  003386  22DA               	addwfc	fsr2h,f,c
  5258  003388  CFDE F0B8          	movff	postinc2,_eusart_frameerr_CallBack
  5259  00338C  CFDD F0B9          	movff	postdec2,_eusart_frameerr_CallBack+1
  5260  003390                     
  5261                           ;MCAL/EUSART/mcal_EUSART.c: 533:         eusart_overrunerr_CallBack = _rx_obj->oerr_Inte
      +                          rruptHandler ;
  5262  003390  EE20 F002          	lfsr	2,2
  5263  003394  502A               	movf	Rx_config_interrupt@_rx_obj^0,w,c
  5264  003396  26D9               	addwf	fsr2l,f,c
  5265  003398  502B               	movf	(Rx_config_interrupt@_rx_obj+1)^0,w,c
  5266  00339A  22DA               	addwfc	fsr2h,f,c
  5267  00339C  CFDE F0BA          	movff	postinc2,_eusart_overrunerr_CallBack
  5268  0033A0  CFDD F0BB          	movff	postdec2,_eusart_overrunerr_CallBack+1
  5269  0033A4                     
  5270                           ;MCAL/EUSART/mcal_EUSART.c: 536:                 (RCONbits.IPEN = 1 );
  5271  0033A4  8ED0               	bsf	208,7,c	;volatile
  5272  0033A6                     
  5273                           ;MCAL/EUSART/mcal_EUSART.c: 537:                 if(1 == _rx_obj->uart_rx_priority)
  5274  0033A6  EE20 F006          	lfsr	2,6
  5275  0033AA  502A               	movf	Rx_config_interrupt@_rx_obj^0,w,c
  5276  0033AC  26D9               	addwf	fsr2l,f,c
  5277  0033AE  502B               	movf	(Rx_config_interrupt@_rx_obj+1)^0,w,c
  5278  0033B0  22DA               	addwfc	fsr2h,f,c
  5279  0033B2  A0DF               	btfss	indf2,0,c
  5280  0033B4  EFDE  F019         	goto	u7161
  5281  0033B8  EFE0  F019         	goto	u7160
  5282  0033BC                     u7161:
  5283  0033BC  EFE4  F019         	goto	l6773
  5284  0033C0                     u7160:
  5285  0033C0                     
  5286                           ;MCAL/EUSART/mcal_EUSART.c: 538:                 {;MCAL/EUSART/mcal_EUSART.c: 539:      
      +                                         (IPR1bits.RCIP = 1);
  5287  0033C0  8A9F               	bsf	159,5,c	;volatile
  5288                           
  5289                           ;MCAL/EUSART/mcal_EUSART.c: 540:                     (INTCONbits.GIEH = 1);
  5290  0033C2  8EF2               	bsf	242,7,c	;volatile
  5291                           
  5292                           ;MCAL/EUSART/mcal_EUSART.c: 542:                 }
  5293  0033C4  EFF4  F019         	goto	l447
  5294  0033C8                     l6773:
  5295  0033C8  EE20 F006          	lfsr	2,6
  5296  0033CC  502A               	movf	Rx_config_interrupt@_rx_obj^0,w,c
  5297  0033CE  26D9               	addwf	fsr2l,f,c
  5298  0033D0  502B               	movf	(Rx_config_interrupt@_rx_obj+1)^0,w,c
  5299  0033D2  22DA               	addwfc	fsr2h,f,c
  5300  0033D4  B0DF               	btfsc	indf2,0,c
  5301  0033D6  EFEF  F019         	goto	u7171
  5302  0033DA  EFF1  F019         	goto	u7170
  5303  0033DE                     u7171:
  5304  0033DE  EFF4  F019         	goto	l447
  5305  0033E2                     u7170:
  5306  0033E2                     
  5307                           ;MCAL/EUSART/mcal_EUSART.c: 544:                 {;MCAL/EUSART/mcal_EUSART.c: 545:      
      +                                         (IPR1bits.RCIP = 0);
  5308  0033E2  9A9F               	bcf	159,5,c	;volatile
  5309                           
  5310                           ;MCAL/EUSART/mcal_EUSART.c: 546:                     (INTCONbits.GIEH = 1);
  5311  0033E4  8EF2               	bsf	242,7,c	;volatile
  5312                           
  5313                           ;MCAL/EUSART/mcal_EUSART.c: 547:                     (INTCONbits.GIEL = 1);
  5314  0033E6  8CF2               	bsf	242,6,c	;volatile
  5315  0033E8                     l447:
  5316                           
  5317                           ;MCAL/EUSART/mcal_EUSART.c: 555:         (PIE1bits.RCIE = 1);
  5318  0033E8  8A9D               	bsf	157,5,c	;volatile
  5319  0033EA                     l6777:
  5320                           
  5321                           ;MCAL/EUSART/mcal_EUSART.c: 560:     return ret_val ;
  5322  0033EA  502C               	movf	Rx_config_interrupt@ret_val^0,w,c
  5323  0033EC  0012               	return		;funcret
  5324  0033EE                     __end_of_Rx_config_interrupt:
  5325                           	callstack 0
  5326                           
  5327 ;; *************** function _GPS_Service *****************
  5328 ;; Defined at:
  5329 ;;		line 195 in file "application.c"
  5330 ;; Parameters:    Size  Location     Type
  5331 ;;		None
  5332 ;; Auto vars:     Size  Location     Type
  5333 ;;  key             1   31[BANK0 ] unsigned char 
  5334 ;; Return value:  Size  Location     Type
  5335 ;;                  1    wreg      void 
  5336 ;; Registers used:
  5337 ;;		wreg, fsr0l, fsr0h, fsr2l, fsr2h, status,2, status,0, tblptrl, tblptrh, tblptru, prodl, prodh, cstack
  5338 ;; Tracked objects:
  5339 ;;		On entry : 0/0
  5340 ;;		On exit  : 0/0
  5341 ;;		Unchanged: 0/0
  5342 ;; Data sizes:     COMRAM   BANK0   BANK1   BANK2   BANK3   BANK4   BANK5   BANK6   BANK7   BANK8   BANK9  BANK10  BANK1
      +1  BANK12  BANK13  BANK14  BANK15
  5343 ;;      Params:         0       0       0       0       0       0       0       0       0       0       0       0       
      +0       0       0       0       0
  5344 ;;      Locals:         0       1       0       0       0       0       0       0       0       0       0       0       
      +0       0       0       0       0
  5345 ;;      Temps:          0       2       0       0       0       0       0       0       0       0       0       0       
      +0       0       0       0       0
  5346 ;;      Totals:         0       3       0       0       0       0       0       0       0       0       0       0       
      +0       0       0       0       0
  5347 ;;Total ram usage:        3 bytes
  5348 ;; Hardware stack levels used:    1
  5349 ;; Hardware stack levels required when called:   15
  5350 ;; This function calls:
  5351 ;;		_EUSART_Async_Read_Data_Blocking
  5352 ;;		_GPIO_Pin_Write_Logic
  5353 ;;		_lcd_4bit_send_string_data_pos
  5354 ;; This function is called by:
  5355 ;;		_main
  5356 ;; This function uses a non-reentrant model
  5357 ;;
  5358                           
  5359                           	psect	text14
  5360  002518                     __ptext14:
  5361                           	callstack 0
  5362  002518                     _GPS_Service:
  5363                           	callstack 15
  5364  002518                     
  5365                           ;application.c: 197:     uint8 key=1;
  5366  002518  0E01               	movlw	1
  5367  00251A  0100               	movlb	0	; () banked
  5368  00251C  6F9F               	movwf	GPS_Service@key& (0+255),b
  5369  00251E                     
  5370                           ; BSR set to: 0
  5371                           ;application.c: 198:     (PIE1bits.RCIE = 0);
  5372  00251E  9A9D               	bcf	157,5,c	;volatile
  5373  002520                     
  5374                           ; BSR set to: 0
  5375                           ;application.c: 199:     GPIO_Pin_Write_Logic(&selector,GPIO_HIGH);
  5376  002520  0E53               	movlw	low _selector
  5377  002522  6E2A               	movwf	GPIO_Pin_Write_Logic@_pin_config^0,c
  5378  002524  0E00               	movlw	high _selector
  5379  002526  6E2B               	movwf	(GPIO_Pin_Write_Logic@_pin_config+1)^0,c
  5380  002528  0E01               	movlw	1
  5381  00252A  6E2C               	movwf	GPIO_Pin_Write_Logic@logic^0,c
  5382  00252C  EC99  F015         	call	_GPIO_Pin_Write_Logic	;wreg free
  5383                           
  5384                           ;application.c: 201:     while (key)
  5385  002530  EF22  F013         	goto	l7681
  5386  002534                     l7645:
  5387                           
  5388                           ; BSR set to: 0
  5389                           ;application.c: 202:     {;application.c: 203:         EUSART_Async_Read_Data_Blocking(&
      +                          _uart_obj,&gpstemp);
  5390  002534  0EF4               	movlw	low __uart_obj
  5391  002536  6F92               	movwf	EUSART_Async_Read_Data_Blocking@_eusart_obj& (0+255),b
  5392  002538  0E00               	movlw	high __uart_obj
  5393  00253A  6F93               	movwf	(EUSART_Async_Read_Data_Blocking@_eusart_obj+1)& (0+255),b
  5394  00253C  0E47               	movlw	low _gpstemp
  5395  00253E  6F94               	movwf	EUSART_Async_Read_Data_Blocking@data& (0+255),b
  5396  002540  0E00               	movlw	high _gpstemp
  5397  002542  6F95               	movwf	(EUSART_Async_Read_Data_Blocking@data+1)& (0+255),b
  5398  002544  EC67  F01B         	call	_EUSART_Async_Read_Data_Blocking	;wreg free
  5399  002548                     
  5400                           ;application.c: 204:         if ('$'==gpstemp)
  5401  002548  0E24               	movlw	36
  5402  00254A  1847               	xorwf	_gpstemp^0,w,c
  5403  00254C  A4D8               	btfss	status,2,c
  5404  00254E  EFAB  F012         	goto	u8581
  5405  002552  EFAD  F012         	goto	u8580
  5406  002556                     u8581:
  5407  002556  EF22  F013         	goto	l7681
  5408  00255A                     u8580:
  5409  00255A  EF19  F013         	goto	l1258
  5410  00255E                     l7651:
  5411                           
  5412                           ; BSR set to: 0
  5413                           ;application.c: 207:             {;application.c: 208:                     EUSART_Async_
      +                          Read_Data_Blocking(&_uart_obj,&gpstemp);
  5414  00255E  0EF4               	movlw	low __uart_obj
  5415  002560  6F92               	movwf	EUSART_Async_Read_Data_Blocking@_eusart_obj& (0+255),b
  5416  002562  0E00               	movlw	high __uart_obj
  5417  002564  6F93               	movwf	(EUSART_Async_Read_Data_Blocking@_eusart_obj+1)& (0+255),b
  5418  002566  0E47               	movlw	low _gpstemp
  5419  002568  6F94               	movwf	EUSART_Async_Read_Data_Blocking@data& (0+255),b
  5420  00256A  0E00               	movlw	high _gpstemp
  5421  00256C  6F95               	movwf	(EUSART_Async_Read_Data_Blocking@data+1)& (0+255),b
  5422  00256E  EC67  F01B         	call	_EUSART_Async_Read_Data_Blocking	;wreg free
  5423  002572                     
  5424                           ;application.c: 209:                     if (','==gpstemp)
  5425  002572  0E2C               	movlw	44
  5426  002574  1847               	xorwf	_gpstemp^0,w,c
  5427  002576  A4D8               	btfss	status,2,c
  5428  002578  EFC0  F012         	goto	u8591
  5429  00257C  EFC2  F012         	goto	u8590
  5430  002580                     u8591:
  5431  002580  EF19  F013         	goto	l1258
  5432  002584                     u8590:
  5433  002584                     
  5434                           ;application.c: 210:                     {;application.c: 211:                         c
      +                          ounter++;
  5435  002584  2A45               	incf	_counter^0,f,c
  5436  002586                     
  5437                           ;application.c: 212:                         if (3==counter)
  5438  002586  0E03               	movlw	3
  5439  002588  1845               	xorwf	_counter^0,w,c
  5440  00258A  A4D8               	btfss	status,2,c
  5441  00258C  EFCA  F012         	goto	u8601
  5442  002590  EFCC  F012         	goto	u8600
  5443  002594                     u8601:
  5444  002594  EFEE  F012         	goto	l7669
  5445  002598                     u8600:
  5446  002598                     
  5447                           ;application.c: 213:                         {;application.c: 214:                      
      +                                 i=0;
  5448  002598  0E00               	movlw	0
  5449  00259A  6E46               	movwf	_i^0,c
  5450  00259C                     l7661:
  5451                           
  5452                           ;application.c: 217:                             {;application.c: 218:                  
      +                                         EUSART_Async_Read_Data_Blocking(&_uart_obj,(latitude+i));
  5453  00259C  0EF4               	movlw	low __uart_obj
  5454  00259E  0100               	movlb	0	; () banked
  5455  0025A0  6F92               	movwf	EUSART_Async_Read_Data_Blocking@_eusart_obj& (0+255),b
  5456  0025A2  0E00               	movlw	high __uart_obj
  5457  0025A4  6F93               	movwf	(EUSART_Async_Read_Data_Blocking@_eusart_obj+1)& (0+255),b
  5458  0025A6  0EC9               	movlw	low _latitude
  5459  0025A8  2446               	addwf	_i^0,w,c
  5460  0025AA  6F94               	movwf	EUSART_Async_Read_Data_Blocking@data& (0+255),b
  5461  0025AC  6B95               	clrf	(EUSART_Async_Read_Data_Blocking@data+1)& (0+255),b
  5462  0025AE  0E00               	movlw	high _latitude
  5463  0025B0  2395               	addwfc	(EUSART_Async_Read_Data_Blocking@data+1)& (0+255),f,b
  5464  0025B2  EC67  F01B         	call	_EUSART_Async_Read_Data_Blocking	;wreg free
  5465  0025B6                     
  5466                           ;application.c: 219:                                 i++;
  5467  0025B6  2A46               	incf	_i^0,f,c
  5468  0025B8                     
  5469                           ;application.c: 220:                             }while(','!=(latitude[i-1]));
  5470  0025B8  0EC8               	movlw	low (_latitude+65535)
  5471  0025BA  2446               	addwf	_i^0,w,c
  5472  0025BC  6ED9               	movwf	fsr2l,c
  5473  0025BE  6ADA               	clrf	fsr2h,c
  5474  0025C0  0E00               	movlw	high (_latitude+65535)
  5475  0025C2  22DA               	addwfc	fsr2h,f,c
  5476  0025C4  0E2C               	movlw	44
  5477  0025C6  18DE               	xorwf	postinc2,w,c
  5478  0025C8  A4D8               	btfss	status,2,c
  5479  0025CA  EFE9  F012         	goto	u8611
  5480  0025CE  EFEB  F012         	goto	u8610
  5481  0025D2                     u8611:
  5482  0025D2  EFCE  F012         	goto	l7661
  5483  0025D6                     u8610:
  5484  0025D6                     
  5485                           ;application.c: 221:                             counter++;
  5486  0025D6  2A45               	incf	_counter^0,f,c
  5487                           
  5488                           ;application.c: 223:                         }
  5489  0025D8  EF19  F013         	goto	l1258
  5490  0025DC                     l7669:
  5491  0025DC  0E05               	movlw	5
  5492  0025DE  1845               	xorwf	_counter^0,w,c
  5493  0025E0  A4D8               	btfss	status,2,c
  5494  0025E2  EFF5  F012         	goto	u8621
  5495  0025E6  EFF7  F012         	goto	u8620
  5496  0025EA                     u8621:
  5497  0025EA  EF19  F013         	goto	l1258
  5498  0025EE                     u8620:
  5499  0025EE                     
  5500                           ;application.c: 225:                         {;application.c: 226:                      
      +                                 i=0;
  5501  0025EE  0E00               	movlw	0
  5502  0025F0  6E46               	movwf	_i^0,c
  5503  0025F2                     l7673:
  5504                           
  5505                           ;application.c: 229:                                 EUSART_Async_Read_Data_Blocking(&_u
      +                          art_obj,(longtude+i));
  5506  0025F2  0EF4               	movlw	low __uart_obj
  5507  0025F4  0100               	movlb	0	; () banked
  5508  0025F6  6F92               	movwf	EUSART_Async_Read_Data_Blocking@_eusart_obj& (0+255),b
  5509  0025F8  0E00               	movlw	high __uart_obj
  5510  0025FA  6F93               	movwf	(EUSART_Async_Read_Data_Blocking@_eusart_obj+1)& (0+255),b
  5511  0025FC  0EBC               	movlw	low _longtude
  5512  0025FE  2446               	addwf	_i^0,w,c
  5513  002600  6F94               	movwf	EUSART_Async_Read_Data_Blocking@data& (0+255),b
  5514  002602  6B95               	clrf	(EUSART_Async_Read_Data_Blocking@data+1)& (0+255),b
  5515  002604  0E00               	movlw	high _longtude
  5516  002606  2395               	addwfc	(EUSART_Async_Read_Data_Blocking@data+1)& (0+255),f,b
  5517  002608  EC67  F01B         	call	_EUSART_Async_Read_Data_Blocking	;wreg free
  5518  00260C                     
  5519                           ;application.c: 230:                                 i++;
  5520  00260C  2A46               	incf	_i^0,f,c
  5521  00260E                     
  5522                           ;application.c: 231:                             }while(','!=(longtude[i-1]));
  5523  00260E  0EBB               	movlw	low (_longtude+65535)
  5524  002610  2446               	addwf	_i^0,w,c
  5525  002612  6ED9               	movwf	fsr2l,c
  5526  002614  6ADA               	clrf	fsr2h,c
  5527  002616  0E00               	movlw	high (_longtude+65535)
  5528  002618  22DA               	addwfc	fsr2h,f,c
  5529  00261A  0E2C               	movlw	44
  5530  00261C  18DE               	xorwf	postinc2,w,c
  5531  00261E  A4D8               	btfss	status,2,c
  5532  002620  EF14  F013         	goto	u8631
  5533  002624  EF16  F013         	goto	u8630
  5534  002628                     u8631:
  5535  002628  EFF9  F012         	goto	l7673
  5536  00262C                     u8630:
  5537  00262C                     
  5538                           ;application.c: 232:                             key=0;
  5539  00262C  0E00               	movlw	0
  5540  00262E  0100               	movlb	0	; () banked
  5541  002630  6F9F               	movwf	GPS_Service@key& (0+255),b
  5542  002632                     l1258:
  5543                           
  5544                           ;application.c: 206:             while (key)
  5545  002632  0100               	movlb	0	; () banked
  5546  002634  519F               	movf	GPS_Service@key& (0+255),w,b
  5547  002636  A4D8               	btfss	status,2,c
  5548  002638  EF20  F013         	goto	u8641
  5549  00263C  EF22  F013         	goto	u8640
  5550  002640                     u8641:
  5551  002640  EFAF  F012         	goto	l7651
  5552  002644                     u8640:
  5553  002644                     l7681:
  5554                           
  5555                           ;application.c: 201:     while (key)
  5556  002644  0100               	movlb	0	; () banked
  5557  002646  519F               	movf	GPS_Service@key& (0+255),w,b
  5558  002648  A4D8               	btfss	status,2,c
  5559  00264A  EF29  F013         	goto	u8651
  5560  00264E  EF2B  F013         	goto	u8650
  5561  002652                     u8651:
  5562  002652  EF9A  F012         	goto	l7645
  5563  002656                     u8650:
  5564  002656                     
  5565                           ; BSR set to: 0
  5566                           ;application.c: 238:     lcd_4bit_send_string_data_pos(&lcd1,1,1,"-             ");
  5567  002656  0E4D               	movlw	low _lcd1
  5568  002658  6F96               	movwf	lcd_4bit_send_string_data_pos@lcd& (0+255),b
  5569  00265A  0E00               	movlw	high _lcd1
  5570  00265C  6F97               	movwf	(lcd_4bit_send_string_data_pos@lcd+1)& (0+255),b
  5571  00265E  0E01               	movlw	1
  5572  002660  6F98               	movwf	lcd_4bit_send_string_data_pos@row& (0+255),b
  5573  002662  0E01               	movlw	1
  5574  002664  6F99               	movwf	lcd_4bit_send_string_data_pos@colum& (0+255),b
  5575  002666  0E44               	movlw	low STR_34
  5576  002668  6F9A               	movwf	lcd_4bit_send_string_data_pos@str& (0+255),b
  5577  00266A  0E10               	movlw	high STR_34
  5578  00266C  6F9B               	movwf	(lcd_4bit_send_string_data_pos@str+1)& (0+255),b
  5579  00266E  EC4F  F019         	call	_lcd_4bit_send_string_data_pos	;wreg free
  5580                           
  5581                           ;application.c: 239:     lcd_4bit_send_string_data_pos(&lcd1,2,1,"-             ");
  5582  002672  0E4D               	movlw	low _lcd1
  5583  002674  0100               	movlb	0	; () banked
  5584  002676  6F96               	movwf	lcd_4bit_send_string_data_pos@lcd& (0+255),b
  5585  002678  0E00               	movlw	high _lcd1
  5586  00267A  6F97               	movwf	(lcd_4bit_send_string_data_pos@lcd+1)& (0+255),b
  5587  00267C  0E02               	movlw	2
  5588  00267E  6F98               	movwf	lcd_4bit_send_string_data_pos@row& (0+255),b
  5589  002680  0E01               	movlw	1
  5590  002682  6F99               	movwf	lcd_4bit_send_string_data_pos@colum& (0+255),b
  5591  002684  0E44               	movlw	low STR_34
  5592  002686  6F9A               	movwf	lcd_4bit_send_string_data_pos@str& (0+255),b
  5593  002688  0E10               	movlw	high STR_34
  5594  00268A  6F9B               	movwf	(lcd_4bit_send_string_data_pos@str+1)& (0+255),b
  5595  00268C  EC4F  F019         	call	_lcd_4bit_send_string_data_pos	;wreg free
  5596                           
  5597                           ;application.c: 240:     lcd_4bit_send_string_data_pos(&lcd1,1,1,latitude);
  5598  002690  0E4D               	movlw	low _lcd1
  5599  002692  0100               	movlb	0	; () banked
  5600  002694  6F96               	movwf	lcd_4bit_send_string_data_pos@lcd& (0+255),b
  5601  002696  0E00               	movlw	high _lcd1
  5602  002698  6F97               	movwf	(lcd_4bit_send_string_data_pos@lcd+1)& (0+255),b
  5603  00269A  0E01               	movlw	1
  5604  00269C  6F98               	movwf	lcd_4bit_send_string_data_pos@row& (0+255),b
  5605  00269E  0E01               	movlw	1
  5606  0026A0  6F99               	movwf	lcd_4bit_send_string_data_pos@colum& (0+255),b
  5607  0026A2  0EC9               	movlw	low _latitude
  5608  0026A4  6F9A               	movwf	lcd_4bit_send_string_data_pos@str& (0+255),b
  5609  0026A6  0E00               	movlw	high _latitude
  5610  0026A8  6F9B               	movwf	(lcd_4bit_send_string_data_pos@str+1)& (0+255),b
  5611  0026AA  EC4F  F019         	call	_lcd_4bit_send_string_data_pos	;wreg free
  5612                           
  5613                           ;application.c: 241:     lcd_4bit_send_string_data_pos(&lcd1,2,1,longtude);
  5614  0026AE  0E4D               	movlw	low _lcd1
  5615  0026B0  0100               	movlb	0	; () banked
  5616  0026B2  6F96               	movwf	lcd_4bit_send_string_data_pos@lcd& (0+255),b
  5617  0026B4  0E00               	movlw	high _lcd1
  5618  0026B6  6F97               	movwf	(lcd_4bit_send_string_data_pos@lcd+1)& (0+255),b
  5619  0026B8  0E02               	movlw	2
  5620  0026BA  6F98               	movwf	lcd_4bit_send_string_data_pos@row& (0+255),b
  5621  0026BC  0E01               	movlw	1
  5622  0026BE  6F99               	movwf	lcd_4bit_send_string_data_pos@colum& (0+255),b
  5623  0026C0  0EBC               	movlw	low _longtude
  5624  0026C2  6F9A               	movwf	lcd_4bit_send_string_data_pos@str& (0+255),b
  5625  0026C4  0E00               	movlw	high _longtude
  5626  0026C6  6F9B               	movwf	(lcd_4bit_send_string_data_pos@str+1)& (0+255),b
  5627  0026C8  EC4F  F019         	call	_lcd_4bit_send_string_data_pos	;wreg free
  5628  0026CC                     
  5629                           ;application.c: 242:     GPIO_Pin_Write_Logic(&selector,GPIO_LOW);
  5630  0026CC  0E53               	movlw	low _selector
  5631  0026CE  6E2A               	movwf	GPIO_Pin_Write_Logic@_pin_config^0,c
  5632  0026D0  0E00               	movlw	high _selector
  5633  0026D2  6E2B               	movwf	(GPIO_Pin_Write_Logic@_pin_config+1)^0,c
  5634  0026D4  0E00               	movlw	0
  5635  0026D6  6E2C               	movwf	GPIO_Pin_Write_Logic@logic^0,c
  5636  0026D8  EC99  F015         	call	_GPIO_Pin_Write_Logic	;wreg free
  5637  0026DC                     
  5638                           ;application.c: 243:     _delay((unsigned long)((2000)*(8000000/4000.0)));
  5639  0026DC  0E15               	movlw	21
  5640  0026DE  0100               	movlb	0	; () banked
  5641  0026E0  6F9E               	movwf	(??_GPS_Service+1)& (0+255),b
  5642  0026E2  0E4B               	movlw	75
  5643  0026E4  6F9D               	movwf	??_GPS_Service& (0+255),b
  5644  0026E6  0EBE               	movlw	190
  5645  0026E8                     u9017:
  5646  0026E8  2EE8               	decfsz	wreg,f,c
  5647  0026EA  D7FE               	bra	u9017
  5648  0026EC  2F9D               	decfsz	??_GPS_Service& (0+255),f,b
  5649  0026EE  D7FC               	bra	u9017
  5650  0026F0  2F9E               	decfsz	(??_GPS_Service+1)& (0+255),f,b
  5651  0026F2  D7FA               	bra	u9017
  5652  0026F4  F000               	nop	
  5653  0026F6                     
  5654                           ;application.c: 244:     (PIE1bits.RCIE = 1) ;
  5655  0026F6  8A9D               	bsf	157,5,c	;volatile
  5656  0026F8  0012               	return		;funcret
  5657  0026FA                     __end_of_GPS_Service:
  5658                           	callstack 0
  5659                           
  5660 ;; *************** function _lcd_4bit_send_string_data_pos *****************
  5661 ;; Defined at:
  5662 ;;		line 163 in file "ECU/LCD_for_test_gps/ecu_char_lcd.c"
  5663 ;; Parameters:    Size  Location     Type
  5664 ;;  lcd             2   22[BANK0 ] PTR const struct .
  5665 ;;		 -> lcd1(6), 
  5666 ;;  row             1   24[BANK0 ] unsigned char 
  5667 ;;  colum           1   25[BANK0 ] unsigned char 
  5668 ;;  str             2   26[BANK0 ] PTR unsigned char 
  5669 ;;		 -> STR_35(15), STR_34(15), longtude(13), latitude(13), 
  5670 ;;		 -> STR_33(13), STR_32(15), STR_31(4), STR_30(15), 
  5671 ;;		 -> STR_29(13), STR_28(15), STR_27(16), STR_26(15), 
  5672 ;;		 -> STR_25(10), STR_24(15), STR_23(15), STR_22(15), 
  5673 ;;		 -> STR_21(12), STR_20(15), STR_19(11), STR_18(15), 
  5674 ;;		 -> STR_17(15), STR_16(15), STR_15(10), STR_14(15), 
  5675 ;;		 -> STR_13(14), STR_12(15), STR_11(9), STR_10(15), 
  5676 ;;		 -> STR_9(4), 
  5677 ;; Auto vars:     Size  Location     Type
  5678 ;;  ERRORSTATUS     1    0        unsigned char 
  5679 ;; Return value:  Size  Location     Type
  5680 ;;                  1    wreg      unsigned char 
  5681 ;; Registers used:
  5682 ;;		wreg, fsr0l, fsr0h, fsr2l, fsr2h, status,2, status,0, tblptrl, tblptrh, tblptru, prodl, prodh, cstack
  5683 ;; Tracked objects:
  5684 ;;		On entry : 0/0
  5685 ;;		On exit  : 0/0
  5686 ;;		Unchanged: 0/0
  5687 ;; Data sizes:     COMRAM   BANK0   BANK1   BANK2   BANK3   BANK4   BANK5   BANK6   BANK7   BANK8   BANK9  BANK10  BANK1
      +1  BANK12  BANK13  BANK14  BANK15
  5688 ;;      Params:         0       6       0       0       0       0       0       0       0       0       0       0       
      +0       0       0       0       0
  5689 ;;      Locals:         0       1       0       0       0       0       0       0       0       0       0       0       
      +0       0       0       0       0
  5690 ;;      Temps:          0       0       0       0       0       0       0       0       0       0       0       0       
      +0       0       0       0       0
  5691 ;;      Totals:         0       7       0       0       0       0       0       0       0       0       0       0       
      +0       0       0       0       0
  5692 ;;Total ram usage:        7 bytes
  5693 ;; Hardware stack levels used:    1
  5694 ;; Hardware stack levels required when called:   14
  5695 ;; This function calls:
  5696 ;;		_lcd_4bit_send_char_data
  5697 ;;		_lcd_4bits_set_courser
  5698 ;; This function is called by:
  5699 ;;		_main
  5700 ;;		_GPS_Service
  5701 ;; This function uses a non-reentrant model
  5702 ;;
  5703                           
  5704                           	psect	text15
  5705  00329E                     __ptext15:
  5706                           	callstack 0
  5707  00329E                     _lcd_4bit_send_string_data_pos:
  5708                           	callstack 16
  5709  00329E                     
  5710                           ;ECU/LCD_for_test_gps/ecu_char_lcd.c: 166:     if (( ((void*)0)==lcd)||( ((void*)0)==str
      +                          ))
  5711  00329E  0100               	movlb	0	; () banked
  5712  0032A0  5196               	movf	lcd_4bit_send_string_data_pos@lcd& (0+255),w,b
  5713  0032A2  1197               	iorwf	(lcd_4bit_send_string_data_pos@lcd+1)& (0+255),w,b
  5714  0032A4  B4D8               	btfsc	status,2,c
  5715  0032A6  EF57  F019         	goto	u8401
  5716  0032AA  EF59  F019         	goto	u8400
  5717  0032AE                     u8401:
  5718  0032AE  EF62  F019         	goto	l7521
  5719  0032B2                     u8400:
  5720  0032B2                     
  5721                           ; BSR set to: 0
  5722  0032B2  519A               	movf	lcd_4bit_send_string_data_pos@str& (0+255),w,b
  5723  0032B4  119B               	iorwf	(lcd_4bit_send_string_data_pos@str+1)& (0+255),w,b
  5724  0032B6  A4D8               	btfss	status,2,c
  5725  0032B8  EF60  F019         	goto	u8411
  5726  0032BC  EF62  F019         	goto	u8410
  5727  0032C0                     u8411:
  5728  0032C0  EF64  F019         	goto	l7523
  5729  0032C4                     u8410:
  5730  0032C4                     l7521:
  5731                           
  5732                           ; BSR set to: 0
  5733                           ;ECU/LCD_for_test_gps/ecu_char_lcd.c: 169:     }
  5734  0032C4  EFA5  F019         	goto	l112
  5735  0032C8                     l7523:
  5736                           
  5737                           ; BSR set to: 0
  5738                           ;ECU/LCD_for_test_gps/ecu_char_lcd.c: 171:     {;ECU/LCD_for_test_gps/ecu_char_lcd.c: 17
      +                          2:          lcd_4bits_set_courser(lcd,row,colum);
  5739  0032C8  C096  F08F         	movff	lcd_4bit_send_string_data_pos@lcd,lcd_4bits_set_courser@lcd
  5740  0032CC  C097  F090         	movff	lcd_4bit_send_string_data_pos@lcd+1,lcd_4bits_set_courser@lcd+1
  5741  0032D0  C098  F091         	movff	lcd_4bit_send_string_data_pos@row,lcd_4bits_set_courser@row
  5742  0032D4  C099  F092         	movff	lcd_4bit_send_string_data_pos@colum,lcd_4bits_set_courser@colum
  5743  0032D8  EC9E  F018         	call	_lcd_4bits_set_courser	;wreg free
  5744                           
  5745                           ;ECU/LCD_for_test_gps/ecu_char_lcd.c: 173:         while(*str)
  5746  0032DC  EF8C  F019         	goto	l7529
  5747  0032E0                     l7525:
  5748                           
  5749                           ;ECU/LCD_for_test_gps/ecu_char_lcd.c: 174:         {;ECU/LCD_for_test_gps/ecu_char_lcd.c
      +                          : 175:            lcd_4bit_send_char_data(lcd,*str++) ;
  5750  0032E0  C096  F08B         	movff	lcd_4bit_send_string_data_pos@lcd,lcd_4bit_send_char_data@lcd
  5751  0032E4  C097  F08C         	movff	lcd_4bit_send_string_data_pos@lcd+1,lcd_4bit_send_char_data@lcd+1
  5752  0032E8  C09A  FFF6         	movff	lcd_4bit_send_string_data_pos@str,tblptrl
  5753  0032EC  C09B  FFF7         	movff	lcd_4bit_send_string_data_pos@str+1,tblptrh
  5754  0032F0  0E00               	movlw	low (__smallconst shr (0+16))
  5755  0032F2  6EF8               	movwf	tblptru,c
  5756  0032F4  0E0F               	movlw	(high __ramtop+-1)
  5757  0032F6  64F7               	cpfsgt	tblptrh,c
  5758  0032F8  D003               	bra	u8427
  5759  0032FA  0008               	tblrd		*
  5760  0032FC  50F5               	movf	tablat,w,c
  5761  0032FE  D005               	bra	u8420
  5762  003300                     u8427:
  5763  003300  CFF6 FFE9          	movff	tblptrl,fsr0l
  5764  003304  CFF7 FFEA          	movff	tblptrh,fsr0h
  5765  003308  50EF               	movf	indf0,w,c
  5766  00330A                     u8420:
  5767  00330A  0100               	movlb	0	; () banked
  5768  00330C  6F8D               	movwf	lcd_4bit_send_char_data@data& (0+255),b
  5769  00330E  ECA7  F01C         	call	_lcd_4bit_send_char_data	;wreg free
  5770  003312  0100               	movlb	0	; () banked
  5771  003314  4B9A               	infsnz	lcd_4bit_send_string_data_pos@str& (0+255),f,b
  5772  003316  2B9B               	incf	(lcd_4bit_send_string_data_pos@str+1)& (0+255),f,b
  5773  003318                     l7529:
  5774                           
  5775                           ;ECU/LCD_for_test_gps/ecu_char_lcd.c: 173:         while(*str)
  5776  003318  C09A  FFF6         	movff	lcd_4bit_send_string_data_pos@str,tblptrl
  5777  00331C  C09B  FFF7         	movff	lcd_4bit_send_string_data_pos@str+1,tblptrh
  5778  003320  0E00               	movlw	low (__smallconst shr (0+16))
  5779  003322  6EF8               	movwf	tblptru,c
  5780  003324  0E0F               	movlw	(high __ramtop+-1)
  5781  003326  64F7               	cpfsgt	tblptrh,c
  5782  003328  D003               	bra	u8437
  5783  00332A  0008               	tblrd		*
  5784  00332C  50F5               	movf	tablat,w,c
  5785  00332E  D005               	bra	u8430
  5786  003330                     u8437:
  5787  003330  CFF6 FFE9          	movff	tblptrl,fsr0l
  5788  003334  CFF7 FFEA          	movff	tblptrh,fsr0h
  5789  003338  50EF               	movf	indf0,w,c
  5790  00333A                     u8430:
  5791  00333A  0900               	iorlw	0
  5792  00333C  A4D8               	btfss	status,2,c
  5793  00333E  EFA3  F019         	goto	u8441
  5794  003342  EFA5  F019         	goto	u8440
  5795  003346                     u8441:
  5796  003346  EF70  F019         	goto	l7525
  5797  00334A                     u8440:
  5798  00334A                     l112:
  5799  00334A  0012               	return		;funcret
  5800  00334C                     __end_of_lcd_4bit_send_string_data_pos:
  5801                           	callstack 0
  5802                           
  5803 ;; *************** function _lcd_4bits_set_courser *****************
  5804 ;; Defined at:
  5805 ;;		line 567 in file "ECU/LCD_for_test_gps/ecu_char_lcd.c"
  5806 ;; Parameters:    Size  Location     Type
  5807 ;;  lcd             2   15[BANK0 ] PTR const struct .
  5808 ;;		 -> lcd1(6), 
  5809 ;;  row             1   17[BANK0 ] unsigned char 
  5810 ;;  colum           1   18[BANK0 ] unsigned char 
  5811 ;; Auto vars:     Size  Location     Type
  5812 ;;  ERRORSTATUS     1    0        unsigned char 
  5813 ;; Return value:  Size  Location     Type
  5814 ;;                  1    wreg      unsigned char 
  5815 ;; Registers used:
  5816 ;;		wreg, fsr2l, fsr2h, status,2, status,0, prodl, prodh, cstack
  5817 ;; Tracked objects:
  5818 ;;		On entry : 0/0
  5819 ;;		On exit  : 0/0
  5820 ;;		Unchanged: 0/0
  5821 ;; Data sizes:     COMRAM   BANK0   BANK1   BANK2   BANK3   BANK4   BANK5   BANK6   BANK7   BANK8   BANK9  BANK10  BANK1
      +1  BANK12  BANK13  BANK14  BANK15
  5822 ;;      Params:         0       4       0       0       0       0       0       0       0       0       0       0       
      +0       0       0       0       0
  5823 ;;      Locals:         0       1       0       0       0       0       0       0       0       0       0       0       
      +0       0       0       0       0
  5824 ;;      Temps:          0       2       0       0       0       0       0       0       0       0       0       0       
      +0       0       0       0       0
  5825 ;;      Totals:         0       7       0       0       0       0       0       0       0       0       0       0       
      +0       0       0       0       0
  5826 ;;Total ram usage:        7 bytes
  5827 ;; Hardware stack levels used:    1
  5828 ;; Hardware stack levels required when called:   13
  5829 ;; This function calls:
  5830 ;;		_lcd_4bit_send_command
  5831 ;; This function is called by:
  5832 ;;		_lcd_4bit_send_string_data_pos
  5833 ;; This function uses a non-reentrant model
  5834 ;;
  5835                           
  5836                           	psect	text16
  5837  00313C                     __ptext16:
  5838                           	callstack 0
  5839  00313C                     _lcd_4bits_set_courser:
  5840                           	callstack 16
  5841  00313C                     
  5842                           ;ECU/LCD_for_test_gps/ecu_char_lcd.c: 570:         if ( ((void*)0)==lcd)
  5843  00313C  0100               	movlb	0	; () banked
  5844  00313E  518F               	movf	lcd_4bits_set_courser@lcd& (0+255),w,b
  5845  003140  1190               	iorwf	(lcd_4bits_set_courser@lcd+1)& (0+255),w,b
  5846  003142  A4D8               	btfss	status,2,c
  5847  003144  EFA6  F018         	goto	u8201
  5848  003148  EFA8  F018         	goto	u8200
  5849  00314C                     u8201:
  5850  00314C  EFAA  F018         	goto	l7323
  5851  003150                     u8200:
  5852  003150                     
  5853                           ; BSR set to: 0
  5854                           ;ECU/LCD_for_test_gps/ecu_char_lcd.c: 573:     }
  5855  003150  EFF6  F018         	goto	l228
  5856  003154                     l7323:
  5857                           
  5858                           ; BSR set to: 0
  5859                           ;ECU/LCD_for_test_gps/ecu_char_lcd.c: 575:     {;ECU/LCD_for_test_gps/ecu_char_lcd.c: 57
      +                          6:             colum--;
  5860  003154  0792               	decf	lcd_4bits_set_courser@colum& (0+255),f,b
  5861                           
  5862                           ;ECU/LCD_for_test_gps/ecu_char_lcd.c: 577:             switch (row)
  5863  003156  EFD9  F018         	goto	l7335
  5864  00315A                     l7325:
  5865                           
  5866                           ; BSR set to: 0
  5867  00315A  C08F  F08B         	movff	lcd_4bits_set_courser@lcd,lcd_4bit_send_command@lcd
  5868  00315E  C090  F08C         	movff	lcd_4bits_set_courser@lcd+1,lcd_4bit_send_command@lcd+1
  5869  003162  5192               	movf	lcd_4bits_set_courser@colum& (0+255),w,b
  5870  003164  0F80               	addlw	128
  5871  003166  6F8D               	movwf	lcd_4bit_send_command@command& (0+255),b
  5872  003168  ECF7  F01A         	call	_lcd_4bit_send_command	;wreg free
  5873  00316C  EFF6  F018         	goto	l228
  5874  003170                     l7327:
  5875                           
  5876                           ; BSR set to: 0
  5877  003170  C08F  F08B         	movff	lcd_4bits_set_courser@lcd,lcd_4bit_send_command@lcd
  5878  003174  C090  F08C         	movff	lcd_4bits_set_courser@lcd+1,lcd_4bit_send_command@lcd+1
  5879  003178  5192               	movf	lcd_4bits_set_courser@colum& (0+255),w,b
  5880  00317A  0FC0               	addlw	192
  5881  00317C  6F8D               	movwf	lcd_4bit_send_command@command& (0+255),b
  5882  00317E  ECF7  F01A         	call	_lcd_4bit_send_command	;wreg free
  5883  003182  EFF6  F018         	goto	l228
  5884  003186                     l7329:
  5885                           
  5886                           ; BSR set to: 0
  5887  003186  C08F  F08B         	movff	lcd_4bits_set_courser@lcd,lcd_4bit_send_command@lcd
  5888  00318A  C090  F08C         	movff	lcd_4bits_set_courser@lcd+1,lcd_4bit_send_command@lcd+1
  5889  00318E  5192               	movf	lcd_4bits_set_courser@colum& (0+255),w,b
  5890  003190  0F94               	addlw	148
  5891  003192  6F8D               	movwf	lcd_4bit_send_command@command& (0+255),b
  5892  003194  ECF7  F01A         	call	_lcd_4bit_send_command	;wreg free
  5893  003198  EFF6  F018         	goto	l228
  5894  00319C                     l7331:
  5895                           
  5896                           ; BSR set to: 0
  5897  00319C  C08F  F08B         	movff	lcd_4bits_set_courser@lcd,lcd_4bit_send_command@lcd
  5898  0031A0  C090  F08C         	movff	lcd_4bits_set_courser@lcd+1,lcd_4bit_send_command@lcd+1
  5899  0031A4  5192               	movf	lcd_4bits_set_courser@colum& (0+255),w,b
  5900  0031A6  0FD4               	addlw	212
  5901  0031A8  6F8D               	movwf	lcd_4bit_send_command@command& (0+255),b
  5902  0031AA  ECF7  F01A         	call	_lcd_4bit_send_command	;wreg free
  5903  0031AE  EFF6  F018         	goto	l228
  5904  0031B2                     l7335:
  5905                           
  5906                           ; BSR set to: 0
  5907  0031B2  5191               	movf	lcd_4bits_set_courser@row& (0+255),w,b
  5908  0031B4  6F93               	movwf	??_lcd_4bits_set_courser& (0+255),b
  5909  0031B6  6B94               	clrf	(??_lcd_4bits_set_courser+1)& (0+255),b
  5910                           
  5911                           ; Switch on 2 bytes has been partitioned into a top level switch of size 1, and 1 sub-sw
      +                          itches
  5912                           ; Switch size 1, requested type "simple"
  5913                           ; Number of cases is 1, Range of values is 0 to 0
  5914                           ; switch strategies available:
  5915                           ; Name         Instructions Cycles
  5916                           ; simple_byte            4     3 (average)
  5917                           ;	Chosen strategy is simple_byte
  5918  0031B8  5194               	movf	(??_lcd_4bits_set_courser+1)& (0+255),w,b
  5919  0031BA  0A00               	xorlw	0	; case 0
  5920  0031BC  B4D8               	btfsc	status,2,c
  5921  0031BE  EFE3  F018         	goto	l8203
  5922  0031C2  EFF6  F018         	goto	l228
  5923  0031C6                     l8203:
  5924                           
  5925                           ; BSR set to: 0
  5926                           ; Switch size 1, requested type "simple"
  5927                           ; Number of cases is 4, Range of values is 1 to 4
  5928                           ; switch strategies available:
  5929                           ; Name         Instructions Cycles
  5930                           ; simple_byte           13     7 (average)
  5931                           ;	Chosen strategy is simple_byte
  5932  0031C6  5193               	movf	??_lcd_4bits_set_courser& (0+255),w,b
  5933  0031C8  0A01               	xorlw	1	; case 1
  5934  0031CA  B4D8               	btfsc	status,2,c
  5935  0031CC  EFAD  F018         	goto	l7325
  5936  0031D0  0A03               	xorlw	3	; case 2
  5937  0031D2  B4D8               	btfsc	status,2,c
  5938  0031D4  EFB8  F018         	goto	l7327
  5939  0031D8  0A01               	xorlw	1	; case 3
  5940  0031DA  B4D8               	btfsc	status,2,c
  5941  0031DC  EFC3  F018         	goto	l7329
  5942  0031E0  0A07               	xorlw	7	; case 4
  5943  0031E2  B4D8               	btfsc	status,2,c
  5944  0031E4  EFCE  F018         	goto	l7331
  5945  0031E8  EFF6  F018         	goto	l228
  5946  0031EC                     l228:
  5947  0031EC  0012               	return		;funcret
  5948  0031EE                     __end_of_lcd_4bits_set_courser:
  5949                           	callstack 0
  5950                           
  5951 ;; *************** function _lcd_4bit_send_command *****************
  5952 ;; Defined at:
  5953 ;;		line 65 in file "ECU/LCD_for_test_gps/ecu_char_lcd.c"
  5954 ;; Parameters:    Size  Location     Type
  5955 ;;  lcd             2   11[BANK0 ] PTR const struct .
  5956 ;;		 -> lcd1(6), 
  5957 ;;  command         1   13[BANK0 ] unsigned char 
  5958 ;; Auto vars:     Size  Location     Type
  5959 ;;  ERRORSTATUS     1   14[BANK0 ] unsigned char 
  5960 ;; Return value:  Size  Location     Type
  5961 ;;                  1    wreg      unsigned char 
  5962 ;; Registers used:
  5963 ;;		wreg, fsr2l, fsr2h, status,2, status,0, prodl, prodh, cstack
  5964 ;; Tracked objects:
  5965 ;;		On entry : 0/0
  5966 ;;		On exit  : 0/0
  5967 ;;		Unchanged: 0/0
  5968 ;; Data sizes:     COMRAM   BANK0   BANK1   BANK2   BANK3   BANK4   BANK5   BANK6   BANK7   BANK8   BANK9  BANK10  BANK1
      +1  BANK12  BANK13  BANK14  BANK15
  5969 ;;      Params:         0       3       0       0       0       0       0       0       0       0       0       0       
      +0       0       0       0       0
  5970 ;;      Locals:         0       1       0       0       0       0       0       0       0       0       0       0       
      +0       0       0       0       0
  5971 ;;      Temps:          0       0       0       0       0       0       0       0       0       0       0       0       
      +0       0       0       0       0
  5972 ;;      Totals:         0       4       0       0       0       0       0       0       0       0       0       0       
      +0       0       0       0       0
  5973 ;;Total ram usage:        4 bytes
  5974 ;; Hardware stack levels used:    1
  5975 ;; Hardware stack levels required when called:   12
  5976 ;; This function calls:
  5977 ;;		_GPIO_Pin_Write_Logic
  5978 ;;		_lcd_4bits_send_enable_signal
  5979 ;;		_lcd_send_4bits
  5980 ;; This function is called by:
  5981 ;;		_lcd_4bit_initialize
  5982 ;;		_lcd_4bits_set_courser
  5983 ;;		_lcd_4bit_send_custom_char
  5984 ;; This function uses a non-reentrant model
  5985 ;;
  5986                           
  5987                           	psect	text17
  5988  0035EE                     __ptext17:
  5989                           	callstack 0
  5990  0035EE                     _lcd_4bit_send_command:
  5991                           	callstack 16
  5992  0035EE                     
  5993                           ;ECU/LCD_for_test_gps/ecu_char_lcd.c: 68:     if ( ((void*)0)==lcd)
  5994  0035EE  0100               	movlb	0	; () banked
  5995  0035F0  518B               	movf	lcd_4bit_send_command@lcd& (0+255),w,b
  5996  0035F2  118C               	iorwf	(lcd_4bit_send_command@lcd+1)& (0+255),w,b
  5997  0035F4  A4D8               	btfss	status,2,c
  5998  0035F6  EFFF  F01A         	goto	u7061
  5999  0035FA  EF01  F01B         	goto	u7060
  6000  0035FE                     u7061:
  6001  0035FE  EF05  F01B         	goto	l6701
  6002  003602                     u7060:
  6003  003602                     
  6004                           ; BSR set to: 0
  6005                           ;ECU/LCD_for_test_gps/ecu_char_lcd.c: 69:     {;ECU/LCD_for_test_gps/ecu_char_lcd.c: 70:
      +                                   ERRORSTATUS=(Std_returnType) 0x00;
  6006  003602  0E00               	movlw	0
  6007  003604  6F8E               	movwf	lcd_4bit_send_command@ERRORSTATUS& (0+255),b
  6008                           
  6009                           ;ECU/LCD_for_test_gps/ecu_char_lcd.c: 71:     }
  6010  003606  EF2C  F01B         	goto	l6703
  6011  00360A                     l6701:
  6012                           
  6013                           ; BSR set to: 0
  6014                           ;ECU/LCD_for_test_gps/ecu_char_lcd.c: 73:     {;ECU/LCD_for_test_gps/ecu_char_lcd.c: 74:
      +                                ERRORSTATUS= GPIO_Pin_Write_Logic(&(lcd->lcd_rs_pin),GPIO_LOW);
  6015  00360A  C08B  F02A         	movff	lcd_4bit_send_command@lcd,GPIO_Pin_Write_Logic@_pin_config
  6016  00360E  C08C  F02B         	movff	lcd_4bit_send_command@lcd+1,GPIO_Pin_Write_Logic@_pin_config+1
  6017  003612  0E00               	movlw	0
  6018  003614  6E2C               	movwf	GPIO_Pin_Write_Logic@logic^0,c
  6019  003616  EC99  F015         	call	_GPIO_Pin_Write_Logic	;wreg free
  6020  00361A  0100               	movlb	0	; () banked
  6021  00361C  6F8E               	movwf	lcd_4bit_send_command@ERRORSTATUS& (0+255),b
  6022                           
  6023                           ;ECU/LCD_for_test_gps/ecu_char_lcd.c: 75:     lcd_send_4bits(lcd,(command>>4));
  6024  00361E  C08B  F087         	movff	lcd_4bit_send_command@lcd,lcd_send_4bits@lcd
  6025  003622  C08C  F088         	movff	lcd_4bit_send_command@lcd+1,lcd_send_4bits@lcd+1
  6026  003626  398D               	swapf	lcd_4bit_send_command@command& (0+255),w,b
  6027  003628  0B0F               	andlw	15
  6028  00362A  6F89               	movwf	lcd_send_4bits@data_command& (0+255),b
  6029  00362C  EC3F  F01A         	call	_lcd_send_4bits	;wreg free
  6030                           
  6031                           ;ECU/LCD_for_test_gps/ecu_char_lcd.c: 76:     lcd_4bits_send_enable_signal(lcd);
  6032  003630  C08B  F087         	movff	lcd_4bit_send_command@lcd,lcd_4bits_send_enable_signal@lcd
  6033  003634  C08C  F088         	movff	lcd_4bit_send_command@lcd+1,lcd_4bits_send_enable_signal@lcd+1
  6034  003638  EC95  F01D         	call	_lcd_4bits_send_enable_signal	;wreg free
  6035                           
  6036                           ;ECU/LCD_for_test_gps/ecu_char_lcd.c: 77:     lcd_send_4bits(lcd,command);
  6037  00363C  C08B  F087         	movff	lcd_4bit_send_command@lcd,lcd_send_4bits@lcd
  6038  003640  C08C  F088         	movff	lcd_4bit_send_command@lcd+1,lcd_send_4bits@lcd+1
  6039  003644  C08D  F089         	movff	lcd_4bit_send_command@command,lcd_send_4bits@data_command
  6040  003648  EC3F  F01A         	call	_lcd_send_4bits	;wreg free
  6041                           
  6042                           ;ECU/LCD_for_test_gps/ecu_char_lcd.c: 78:     lcd_4bits_send_enable_signal(lcd);
  6043  00364C  C08B  F087         	movff	lcd_4bit_send_command@lcd,lcd_4bits_send_enable_signal@lcd
  6044  003650  C08C  F088         	movff	lcd_4bit_send_command@lcd+1,lcd_4bits_send_enable_signal@lcd+1
  6045  003654  EC95  F01D         	call	_lcd_4bits_send_enable_signal	;wreg free
  6046  003658                     l6703:
  6047                           
  6048                           ;ECU/LCD_for_test_gps/ecu_char_lcd.c: 82:     return ERRORSTATUS;
  6049  003658  0100               	movlb	0	; () banked
  6050  00365A  518E               	movf	lcd_4bit_send_command@ERRORSTATUS& (0+255),w,b
  6051  00365C                     
  6052                           ; BSR set to: 0
  6053  00365C  0012               	return		;funcret
  6054  00365E                     __end_of_lcd_4bit_send_command:
  6055                           	callstack 0
  6056                           
  6057 ;; *************** function _lcd_4bit_send_char_data *****************
  6058 ;; Defined at:
  6059 ;;		line 90 in file "ECU/LCD_for_test_gps/ecu_char_lcd.c"
  6060 ;; Parameters:    Size  Location     Type
  6061 ;;  lcd             2   11[BANK0 ] PTR const struct .
  6062 ;;		 -> lcd1(6), 
  6063 ;;  data            1   13[BANK0 ] unsigned char 
  6064 ;; Auto vars:     Size  Location     Type
  6065 ;;  ERRORSTATUS     1    0        unsigned char 
  6066 ;; Return value:  Size  Location     Type
  6067 ;;                  1    wreg      unsigned char 
  6068 ;; Registers used:
  6069 ;;		wreg, fsr2l, fsr2h, status,2, status,0, prodl, prodh, cstack
  6070 ;; Tracked objects:
  6071 ;;		On entry : 0/0
  6072 ;;		On exit  : 0/0
  6073 ;;		Unchanged: 0/0
  6074 ;; Data sizes:     COMRAM   BANK0   BANK1   BANK2   BANK3   BANK4   BANK5   BANK6   BANK7   BANK8   BANK9  BANK10  BANK1
      +1  BANK12  BANK13  BANK14  BANK15
  6075 ;;      Params:         0       3       0       0       0       0       0       0       0       0       0       0       
      +0       0       0       0       0
  6076 ;;      Locals:         0       1       0       0       0       0       0       0       0       0       0       0       
      +0       0       0       0       0
  6077 ;;      Temps:          0       0       0       0       0       0       0       0       0       0       0       0       
      +0       0       0       0       0
  6078 ;;      Totals:         0       4       0       0       0       0       0       0       0       0       0       0       
      +0       0       0       0       0
  6079 ;;Total ram usage:        4 bytes
  6080 ;; Hardware stack levels used:    1
  6081 ;; Hardware stack levels required when called:   12
  6082 ;; This function calls:
  6083 ;;		_GPIO_Pin_Write_Logic
  6084 ;;		_lcd_4bits_send_enable_signal
  6085 ;;		_lcd_send_4bits
  6086 ;; This function is called by:
  6087 ;;		_lcd_4bit_send_string_data_pos
  6088 ;;		_lcd_4bit_send_string_data
  6089 ;;		_lcd_4bit_send_custom_char
  6090 ;; This function uses a non-reentrant model
  6091 ;;
  6092                           
  6093                           	psect	text18
  6094  00394E                     __ptext18:
  6095                           	callstack 0
  6096  00394E                     _lcd_4bit_send_char_data:
  6097                           	callstack 17
  6098  00394E                     
  6099                           ;ECU/LCD_for_test_gps/ecu_char_lcd.c: 93:     if ( ((void*)0)==lcd)
  6100  00394E  0100               	movlb	0	; () banked
  6101  003950  518B               	movf	lcd_4bit_send_char_data@lcd& (0+255),w,b
  6102  003952  118C               	iorwf	(lcd_4bit_send_char_data@lcd+1)& (0+255),w,b
  6103  003954  A4D8               	btfss	status,2,c
  6104  003956  EFAF  F01C         	goto	u8191
  6105  00395A  EFB1  F01C         	goto	u8190
  6106  00395E                     u8191:
  6107  00395E  EFB3  F01C         	goto	l7313
  6108  003962                     u8190:
  6109  003962                     
  6110                           ; BSR set to: 0
  6111                           ;ECU/LCD_for_test_gps/ecu_char_lcd.c: 96:     }
  6112  003962  EFD9  F01C         	goto	l87
  6113  003966                     l7313:
  6114                           
  6115                           ; BSR set to: 0
  6116  003966  C08B  F02A         	movff	lcd_4bit_send_char_data@lcd,GPIO_Pin_Write_Logic@_pin_config
  6117  00396A  C08C  F02B         	movff	lcd_4bit_send_char_data@lcd+1,GPIO_Pin_Write_Logic@_pin_config+1
  6118  00396E  0E01               	movlw	1
  6119  003970  6E2C               	movwf	GPIO_Pin_Write_Logic@logic^0,c
  6120  003972  EC99  F015         	call	_GPIO_Pin_Write_Logic	;wreg free
  6121                           
  6122                           ;ECU/LCD_for_test_gps/ecu_char_lcd.c: 100:     lcd_send_4bits(lcd,(data>>4));
  6123  003976  C08B  F087         	movff	lcd_4bit_send_char_data@lcd,lcd_send_4bits@lcd
  6124  00397A  C08C  F088         	movff	lcd_4bit_send_char_data@lcd+1,lcd_send_4bits@lcd+1
  6125  00397E  0100               	movlb	0	; () banked
  6126  003980  398D               	swapf	lcd_4bit_send_char_data@data& (0+255),w,b
  6127  003982  0B0F               	andlw	15
  6128  003984  6F89               	movwf	lcd_send_4bits@data_command& (0+255),b
  6129  003986  EC3F  F01A         	call	_lcd_send_4bits	;wreg free
  6130                           
  6131                           ;ECU/LCD_for_test_gps/ecu_char_lcd.c: 101:     lcd_4bits_send_enable_signal(lcd);
  6132  00398A  C08B  F087         	movff	lcd_4bit_send_char_data@lcd,lcd_4bits_send_enable_signal@lcd
  6133  00398E  C08C  F088         	movff	lcd_4bit_send_char_data@lcd+1,lcd_4bits_send_enable_signal@lcd+1
  6134  003992  EC95  F01D         	call	_lcd_4bits_send_enable_signal	;wreg free
  6135                           
  6136                           ;ECU/LCD_for_test_gps/ecu_char_lcd.c: 102:     lcd_send_4bits(lcd,data);
  6137  003996  C08B  F087         	movff	lcd_4bit_send_char_data@lcd,lcd_send_4bits@lcd
  6138  00399A  C08C  F088         	movff	lcd_4bit_send_char_data@lcd+1,lcd_send_4bits@lcd+1
  6139  00399E  C08D  F089         	movff	lcd_4bit_send_char_data@data,lcd_send_4bits@data_command
  6140  0039A2  EC3F  F01A         	call	_lcd_send_4bits	;wreg free
  6141                           
  6142                           ;ECU/LCD_for_test_gps/ecu_char_lcd.c: 103:     lcd_4bits_send_enable_signal(lcd);
  6143  0039A6  C08B  F087         	movff	lcd_4bit_send_char_data@lcd,lcd_4bits_send_enable_signal@lcd
  6144  0039AA  C08C  F088         	movff	lcd_4bit_send_char_data@lcd+1,lcd_4bits_send_enable_signal@lcd+1
  6145  0039AE  EC95  F01D         	call	_lcd_4bits_send_enable_signal	;wreg free
  6146  0039B2                     l87:
  6147  0039B2  0012               	return		;funcret
  6148  0039B4                     __end_of_lcd_4bit_send_char_data:
  6149                           	callstack 0
  6150                           
  6151 ;; *************** function _lcd_send_4bits *****************
  6152 ;; Defined at:
  6153 ;;		line 505 in file "ECU/LCD_for_test_gps/ecu_char_lcd.c"
  6154 ;; Parameters:    Size  Location     Type
  6155 ;;  lcd             2    7[BANK0 ] PTR const struct .
  6156 ;;		 -> lcd1(6), 
  6157 ;;  data_command    1    9[BANK0 ] unsigned char 
  6158 ;; Auto vars:     Size  Location     Type
  6159 ;;  ERRORSTATUS     1    0        unsigned char 
  6160 ;; Return value:  Size  Location     Type
  6161 ;;                  1    wreg      unsigned char 
  6162 ;; Registers used:
  6163 ;;		wreg, fsr2l, fsr2h, status,2, status,0, prodl, prodh, cstack
  6164 ;; Tracked objects:
  6165 ;;		On entry : 0/0
  6166 ;;		On exit  : 0/0
  6167 ;;		Unchanged: 0/0
  6168 ;; Data sizes:     COMRAM   BANK0   BANK1   BANK2   BANK3   BANK4   BANK5   BANK6   BANK7   BANK8   BANK9  BANK10  BANK1
      +1  BANK12  BANK13  BANK14  BANK15
  6169 ;;      Params:         0       3       0       0       0       0       0       0       0       0       0       0       
      +0       0       0       0       0
  6170 ;;      Locals:         0       1       0       0       0       0       0       0       0       0       0       0       
      +0       0       0       0       0
  6171 ;;      Temps:          0       0       0       0       0       0       0       0       0       0       0       0       
      +0       0       0       0       0
  6172 ;;      Totals:         0       4       0       0       0       0       0       0       0       0       0       0       
      +0       0       0       0       0
  6173 ;;Total ram usage:        4 bytes
  6174 ;; Hardware stack levels used:    1
  6175 ;; Hardware stack levels required when called:   11
  6176 ;; This function calls:
  6177 ;;		_GPIO_Pin_Write_Logic
  6178 ;; This function is called by:
  6179 ;;		_lcd_4bit_send_command
  6180 ;;		_lcd_4bit_send_char_data
  6181 ;; This function uses a non-reentrant model
  6182 ;;
  6183                           
  6184                           	psect	text19
  6185  00347E                     __ptext19:
  6186                           	callstack 0
  6187  00347E                     _lcd_send_4bits:
  6188                           	callstack 16
  6189  00347E                     
  6190                           ;ECU/LCD_for_test_gps/ecu_char_lcd.c: 508:         if ( ((void*)0)==lcd)
  6191  00347E  0100               	movlb	0	; () banked
  6192  003480  5187               	movf	lcd_send_4bits@lcd& (0+255),w,b
  6193  003482  1188               	iorwf	(lcd_send_4bits@lcd+1)& (0+255),w,b
  6194  003484  A4D8               	btfss	status,2,c
  6195  003486  EF47  F01A         	goto	u7041
  6196  00348A  EF49  F01A         	goto	u7040
  6197  00348E                     u7041:
  6198  00348E  EF4B  F01A         	goto	l6677
  6199  003492                     u7040:
  6200  003492                     
  6201                           ; BSR set to: 0
  6202                           ;ECU/LCD_for_test_gps/ecu_char_lcd.c: 511:     }
  6203  003492  EF7F  F01A         	goto	l199
  6204  003496                     l6677:
  6205                           
  6206                           ; BSR set to: 0
  6207                           ;ECU/LCD_for_test_gps/ecu_char_lcd.c: 513:     {;ECU/LCD_for_test_gps/ecu_char_lcd.c: 51
      +                          4:             GPIO_Pin_Write_Logic(&(lcd->lcd_data_pins[0]),((data_command>>0)&(uint8)0
      +                          x01));
  6208  003496  0E02               	movlw	2
  6209  003498  2587               	addwf	lcd_send_4bits@lcd& (0+255),w,b
  6210  00349A  6E2A               	movwf	GPIO_Pin_Write_Logic@_pin_config^0,c
  6211  00349C  0E00               	movlw	0
  6212  00349E  2188               	addwfc	(lcd_send_4bits@lcd+1)& (0+255),w,b
  6213  0034A0  6E2B               	movwf	(GPIO_Pin_Write_Logic@_pin_config+1)^0,c
  6214  0034A2  5189               	movf	lcd_send_4bits@data_command& (0+255),w,b
  6215  0034A4  0B01               	andlw	1
  6216  0034A6  6E2C               	movwf	GPIO_Pin_Write_Logic@logic^0,c
  6217  0034A8  EC99  F015         	call	_GPIO_Pin_Write_Logic	;wreg free
  6218                           
  6219                           ;ECU/LCD_for_test_gps/ecu_char_lcd.c: 515:             GPIO_Pin_Write_Logic(&(lcd->lcd_d
      +                          ata_pins[1]),((data_command>>1)&(uint8)0x01));
  6220  0034AC  0E03               	movlw	3
  6221  0034AE  0100               	movlb	0	; () banked
  6222  0034B0  2587               	addwf	lcd_send_4bits@lcd& (0+255),w,b
  6223  0034B2  6E2A               	movwf	GPIO_Pin_Write_Logic@_pin_config^0,c
  6224  0034B4  0E00               	movlw	0
  6225  0034B6  2188               	addwfc	(lcd_send_4bits@lcd+1)& (0+255),w,b
  6226  0034B8  6E2B               	movwf	(GPIO_Pin_Write_Logic@_pin_config+1)^0,c
  6227  0034BA  90D8               	bcf	status,0,c
  6228  0034BC  3189               	rrcf	lcd_send_4bits@data_command& (0+255),w,b
  6229  0034BE  0B01               	andlw	1
  6230  0034C0  6E2C               	movwf	GPIO_Pin_Write_Logic@logic^0,c
  6231  0034C2  EC99  F015         	call	_GPIO_Pin_Write_Logic	;wreg free
  6232                           
  6233                           ;ECU/LCD_for_test_gps/ecu_char_lcd.c: 516:             GPIO_Pin_Write_Logic(&(lcd->lcd_d
      +                          ata_pins[2]),((data_command>>2)&(uint8)0x01));
  6234  0034C6  0E04               	movlw	4
  6235  0034C8  0100               	movlb	0	; () banked
  6236  0034CA  2587               	addwf	lcd_send_4bits@lcd& (0+255),w,b
  6237  0034CC  6E2A               	movwf	GPIO_Pin_Write_Logic@_pin_config^0,c
  6238  0034CE  0E00               	movlw	0
  6239  0034D0  2188               	addwfc	(lcd_send_4bits@lcd+1)& (0+255),w,b
  6240  0034D2  6E2B               	movwf	(GPIO_Pin_Write_Logic@_pin_config+1)^0,c
  6241  0034D4  4189               	rrncf	lcd_send_4bits@data_command& (0+255),w,b
  6242  0034D6  42E8               	rrncf	wreg,f,c
  6243  0034D8  0B3F               	andlw	63
  6244  0034DA  0B01               	andlw	1
  6245  0034DC  6E2C               	movwf	GPIO_Pin_Write_Logic@logic^0,c
  6246  0034DE  EC99  F015         	call	_GPIO_Pin_Write_Logic	;wreg free
  6247                           
  6248                           ;ECU/LCD_for_test_gps/ecu_char_lcd.c: 517:             GPIO_Pin_Write_Logic(&(lcd->lcd_d
      +                          ata_pins[3]),((data_command>>3)&(uint8)0x01));
  6249  0034E2  0E05               	movlw	5
  6250  0034E4  0100               	movlb	0	; () banked
  6251  0034E6  2587               	addwf	lcd_send_4bits@lcd& (0+255),w,b
  6252  0034E8  6E2A               	movwf	GPIO_Pin_Write_Logic@_pin_config^0,c
  6253  0034EA  0E00               	movlw	0
  6254  0034EC  2188               	addwfc	(lcd_send_4bits@lcd+1)& (0+255),w,b
  6255  0034EE  6E2B               	movwf	(GPIO_Pin_Write_Logic@_pin_config+1)^0,c
  6256  0034F0  3989               	swapf	lcd_send_4bits@data_command& (0+255),w,b
  6257  0034F2  46E8               	rlncf	wreg,f,c
  6258  0034F4  0B1F               	andlw	31
  6259  0034F6  0B01               	andlw	1
  6260  0034F8  6E2C               	movwf	GPIO_Pin_Write_Logic@logic^0,c
  6261  0034FA  EC99  F015         	call	_GPIO_Pin_Write_Logic	;wreg free
  6262  0034FE                     l199:
  6263  0034FE  0012               	return		;funcret
  6264  003500                     __end_of_lcd_send_4bits:
  6265                           	callstack 0
  6266                           
  6267 ;; *************** function _lcd_4bits_send_enable_signal *****************
  6268 ;; Defined at:
  6269 ;;		line 488 in file "ECU/LCD_for_test_gps/ecu_char_lcd.c"
  6270 ;; Parameters:    Size  Location     Type
  6271 ;;  lcd             2    7[BANK0 ] PTR const struct .
  6272 ;;		 -> lcd1(6), 
  6273 ;; Auto vars:     Size  Location     Type
  6274 ;;  ERRORSTATUS     1    0        unsigned char 
  6275 ;; Return value:  Size  Location     Type
  6276 ;;                  1    wreg      unsigned char 
  6277 ;; Registers used:
  6278 ;;		wreg, fsr2l, fsr2h, status,2, status,0, prodl, prodh, cstack
  6279 ;; Tracked objects:
  6280 ;;		On entry : 0/0
  6281 ;;		On exit  : 0/0
  6282 ;;		Unchanged: 0/0
  6283 ;; Data sizes:     COMRAM   BANK0   BANK1   BANK2   BANK3   BANK4   BANK5   BANK6   BANK7   BANK8   BANK9  BANK10  BANK1
      +1  BANK12  BANK13  BANK14  BANK15
  6284 ;;      Params:         0       2       0       0       0       0       0       0       0       0       0       0       
      +0       0       0       0       0
  6285 ;;      Locals:         0       1       0       0       0       0       0       0       0       0       0       0       
      +0       0       0       0       0
  6286 ;;      Temps:          0       0       0       0       0       0       0       0       0       0       0       0       
      +0       0       0       0       0
  6287 ;;      Totals:         0       3       0       0       0       0       0       0       0       0       0       0       
      +0       0       0       0       0
  6288 ;;Total ram usage:        3 bytes
  6289 ;; Hardware stack levels used:    1
  6290 ;; Hardware stack levels required when called:   11
  6291 ;; This function calls:
  6292 ;;		_GPIO_Pin_Write_Logic
  6293 ;; This function is called by:
  6294 ;;		_lcd_4bit_send_command
  6295 ;;		_lcd_4bit_send_char_data
  6296 ;; This function uses a non-reentrant model
  6297 ;;
  6298                           
  6299                           	psect	text20
  6300  003B2A                     __ptext20:
  6301                           	callstack 0
  6302  003B2A                     _lcd_4bits_send_enable_signal:
  6303                           	callstack 16
  6304  003B2A                     
  6305                           ;ECU/LCD_for_test_gps/ecu_char_lcd.c: 491:         if ( ((void*)0)==lcd)
  6306  003B2A  0100               	movlb	0	; () banked
  6307  003B2C  5187               	movf	lcd_4bits_send_enable_signal@lcd& (0+255),w,b
  6308  003B2E  1188               	iorwf	(lcd_4bits_send_enable_signal@lcd+1)& (0+255),w,b
  6309  003B30  A4D8               	btfss	status,2,c
  6310  003B32  EF9D  F01D         	goto	u7051
  6311  003B36  EF9F  F01D         	goto	u7050
  6312  003B3A                     u7051:
  6313  003B3A  EFA1  F01D         	goto	l6687
  6314  003B3E                     u7050:
  6315  003B3E                     
  6316                           ; BSR set to: 0
  6317                           ;ECU/LCD_for_test_gps/ecu_char_lcd.c: 494:     }
  6318  003B3E  EFBA  F01D         	goto	l194
  6319  003B42                     l6687:
  6320                           
  6321                           ; BSR set to: 0
  6322                           ;ECU/LCD_for_test_gps/ecu_char_lcd.c: 496:     {;ECU/LCD_for_test_gps/ecu_char_lcd.c: 49
      +                          7:             GPIO_Pin_Write_Logic(&(lcd->lcd_enable_pin),GPIO_HIGH);
  6323  003B42  0E01               	movlw	1
  6324  003B44  2587               	addwf	lcd_4bits_send_enable_signal@lcd& (0+255),w,b
  6325  003B46  6E2A               	movwf	GPIO_Pin_Write_Logic@_pin_config^0,c
  6326  003B48  0E00               	movlw	0
  6327  003B4A  2188               	addwfc	(lcd_4bits_send_enable_signal@lcd+1)& (0+255),w,b
  6328  003B4C  6E2B               	movwf	(GPIO_Pin_Write_Logic@_pin_config+1)^0,c
  6329  003B4E  0E01               	movlw	1
  6330  003B50  6E2C               	movwf	GPIO_Pin_Write_Logic@logic^0,c
  6331  003B52  EC99  F015         	call	_GPIO_Pin_Write_Logic	;wreg free
  6332  003B56                     
  6333                           ;ECU/LCD_for_test_gps/ecu_char_lcd.c: 498:             _delay((unsigned long)((5)*(80000
      +                          00/4000000.0)));
  6334  003B56  0E03               	movlw	3
  6335  003B58                     u9027:
  6336  003B58  2EE8               	decfsz	wreg,f,c
  6337  003B5A  D7FE               	bra	u9027
  6338  003B5C  F000               	nop	
  6339  003B5E                     
  6340                           ;ECU/LCD_for_test_gps/ecu_char_lcd.c: 499:              GPIO_Pin_Write_Logic(&(lcd->lcd_
      +                          enable_pin),GPIO_LOW);
  6341  003B5E  0E01               	movlw	1
  6342  003B60  0100               	movlb	0	; () banked
  6343  003B62  2587               	addwf	lcd_4bits_send_enable_signal@lcd& (0+255),w,b
  6344  003B64  6E2A               	movwf	GPIO_Pin_Write_Logic@_pin_config^0,c
  6345  003B66  0E00               	movlw	0
  6346  003B68  2188               	addwfc	(lcd_4bits_send_enable_signal@lcd+1)& (0+255),w,b
  6347  003B6A  6E2B               	movwf	(GPIO_Pin_Write_Logic@_pin_config+1)^0,c
  6348  003B6C  0E00               	movlw	0
  6349  003B6E  6E2C               	movwf	GPIO_Pin_Write_Logic@logic^0,c
  6350  003B70  EC99  F015         	call	_GPIO_Pin_Write_Logic	;wreg free
  6351  003B74                     l194:
  6352  003B74  0012               	return		;funcret
  6353  003B76                     __end_of_lcd_4bits_send_enable_signal:
  6354                           	callstack 0
  6355                           
  6356 ;; *************** function _GPIO_Pin_Write_Logic *****************
  6357 ;; Defined at:
  6358 ;;		line 82 in file "MCAL/GPIO/hal_gpio.c"
  6359 ;; Parameters:    Size  Location     Type
  6360 ;;  _pin_config     2   41[COMRAM] PTR const struct .
  6361 ;;		 -> selector(1), pind2(1), pind1(1), lcd1.lcd_data_pins(4), 
  6362 ;;		 -> lcd1(6), 
  6363 ;;  logic           1   43[COMRAM] enum E2959
  6364 ;; Auto vars:     Size  Location     Type
  6365 ;;  ERRORSTATUS     1    6[BANK0 ] unsigned char 
  6366 ;; Return value:  Size  Location     Type
  6367 ;;                  1    wreg      unsigned char 
  6368 ;; Registers used:
  6369 ;;		wreg, fsr2l, fsr2h, status,2, status,0, prodl, prodh
  6370 ;; Tracked objects:
  6371 ;;		On entry : 0/0
  6372 ;;		On exit  : 0/0
  6373 ;;		Unchanged: 0/0
  6374 ;; Data sizes:     COMRAM   BANK0   BANK1   BANK2   BANK3   BANK4   BANK5   BANK6   BANK7   BANK8   BANK9  BANK10  BANK1
      +1  BANK12  BANK13  BANK14  BANK15
  6375 ;;      Params:         3       0       0       0       0       0       0       0       0       0       0       0       
      +0       0       0       0       0
  6376 ;;      Locals:         0       1       0       0       0       0       0       0       0       0       0       0       
      +0       0       0       0       0
  6377 ;;      Temps:          0       6       0       0       0       0       0       0       0       0       0       0       
      +0       0       0       0       0
  6378 ;;      Totals:         3       7       0       0       0       0       0       0       0       0       0       0       
      +0       0       0       0       0
  6379 ;;Total ram usage:       10 bytes
  6380 ;; Hardware stack levels used:    1
  6381 ;; Hardware stack levels required when called:   10
  6382 ;; This function calls:
  6383 ;;		Nothing
  6384 ;; This function is called by:
  6385 ;;		_lcd_4bit_send_command
  6386 ;;		_lcd_4bit_send_char_data
  6387 ;;		_lcd_4bits_send_enable_signal
  6388 ;;		_lcd_send_4bits
  6389 ;;		_GPIO_Pin_Initialize
  6390 ;;		_GPS_Service
  6391 ;;		_lcd_8bit_send_command
  6392 ;;		_lcd_8bit_send_char_data
  6393 ;;		_lcd_8bits_send_enable_signal
  6394 ;; This function uses a non-reentrant model
  6395 ;;
  6396                           
  6397                           	psect	text21
  6398  002B32                     __ptext21:
  6399                           	callstack 0
  6400  002B32                     _GPIO_Pin_Write_Logic:
  6401                           	callstack 16
  6402  002B32                     
  6403                           ;MCAL/GPIO/hal_gpio.c: 82: Std_returnType GPIO_Pin_Write_Logic (const pin_config_st * _p
      +                          in_config,logic_et logic);MCAL/GPIO/hal_gpio.c: 83: {;MCAL/GPIO/hal_gpio.c: 84:       St
      +                          d_returnType ERRORSTATUS =(Std_returnType) 0x01;
  6404  002B32  0E01               	movlw	1
  6405  002B34  0100               	movlb	0	; () banked
  6406  002B36  6F86               	movwf	GPIO_Pin_Write_Logic@ERRORSTATUS& (0+255),b
  6407  002B38                     
  6408                           ; BSR set to: 0
  6409                           ;MCAL/GPIO/hal_gpio.c: 85:      if ( ((void*)0)==_pin_config||_pin_config->pin> 8 -1)
  6410  002B38  502A               	movf	GPIO_Pin_Write_Logic@_pin_config^0,w,c
  6411  002B3A  102B               	iorwf	(GPIO_Pin_Write_Logic@_pin_config+1)^0,w,c
  6412  002B3C  B4D8               	btfsc	status,2,c
  6413  002B3E  EFA3  F015         	goto	u7001
  6414  002B42  EFA5  F015         	goto	u7000
  6415  002B46                     u7001:
  6416  002B46  EFB4  F015         	goto	l6653
  6417  002B4A                     u7000:
  6418  002B4A                     
  6419                           ; BSR set to: 0
  6420  002B4A  C02A  FFD9         	movff	GPIO_Pin_Write_Logic@_pin_config,fsr2l
  6421  002B4E  C02B  FFDA         	movff	GPIO_Pin_Write_Logic@_pin_config+1,fsr2h
  6422  002B52  50DF               	movf	indf2,w,c
  6423  002B54  0B07               	andlw	7
  6424  002B56  6F80               	movwf	??_GPIO_Pin_Write_Logic& (0+255),b
  6425  002B58  0E07               	movlw	7
  6426  002B5A  6580               	cpfsgt	??_GPIO_Pin_Write_Logic& (0+255),b
  6427  002B5C  EFB2  F015         	goto	u7011
  6428  002B60  EFB4  F015         	goto	u7010
  6429  002B64                     u7011:
  6430  002B64  EF19  F016         	goto	l6661
  6431  002B68                     u7010:
  6432  002B68                     l6653:
  6433                           
  6434                           ; BSR set to: 0
  6435                           ;MCAL/GPIO/hal_gpio.c: 86:     {;MCAL/GPIO/hal_gpio.c: 87:         ERRORSTATUS=(Std_retu
      +                          rnType) 0x00;
  6436  002B68  0E00               	movlw	0
  6437  002B6A  6F86               	movwf	GPIO_Pin_Write_Logic@ERRORSTATUS& (0+255),b
  6438                           
  6439                           ;MCAL/GPIO/hal_gpio.c: 88:     }
  6440  002B6C  EF2E  F016         	goto	l6663
  6441  002B70                     l6655:
  6442                           
  6443                           ; BSR set to: 0
  6444                           ;MCAL/GPIO/hal_gpio.c: 94:          (*lat_registers[_pin_config->port]&=~( (uint8)1<<_pi
      +                          n_config->pin ));
  6445  002B70  C02A  FFD9         	movff	GPIO_Pin_Write_Logic@_pin_config,fsr2l
  6446  002B74  C02B  FFDA         	movff	GPIO_Pin_Write_Logic@_pin_config+1,fsr2h
  6447  002B78  50DF               	movf	indf2,w,c
  6448  002B7A  0B07               	andlw	7
  6449  002B7C  6F80               	movwf	??_GPIO_Pin_Write_Logic& (0+255),b
  6450  002B7E  0E01               	movlw	1
  6451  002B80  6F81               	movwf	(??_GPIO_Pin_Write_Logic+1)& (0+255),b
  6452  002B82  2B80               	incf	??_GPIO_Pin_Write_Logic& (0+255),f,b
  6453  002B84  EFC6  F015         	goto	u7024
  6454  002B88                     u7025:
  6455  002B88  90D8               	bcf	status,0,c
  6456  002B8A  3781               	rlcf	(??_GPIO_Pin_Write_Logic+1)& (0+255),f,b
  6457  002B8C                     u7024:
  6458  002B8C  2F80               	decfsz	??_GPIO_Pin_Write_Logic& (0+255),f,b
  6459  002B8E  EFC4  F015         	goto	u7025
  6460  002B92  0100               	movlb	0	; () banked
  6461  002B94  5181               	movf	(??_GPIO_Pin_Write_Logic+1)& (0+255),w,b
  6462  002B96  0AFF               	xorlw	255
  6463  002B98  6F82               	movwf	(??_GPIO_Pin_Write_Logic+2)& (0+255),b
  6464  002B9A  C02A  FFD9         	movff	GPIO_Pin_Write_Logic@_pin_config,fsr2l
  6465  002B9E  C02B  FFDA         	movff	GPIO_Pin_Write_Logic@_pin_config+1,fsr2h
  6466  002BA2  30DF               	rrcf	indf2,w,c
  6467  002BA4  32E8               	rrcf	wreg,f,c
  6468  002BA6  32E8               	rrcf	wreg,f,c
  6469  002BA8  0B07               	andlw	7
  6470  002BAA  6F83               	movwf	(??_GPIO_Pin_Write_Logic+3)& (0+255),b
  6471  002BAC  5183               	movf	(??_GPIO_Pin_Write_Logic+3)& (0+255),w,b
  6472  002BAE  0D02               	mullw	2
  6473  002BB0  0EE0               	movlw	low _lat_registers
  6474  002BB2  24F3               	addwf	243,w,c
  6475  002BB4  6ED9               	movwf	fsr2l,c
  6476  002BB6  0E00               	movlw	high _lat_registers
  6477  002BB8  20F4               	addwfc	prodh,w,c
  6478  002BBA  6EDA               	movwf	fsr2h,c
  6479  002BBC  CFDE F084          	movff	postinc2,??_GPIO_Pin_Write_Logic+4
  6480  002BC0  CFDD F085          	movff	postdec2,??_GPIO_Pin_Write_Logic+5
  6481  002BC4  C084  FFD9         	movff	??_GPIO_Pin_Write_Logic+4,fsr2l
  6482  002BC8  C085  FFDA         	movff	??_GPIO_Pin_Write_Logic+5,fsr2h
  6483  002BCC  5182               	movf	(??_GPIO_Pin_Write_Logic+2)& (0+255),w,b
  6484  002BCE  16DF               	andwf	indf2,f,c
  6485                           
  6486                           ;MCAL/GPIO/hal_gpio.c: 95:             break;
  6487  002BD0  EF2E  F016         	goto	l6663
  6488  002BD4                     l6657:
  6489                           
  6490                           ; BSR set to: 0
  6491                           ;MCAL/GPIO/hal_gpio.c: 97:           (*lat_registers[_pin_config->port]|=( (uint8)1<<_pi
      +                          n_config->pin ));
  6492  002BD4  C02A  FFD9         	movff	GPIO_Pin_Write_Logic@_pin_config,fsr2l
  6493  002BD8  C02B  FFDA         	movff	GPIO_Pin_Write_Logic@_pin_config+1,fsr2h
  6494  002BDC  50DF               	movf	indf2,w,c
  6495  002BDE  0B07               	andlw	7
  6496  002BE0  6F80               	movwf	??_GPIO_Pin_Write_Logic& (0+255),b
  6497  002BE2  0E01               	movlw	1
  6498  002BE4  6F81               	movwf	(??_GPIO_Pin_Write_Logic+1)& (0+255),b
  6499  002BE6  2B80               	incf	??_GPIO_Pin_Write_Logic& (0+255),f,b
  6500  002BE8  EFF8  F015         	goto	u7034
  6501  002BEC                     u7035:
  6502  002BEC  90D8               	bcf	status,0,c
  6503  002BEE  3781               	rlcf	(??_GPIO_Pin_Write_Logic+1)& (0+255),f,b
  6504  002BF0                     u7034:
  6505  002BF0  2F80               	decfsz	??_GPIO_Pin_Write_Logic& (0+255),f,b
  6506  002BF2  EFF6  F015         	goto	u7035
  6507  002BF6  C02A  FFD9         	movff	GPIO_Pin_Write_Logic@_pin_config,fsr2l
  6508  002BFA  C02B  FFDA         	movff	GPIO_Pin_Write_Logic@_pin_config+1,fsr2h
  6509  002BFE  30DF               	rrcf	indf2,w,c
  6510  002C00  32E8               	rrcf	wreg,f,c
  6511  002C02  32E8               	rrcf	wreg,f,c
  6512  002C04  0B07               	andlw	7
  6513  002C06  0100               	movlb	0	; () banked
  6514  002C08  6F82               	movwf	(??_GPIO_Pin_Write_Logic+2)& (0+255),b
  6515  002C0A  5182               	movf	(??_GPIO_Pin_Write_Logic+2)& (0+255),w,b
  6516  002C0C  0D02               	mullw	2
  6517  002C0E  0EE0               	movlw	low _lat_registers
  6518  002C10  24F3               	addwf	243,w,c
  6519  002C12  6ED9               	movwf	fsr2l,c
  6520  002C14  0E00               	movlw	high _lat_registers
  6521  002C16  20F4               	addwfc	prodh,w,c
  6522  002C18  6EDA               	movwf	fsr2h,c
  6523  002C1A  CFDE F083          	movff	postinc2,??_GPIO_Pin_Write_Logic+3
  6524  002C1E  CFDD F084          	movff	postdec2,??_GPIO_Pin_Write_Logic+4
  6525  002C22  C083  FFD9         	movff	??_GPIO_Pin_Write_Logic+3,fsr2l
  6526  002C26  C084  FFDA         	movff	??_GPIO_Pin_Write_Logic+4,fsr2h
  6527  002C2A  5181               	movf	(??_GPIO_Pin_Write_Logic+1)& (0+255),w,b
  6528  002C2C  12DF               	iorwf	indf2,f,c
  6529                           
  6530                           ;MCAL/GPIO/hal_gpio.c: 98:             break;
  6531  002C2E  EF2E  F016         	goto	l6663
  6532  002C32                     l6661:
  6533                           
  6534                           ; BSR set to: 0
  6535  002C32  502C               	movf	GPIO_Pin_Write_Logic@logic^0,w,c
  6536  002C34  6F80               	movwf	??_GPIO_Pin_Write_Logic& (0+255),b
  6537  002C36  6B81               	clrf	(??_GPIO_Pin_Write_Logic+1)& (0+255),b
  6538                           
  6539                           ; Switch on 2 bytes has been partitioned into a top level switch of size 1, and 1 sub-sw
      +                          itches
  6540                           ; Switch size 1, requested type "simple"
  6541                           ; Number of cases is 1, Range of values is 0 to 0
  6542                           ; switch strategies available:
  6543                           ; Name         Instructions Cycles
  6544                           ; simple_byte            4     3 (average)
  6545                           ;	Chosen strategy is simple_byte
  6546  002C38  5181               	movf	(??_GPIO_Pin_Write_Logic+1)& (0+255),w,b
  6547  002C3A  0A00               	xorlw	0	; case 0
  6548  002C3C  B4D8               	btfsc	status,2,c
  6549  002C3E  EF23  F016         	goto	l8205
  6550  002C42  EFB4  F015         	goto	l6653
  6551  002C46                     l8205:
  6552                           
  6553                           ; BSR set to: 0
  6554                           ; Switch size 1, requested type "simple"
  6555                           ; Number of cases is 2, Range of values is 0 to 1
  6556                           ; switch strategies available:
  6557                           ; Name         Instructions Cycles
  6558                           ; simple_byte            7     4 (average)
  6559                           ;	Chosen strategy is simple_byte
  6560  002C46  5180               	movf	??_GPIO_Pin_Write_Logic& (0+255),w,b
  6561  002C48  0A00               	xorlw	0	; case 0
  6562  002C4A  B4D8               	btfsc	status,2,c
  6563  002C4C  EFB8  F015         	goto	l6655
  6564  002C50  0A01               	xorlw	1	; case 1
  6565  002C52  B4D8               	btfsc	status,2,c
  6566  002C54  EFEA  F015         	goto	l6657
  6567  002C58  EFB4  F015         	goto	l6653
  6568  002C5C                     l6663:
  6569                           
  6570                           ; BSR set to: 0
  6571                           ;MCAL/GPIO/hal_gpio.c: 104:      return ERRORSTATUS;
  6572  002C5C  5186               	movf	GPIO_Pin_Write_Logic@ERRORSTATUS& (0+255),w,b
  6573  002C5E                     
  6574                           ; BSR set to: 0
  6575  002C5E  0012               	return		;funcret
  6576  002C60                     __end_of_GPIO_Pin_Write_Logic:
  6577                           	callstack 0
  6578                           
  6579 ;; *************** function _EUSART_Async_Read_Data_Blocking *****************
  6580 ;; Defined at:
  6581 ;;		line 337 in file "MCAL/EUSART/mcal_EUSART.c"
  6582 ;; Parameters:    Size  Location     Type
  6583 ;;  _eusart_obj     2   18[BANK0 ] PTR const struct .
  6584 ;;		 -> _uart_obj(12), 
  6585 ;;  data            2   20[BANK0 ] PTR unsigned short 
  6586 ;;		 -> longtude(13), latitude(13), gpstemp(1), 
  6587 ;; Auto vars:     Size  Location     Type
  6588 ;;  ret_val         1    0        unsigned char 
  6589 ;; Return value:  Size  Location     Type
  6590 ;;                  1    wreg      unsigned char 
  6591 ;; Registers used:
  6592 ;;		wreg, fsr2l, fsr2h, status,2, status,0, cstack
  6593 ;; Tracked objects:
  6594 ;;		On entry : 0/0
  6595 ;;		On exit  : 0/0
  6596 ;;		Unchanged: 0/0
  6597 ;; Data sizes:     COMRAM   BANK0   BANK1   BANK2   BANK3   BANK4   BANK5   BANK6   BANK7   BANK8   BANK9  BANK10  BANK1
      +1  BANK12  BANK13  BANK14  BANK15
  6598 ;;      Params:         0       4       0       0       0       0       0       0       0       0       0       0       
      +0       0       0       0       0
  6599 ;;      Locals:         1       0       0       0       0       0       0       0       0       0       0       0       
      +0       0       0       0       0
  6600 ;;      Temps:          0       0       0       0       0       0       0       0       0       0       0       0       
      +0       0       0       0       0
  6601 ;;      Totals:         1       4       0       0       0       0       0       0       0       0       0       0       
      +0       0       0       0       0
  6602 ;;Total ram usage:        5 bytes
  6603 ;; Hardware stack levels used:    1
  6604 ;; Hardware stack levels required when called:   12
  6605 ;; This function calls:
  6606 ;;		_EUSART_Async_Read_Data
  6607 ;; This function is called by:
  6608 ;;		_GPS_Service
  6609 ;;		_Bluetooth_Recieve_Data_Blocking
  6610 ;; This function uses a non-reentrant model
  6611 ;;
  6612                           
  6613                           	psect	text22
  6614  0036CE                     __ptext22:
  6615                           	callstack 0
  6616  0036CE                     _EUSART_Async_Read_Data_Blocking:
  6617                           	callstack 17
  6618  0036CE                     
  6619                           ;MCAL/EUSART/mcal_EUSART.c: 341:     if((((void*)0) == _eusart_obj) || (((void*)0) == da
      +                          ta))
  6620  0036CE  0100               	movlb	0	; () banked
  6621  0036D0  5192               	movf	EUSART_Async_Read_Data_Blocking@_eusart_obj& (0+255),w,b
  6622  0036D2  1193               	iorwf	(EUSART_Async_Read_Data_Blocking@_eusart_obj+1)& (0+255),w,b
  6623  0036D4  B4D8               	btfsc	status,2,c
  6624  0036D6  EF6F  F01B         	goto	u8331
  6625  0036DA  EF71  F01B         	goto	u8330
  6626  0036DE                     u8331:
  6627  0036DE  EF7A  F01B         	goto	l7461
  6628  0036E2                     u8330:
  6629  0036E2                     
  6630                           ; BSR set to: 0
  6631  0036E2  5194               	movf	EUSART_Async_Read_Data_Blocking@data& (0+255),w,b
  6632  0036E4  1195               	iorwf	(EUSART_Async_Read_Data_Blocking@data+1)& (0+255),w,b
  6633  0036E6  A4D8               	btfss	status,2,c
  6634  0036E8  EF78  F01B         	goto	u8341
  6635  0036EC  EF7A  F01B         	goto	u8340
  6636  0036F0                     u8341:
  6637  0036F0  EF7C  F01B         	goto	l394
  6638  0036F4                     u8340:
  6639  0036F4                     l7461:
  6640                           
  6641                           ; BSR set to: 0
  6642                           ;MCAL/EUSART/mcal_EUSART.c: 344:     }
  6643  0036F4  EF8D  F01B         	goto	l7465
  6644  0036F8                     l394:
  6645  0036F8  AA9E               	btfss	158,5,c	;volatile
  6646  0036FA  EF81  F01B         	goto	u8351
  6647  0036FE  EF83  F01B         	goto	u8350
  6648  003702                     u8351:
  6649  003702  EF7C  F01B         	goto	l394
  6650  003706                     u8350:
  6651  003706                     
  6652                           ;MCAL/EUSART/mcal_EUSART.c: 348:         EUSART_Async_Read_Data(_eusart_obj , data);
  6653  003706  C092  F083         	movff	EUSART_Async_Read_Data_Blocking@_eusart_obj,EUSART_Async_Read_Data@_eusart_obj
  6654  00370A  C093  F084         	movff	EUSART_Async_Read_Data_Blocking@_eusart_obj+1,EUSART_Async_Read_Data@_eusart_obj+
      +                          1
  6655  00370E  C094  F085         	movff	EUSART_Async_Read_Data_Blocking@data,EUSART_Async_Read_Data@data
  6656  003712  C095  F086         	movff	EUSART_Async_Read_Data_Blocking@data+1,EUSART_Async_Read_Data@data+1
  6657  003716  EC7F  F010         	call	_EUSART_Async_Read_Data	;wreg free
  6658  00371A                     l7465:
  6659                           
  6660                           ;MCAL/EUSART/mcal_EUSART.c: 351:     if ((1==RCSTA1bits.OERR)||(1==RCSTA1bits.FERR))
  6661  00371A  B2AB               	btfsc	171,1,c	;volatile
  6662  00371C  EF92  F01B         	goto	u8361
  6663  003720  EF94  F01B         	goto	u8360
  6664  003724                     u8361:
  6665  003724  EF9B  F01B         	goto	l399
  6666  003728                     u8360:
  6667  003728  A4AB               	btfss	171,2,c	;volatile
  6668  00372A  EF99  F01B         	goto	u8371
  6669  00372E  EF9B  F01B         	goto	u8370
  6670  003732                     u8371:
  6671  003732  EF9D  F01B         	goto	l400
  6672  003736                     u8370:
  6673  003736                     l399:
  6674                           
  6675                           ;MCAL/EUSART/mcal_EUSART.c: 352:     {;MCAL/EUSART/mcal_EUSART.c: 354:         RCSTA1bit
      +                          s.CREN=0;
  6676  003736  98AB               	bcf	171,4,c	;volatile
  6677                           
  6678                           ;MCAL/EUSART/mcal_EUSART.c: 355:         RCSTA1bits.CREN=1;
  6679  003738  88AB               	bsf	171,4,c	;volatile
  6680  00373A                     l400:
  6681  00373A  0012               	return		;funcret
  6682  00373C                     __end_of_EUSART_Async_Read_Data_Blocking:
  6683                           	callstack 0
  6684                           
  6685 ;; *************** function _EUSART_Async_Read_Data *****************
  6686 ;; Defined at:
  6687 ;;		line 181 in file "MCAL/EUSART/mcal_EUSART.c"
  6688 ;; Parameters:    Size  Location     Type
  6689 ;;  _eusart_obj     2    3[BANK0 ] PTR const struct .
  6690 ;;		 -> _uart_obj(12), 
  6691 ;;  data            2    5[BANK0 ] PTR unsigned short 
  6692 ;;		 -> longtude(13), latitude(13), gpstemp(1), datarecive(1), 
  6693 ;; Auto vars:     Size  Location     Type
  6694 ;;  l_temp_data     2   16[BANK0 ] unsigned short 
  6695 ;;  ret_val         1    0        unsigned char 
  6696 ;; Return value:  Size  Location     Type
  6697 ;;                  1    wreg      unsigned char 
  6698 ;; Registers used:
  6699 ;;		wreg, fsr2l, fsr2h, status,2, status,0, cstack
  6700 ;; Tracked objects:
  6701 ;;		On entry : 0/0
  6702 ;;		On exit  : 0/0
  6703 ;;		Unchanged: 0/0
  6704 ;; Data sizes:     COMRAM   BANK0   BANK1   BANK2   BANK3   BANK4   BANK5   BANK6   BANK7   BANK8   BANK9  BANK10  BANK1
      +1  BANK12  BANK13  BANK14  BANK15
  6705 ;;      Params:         0       4       0       0       0       0       0       0       0       0       0       0       
      +0       0       0       0       0
  6706 ;;      Locals:         0       9       0       0       0       0       0       0       0       0       0       0       
      +0       0       0       0       0
  6707 ;;      Temps:          0       2       0       0       0       0       0       0       0       0       0       0       
      +0       0       0       0       0
  6708 ;;      Totals:         0      15       0       0       0       0       0       0       0       0       0       0       
      +0       0       0       0       0
  6709 ;;Total ram usage:       15 bytes
  6710 ;; Hardware stack levels used:    1
  6711 ;; Hardware stack levels required when called:   11
  6712 ;; This function calls:
  6713 ;;		_calc_parity_even
  6714 ;;		_calc_parity_odd
  6715 ;; This function is called by:
  6716 ;;		_EUSART_Async_Read_Data_Blocking
  6717 ;;		_Bluetooth_Recieve_Data_Non_Blocking
  6718 ;; This function uses a non-reentrant model
  6719 ;;
  6720                           
  6721                           	psect	text23
  6722  0020FE                     __ptext23:
  6723                           	callstack 0
  6724  0020FE                     _EUSART_Async_Read_Data:
  6725                           	callstack 17
  6726  0020FE                     
  6727                           ;MCAL/EUSART/mcal_EUSART.c: 184:     uint16_t l_temp_data = 0;
  6728  0020FE  0E00               	movlw	0
  6729  002100  0100               	movlb	0	; () banked
  6730  002102  6F91               	movwf	(EUSART_Async_Read_Data@l_temp_data+1)& (0+255),b
  6731  002104  0E00               	movlw	0
  6732  002106  6F90               	movwf	EUSART_Async_Read_Data@l_temp_data& (0+255),b
  6733  002108                     
  6734                           ; BSR set to: 0
  6735                           ;MCAL/EUSART/mcal_EUSART.c: 186:     if((((void*)0) == _eusart_obj) || (((void*)0) == da
      +                          ta))
  6736  002108  5183               	movf	EUSART_Async_Read_Data@_eusart_obj& (0+255),w,b
  6737  00210A  1184               	iorwf	(EUSART_Async_Read_Data@_eusart_obj+1)& (0+255),w,b
  6738  00210C  B4D8               	btfsc	status,2,c
  6739  00210E  EF8B  F010         	goto	u8031
  6740  002112  EF8D  F010         	goto	u8030
  6741  002116                     u8031:
  6742  002116  EF96  F010         	goto	l7241
  6743  00211A                     u8030:
  6744  00211A                     
  6745                           ; BSR set to: 0
  6746  00211A  5185               	movf	EUSART_Async_Read_Data@data& (0+255),w,b
  6747  00211C  1186               	iorwf	(EUSART_Async_Read_Data@data+1)& (0+255),w,b
  6748  00211E  A4D8               	btfss	status,2,c
  6749  002120  EF94  F010         	goto	u8041
  6750  002124  EF96  F010         	goto	u8040
  6751  002128                     u8041:
  6752  002128  EF98  F010         	goto	l334
  6753  00212C                     u8040:
  6754  00212C                     l7241:
  6755                           
  6756                           ; BSR set to: 0
  6757                           ;MCAL/EUSART/mcal_EUSART.c: 189:     }
  6758  00212C  EF76  F011         	goto	l7291
  6759  002130                     l334:
  6760                           
  6761                           ; BSR set to: 0
  6762                           ;MCAL/EUSART/mcal_EUSART.c: 191:     {;MCAL/EUSART/mcal_EUSART.c: 192:         if(1 == P
      +                          IR1bits.RCIF)
  6763  002130  AA9E               	btfss	158,5,c	;volatile
  6764  002132  EF9D  F010         	goto	u8051
  6765  002136  EF9F  F010         	goto	u8050
  6766  00213A                     u8051:
  6767  00213A  EF96  F010         	goto	l7241
  6768  00213E                     u8050:
  6769  00213E                     
  6770                           ; BSR set to: 0
  6771                           ;MCAL/EUSART/mcal_EUSART.c: 193:         {;MCAL/EUSART/mcal_EUSART.c: 194:             i
      +                          f(0 == _eusart_obj->rx_config.rx_9th_bit_en)
  6772  00213E  EE20 F009          	lfsr	2,9
  6773  002142  5183               	movf	EUSART_Async_Read_Data@_eusart_obj& (0+255),w,b
  6774  002144  26D9               	addwf	fsr2l,f,c
  6775  002146  5184               	movf	(EUSART_Async_Read_Data@_eusart_obj+1)& (0+255),w,b
  6776  002148  22DA               	addwfc	fsr2h,f,c
  6777  00214A  B8DF               	btfsc	indf2,4,c
  6778  00214C  EFAA  F010         	goto	u8061
  6779  002150  EFAC  F010         	goto	u8060
  6780  002154                     u8061:
  6781  002154  EFB9  F010         	goto	l7247
  6782  002158                     u8060:
  6783  002158                     
  6784                           ; BSR set to: 0
  6785                           ;MCAL/EUSART/mcal_EUSART.c: 195:             {;MCAL/EUSART/mcal_EUSART.c: 196:          
      +                                 *data = RCREG ;
  6786  002158  50AE               	movf	174,w,c	;volatile
  6787  00215A  6F87               	movwf	??_EUSART_Async_Read_Data& (0+255),b
  6788  00215C  6B88               	clrf	(??_EUSART_Async_Read_Data+1)& (0+255),b
  6789  00215E  C085  FFD9         	movff	EUSART_Async_Read_Data@data,fsr2l
  6790  002162  C086  FFDA         	movff	EUSART_Async_Read_Data@data+1,fsr2h
  6791  002166  C087  FFDE         	movff	??_EUSART_Async_Read_Data,postinc2
  6792  00216A  C088  FFDD         	movff	??_EUSART_Async_Read_Data+1,postdec2
  6793                           
  6794                           ;MCAL/EUSART/mcal_EUSART.c: 197:             }
  6795  00216E  EF76  F011         	goto	l7291
  6796  002172                     l7247:
  6797                           
  6798                           ; BSR set to: 0
  6799  002172  EE20 F009          	lfsr	2,9
  6800  002176  5183               	movf	EUSART_Async_Read_Data@_eusart_obj& (0+255),w,b
  6801  002178  26D9               	addwf	fsr2l,f,c
  6802  00217A  5184               	movf	(EUSART_Async_Read_Data@_eusart_obj+1)& (0+255),w,b
  6803  00217C  22DA               	addwfc	fsr2h,f,c
  6804  00217E  A8DF               	btfss	indf2,4,c
  6805  002180  EFC4  F010         	goto	u8071
  6806  002184  EFC6  F010         	goto	u8070
  6807  002188                     u8071:
  6808  002188  EF76  F011         	goto	l347
  6809  00218C                     u8070:
  6810  00218C                     
  6811                           ; BSR set to: 0
  6812                           ;MCAL/EUSART/mcal_EUSART.c: 199:             {;MCAL/EUSART/mcal_EUSART.c: 201:          
      +                                 if(0 == _eusart_obj->rx_config.uart_rx_9th_bit_role)
  6813  00218C  EE20 F009          	lfsr	2,9
  6814  002190  5183               	movf	EUSART_Async_Read_Data@_eusart_obj& (0+255),w,b
  6815  002192  26D9               	addwf	fsr2l,f,c
  6816  002194  5184               	movf	(EUSART_Async_Read_Data@_eusart_obj+1)& (0+255),w,b
  6817  002196  22DA               	addwfc	fsr2h,f,c
  6818  002198  30DF               	rrcf	223,w,c
  6819  00219A  0B03               	andlw	3
  6820  00219C  0900               	iorlw	0
  6821  00219E  A4D8               	btfss	status,2,c
  6822  0021A0  EFD4  F010         	goto	u8081
  6823  0021A4  EFD6  F010         	goto	u8080
  6824  0021A8                     u8081:
  6825  0021A8  EFF8  F010         	goto	l7261
  6826  0021AC                     u8080:
  6827  0021AC                     
  6828                           ; BSR set to: 0
  6829                           ;MCAL/EUSART/mcal_EUSART.c: 202:                 {;MCAL/EUSART/mcal_EUSART.c: 204:      
      +                                     l_temp_data = RCREG ;
  6830  0021AC  CFAE F090          	movff	4014,EUSART_Async_Read_Data@l_temp_data	;volatile
  6831  0021B0  6B91               	clrf	(EUSART_Async_Read_Data@l_temp_data+1)& (0+255),b
  6832                           
  6833                           ;MCAL/EUSART/mcal_EUSART.c: 205:                 l_temp_data += ((RX9D == GPIO_HIGH) ? (
      +                          0x0001 << 8) : 0x0000) ;
  6834  0021B2  B0AB               	btfsc	4011,0,c	;volatile
  6835  0021B4  EFDE  F010         	goto	u8091
  6836  0021B8  EFE0  F010         	goto	u8090
  6837  0021BC                     u8091:
  6838  0021BC  EFE6  F010         	goto	l7255
  6839  0021C0                     u8090:
  6840  0021C0                     
  6841                           ; BSR set to: 0
  6842  0021C0  0E00               	movlw	0
  6843  0021C2  6F8B               	movwf	(_EUSART_Async_Read_Data$1243+1)& (0+255),b
  6844  0021C4  0E00               	movlw	0
  6845  0021C6  6F8A               	movwf	_EUSART_Async_Read_Data$1243& (0+255),b
  6846  0021C8  EFEA  F010         	goto	l7257
  6847  0021CC                     l7255:
  6848                           
  6849                           ; BSR set to: 0
  6850  0021CC  0E01               	movlw	1
  6851  0021CE  6F8B               	movwf	(_EUSART_Async_Read_Data$1243+1)& (0+255),b
  6852  0021D0  0E00               	movlw	0
  6853  0021D2  6F8A               	movwf	_EUSART_Async_Read_Data$1243& (0+255),b
  6854  0021D4                     l7257:
  6855                           
  6856                           ; BSR set to: 0
  6857  0021D4  518A               	movf	_EUSART_Async_Read_Data$1243& (0+255),w,b
  6858  0021D6  2790               	addwf	EUSART_Async_Read_Data@l_temp_data& (0+255),f,b
  6859  0021D8  518B               	movf	(_EUSART_Async_Read_Data$1243+1)& (0+255),w,b
  6860  0021DA  2391               	addwfc	(EUSART_Async_Read_Data@l_temp_data+1)& (0+255),f,b
  6861  0021DC                     
  6862                           ; BSR set to: 0
  6863                           ;MCAL/EUSART/mcal_EUSART.c: 207:                 *data = l_temp_data ;
  6864  0021DC  C085  FFD9         	movff	EUSART_Async_Read_Data@data,fsr2l
  6865  0021E0  C086  FFDA         	movff	EUSART_Async_Read_Data@data+1,fsr2h
  6866  0021E4  C090  FFDE         	movff	EUSART_Async_Read_Data@l_temp_data,postinc2
  6867  0021E8  C091  FFDD         	movff	EUSART_Async_Read_Data@l_temp_data+1,postdec2
  6868                           
  6869                           ;MCAL/EUSART/mcal_EUSART.c: 209:                 }
  6870  0021EC  EF76  F011         	goto	l7291
  6871  0021F0                     l7261:
  6872                           
  6873                           ; BSR set to: 0
  6874  0021F0  EE20 F009          	lfsr	2,9
  6875  0021F4  5183               	movf	EUSART_Async_Read_Data@_eusart_obj& (0+255),w,b
  6876  0021F6  26D9               	addwf	fsr2l,f,c
  6877  0021F8  5184               	movf	(EUSART_Async_Read_Data@_eusart_obj+1)& (0+255),w,b
  6878  0021FA  22DA               	addwfc	fsr2h,f,c
  6879  0021FC  30DF               	rrcf	223,w,c
  6880  0021FE  0B03               	andlw	3
  6881  002200  06E8               	decf	wreg,f,c
  6882  002202  A4D8               	btfss	status,2,c
  6883  002204  EF06  F011         	goto	u8101
  6884  002208  EF08  F011         	goto	u8100
  6885  00220C                     u8101:
  6886  00220C  EF3E  F011         	goto	l7275
  6887  002210                     u8100:
  6888  002210                     
  6889                           ; BSR set to: 0
  6890                           ;MCAL/EUSART/mcal_EUSART.c: 211:                 {;MCAL/EUSART/mcal_EUSART.c: 214:      
      +                                         l_temp_data = RCREG ;
  6891  002210  CFAE F090          	movff	4014,EUSART_Async_Read_Data@l_temp_data	;volatile
  6892  002214  6B91               	clrf	(EUSART_Async_Read_Data@l_temp_data+1)& (0+255),b
  6893                           
  6894                           ;MCAL/EUSART/mcal_EUSART.c: 216:                     l_temp_data += ((RCSTAbits.RX9D == 
      +                          GPIO_HIGH) ? (0x0001 << 8) : 0x0000) ;
  6895  002216  B0AB               	btfsc	171,0,c	;volatile
  6896  002218  EF10  F011         	goto	u8111
  6897  00221C  EF12  F011         	goto	u8110
  6898  002220                     u8111:
  6899  002220  EF18  F011         	goto	l7267
  6900  002224                     u8110:
  6901  002224                     
  6902                           ; BSR set to: 0
  6903  002224  0E00               	movlw	0
  6904  002226  6F8D               	movwf	(_EUSART_Async_Read_Data$1244+1)& (0+255),b
  6905  002228  0E00               	movlw	0
  6906  00222A  6F8C               	movwf	_EUSART_Async_Read_Data$1244& (0+255),b
  6907  00222C  EF1C  F011         	goto	l7269
  6908  002230                     l7267:
  6909                           
  6910                           ; BSR set to: 0
  6911  002230  0E01               	movlw	1
  6912  002232  6F8D               	movwf	(_EUSART_Async_Read_Data$1244+1)& (0+255),b
  6913  002234  0E00               	movlw	0
  6914  002236  6F8C               	movwf	_EUSART_Async_Read_Data$1244& (0+255),b
  6915  002238                     l7269:
  6916                           
  6917                           ; BSR set to: 0
  6918  002238  518C               	movf	_EUSART_Async_Read_Data$1244& (0+255),w,b
  6919  00223A  2790               	addwf	EUSART_Async_Read_Data@l_temp_data& (0+255),f,b
  6920  00223C  518D               	movf	(_EUSART_Async_Read_Data$1244+1)& (0+255),w,b
  6921  00223E  2391               	addwfc	(EUSART_Async_Read_Data@l_temp_data+1)& (0+255),f,b
  6922  002240                     
  6923                           ; BSR set to: 0
  6924                           ;MCAL/EUSART/mcal_EUSART.c: 219:                     if( calc_parity_even( (uint8_t) l_t
      +                          emp_data) == (l_temp_data >> 8))
  6925  002240  5190               	movf	EUSART_Async_Read_Data@l_temp_data& (0+255),w,b
  6926  002242  ECD5  F01B         	call	_calc_parity_even
  6927  002246  0100               	movlb	0	; () banked
  6928  002248  6F87               	movwf	??_EUSART_Async_Read_Data& (0+255),b
  6929  00224A  5191               	movf	(EUSART_Async_Read_Data@l_temp_data+1)& (0+255),w,b
  6930  00224C  1987               	xorwf	??_EUSART_Async_Read_Data& (0+255),w,b
  6931  00224E  A4D8               	btfss	status,2,c
  6932  002250  EF2C  F011         	goto	u8121
  6933  002254  EF2E  F011         	goto	u8120
  6934  002258                     u8121:
  6935  002258  EF76  F011         	goto	l347
  6936  00225C                     u8120:
  6937  00225C                     l7273:
  6938                           
  6939                           ; BSR set to: 0
  6940                           ;MCAL/EUSART/mcal_EUSART.c: 220:                     {;MCAL/EUSART/mcal_EUSART.c: 222:  
      +                                                 *data = (l_temp_data & 0x00FF) ;
  6941  00225C  0EFF               	movlw	255
  6942  00225E  1590               	andwf	EUSART_Async_Read_Data@l_temp_data& (0+255),w,b
  6943  002260  6F87               	movwf	??_EUSART_Async_Read_Data& (0+255),b
  6944  002262  0E00               	movlw	0
  6945  002264  1591               	andwf	(EUSART_Async_Read_Data@l_temp_data+1)& (0+255),w,b
  6946  002266  6F88               	movwf	(??_EUSART_Async_Read_Data+1)& (0+255),b
  6947  002268  C085  FFD9         	movff	EUSART_Async_Read_Data@data,fsr2l
  6948  00226C  C086  FFDA         	movff	EUSART_Async_Read_Data@data+1,fsr2h
  6949  002270  C087  FFDE         	movff	??_EUSART_Async_Read_Data,postinc2
  6950  002274  C088  FFDD         	movff	??_EUSART_Async_Read_Data+1,postdec2
  6951                           
  6952                           ;MCAL/EUSART/mcal_EUSART.c: 224:                     }
  6953  002278  EF76  F011         	goto	l7291
  6954  00227C                     l7275:
  6955                           
  6956                           ; BSR set to: 0
  6957  00227C  EE20 F009          	lfsr	2,9
  6958  002280  5183               	movf	EUSART_Async_Read_Data@_eusart_obj& (0+255),w,b
  6959  002282  26D9               	addwf	fsr2l,f,c
  6960  002284  5184               	movf	(EUSART_Async_Read_Data@_eusart_obj+1)& (0+255),w,b
  6961  002286  22DA               	addwfc	fsr2h,f,c
  6962  002288  30DF               	rrcf	223,w,c
  6963  00228A  0B03               	andlw	3
  6964  00228C  0A02               	xorlw	2
  6965  00228E  A4D8               	btfss	status,2,c
  6966  002290  EF4C  F011         	goto	u8131
  6967  002294  EF4E  F011         	goto	u8130
  6968  002298                     u8131:
  6969  002298  EF76  F011         	goto	l347
  6970  00229C                     u8130:
  6971  00229C                     
  6972                           ; BSR set to: 0
  6973                           ;MCAL/EUSART/mcal_EUSART.c: 235:                 {;MCAL/EUSART/mcal_EUSART.c: 238:      
      +                                         l_temp_data = RCREG ;
  6974  00229C  CFAE F090          	movff	4014,EUSART_Async_Read_Data@l_temp_data	;volatile
  6975  0022A0  6B91               	clrf	(EUSART_Async_Read_Data@l_temp_data+1)& (0+255),b
  6976                           
  6977                           ;MCAL/EUSART/mcal_EUSART.c: 240:                     l_temp_data += ((RCSTAbits.RX9D == 
      +                          GPIO_HIGH) ? (0x0001 << 8) : 0x0000) ;
  6978  0022A2  B0AB               	btfsc	171,0,c	;volatile
  6979  0022A4  EF56  F011         	goto	u8141
  6980  0022A8  EF58  F011         	goto	u8140
  6981  0022AC                     u8141:
  6982  0022AC  EF5E  F011         	goto	l7281
  6983  0022B0                     u8140:
  6984  0022B0                     
  6985                           ; BSR set to: 0
  6986  0022B0  0E00               	movlw	0
  6987  0022B2  6F8F               	movwf	(_EUSART_Async_Read_Data$1245+1)& (0+255),b
  6988  0022B4  0E00               	movlw	0
  6989  0022B6  6F8E               	movwf	_EUSART_Async_Read_Data$1245& (0+255),b
  6990  0022B8  EF62  F011         	goto	l7283
  6991  0022BC                     l7281:
  6992                           
  6993                           ; BSR set to: 0
  6994  0022BC  0E01               	movlw	1
  6995  0022BE  6F8F               	movwf	(_EUSART_Async_Read_Data$1245+1)& (0+255),b
  6996  0022C0  0E00               	movlw	0
  6997  0022C2  6F8E               	movwf	_EUSART_Async_Read_Data$1245& (0+255),b
  6998  0022C4                     l7283:
  6999                           
  7000                           ; BSR set to: 0
  7001  0022C4  518E               	movf	_EUSART_Async_Read_Data$1245& (0+255),w,b
  7002  0022C6  2790               	addwf	EUSART_Async_Read_Data@l_temp_data& (0+255),f,b
  7003  0022C8  518F               	movf	(_EUSART_Async_Read_Data$1245+1)& (0+255),w,b
  7004  0022CA  2391               	addwfc	(EUSART_Async_Read_Data@l_temp_data+1)& (0+255),f,b
  7005  0022CC                     
  7006                           ; BSR set to: 0
  7007                           ;MCAL/EUSART/mcal_EUSART.c: 245:                     if( calc_parity_odd( (uint8_t) l_te
      +                          mp_data) == (l_temp_data >> 8) )
  7008  0022CC  5190               	movf	EUSART_Async_Read_Data@l_temp_data& (0+255),w,b
  7009  0022CE  EC9E  F01B         	call	_calc_parity_odd
  7010  0022D2  0100               	movlb	0	; () banked
  7011  0022D4  6F87               	movwf	??_EUSART_Async_Read_Data& (0+255),b
  7012  0022D6  5191               	movf	(EUSART_Async_Read_Data@l_temp_data+1)& (0+255),w,b
  7013  0022D8  1987               	xorwf	??_EUSART_Async_Read_Data& (0+255),w,b
  7014  0022DA  A4D8               	btfss	status,2,c
  7015  0022DC  EF72  F011         	goto	u8151
  7016  0022E0  EF74  F011         	goto	u8150
  7017  0022E4                     u8151:
  7018  0022E4  EF76  F011         	goto	l347
  7019  0022E8                     u8150:
  7020  0022E8  EF2E  F011         	goto	l7273
  7021  0022EC                     l347:
  7022  0022EC                     l7291:
  7023                           
  7024                           ; BSR set to: 0
  7025                           ;MCAL/EUSART/mcal_EUSART.c: 270:     if ((1==RCSTA1bits.OERR)||(1==RCSTA1bits.FERR))
  7026  0022EC  B2AB               	btfsc	171,1,c	;volatile
  7027  0022EE  EF7B  F011         	goto	u8161
  7028  0022F2  EF7D  F011         	goto	u8160
  7029  0022F6                     u8161:
  7030  0022F6  EF84  F011         	goto	l368
  7031  0022FA                     u8160:
  7032  0022FA                     
  7033                           ; BSR set to: 0
  7034  0022FA  A4AB               	btfss	171,2,c	;volatile
  7035  0022FC  EF82  F011         	goto	u8171
  7036  002300  EF84  F011         	goto	u8170
  7037  002304                     u8171:
  7038  002304  EF86  F011         	goto	l369
  7039  002308                     u8170:
  7040  002308                     l368:
  7041                           
  7042                           ; BSR set to: 0
  7043                           ;MCAL/EUSART/mcal_EUSART.c: 271:     {;MCAL/EUSART/mcal_EUSART.c: 273:         RCSTA1bit
      +                          s.CREN=0;
  7044  002308  98AB               	bcf	171,4,c	;volatile
  7045                           
  7046                           ;MCAL/EUSART/mcal_EUSART.c: 274:         RCSTA1bits.CREN=1;
  7047  00230A  88AB               	bsf	171,4,c	;volatile
  7048  00230C                     l369:
  7049                           
  7050                           ; BSR set to: 0
  7051  00230C  0012               	return		;funcret
  7052  00230E                     __end_of_EUSART_Async_Read_Data:
  7053                           	callstack 0
  7054                           
  7055 ;; *************** function _calc_parity_odd *****************
  7056 ;; Defined at:
  7057 ;;		line 612 in file "MCAL/EUSART/mcal_EUSART.c"
  7058 ;; Parameters:    Size  Location     Type
  7059 ;;  data            1    wreg     unsigned char 
  7060 ;; Auto vars:     Size  Location     Type
  7061 ;;  data            1    0[BANK0 ] unsigned char 
  7062 ;;  l_counter       1    2[BANK0 ] unsigned char 
  7063 ;;  number_of_on    1    1[BANK0 ] unsigned char 
  7064 ;; Return value:  Size  Location     Type
  7065 ;;                  1    wreg      unsigned char 
  7066 ;; Registers used:
  7067 ;;		wreg, status,2, status,0
  7068 ;; Tracked objects:
  7069 ;;		On entry : 0/0
  7070 ;;		On exit  : 0/0
  7071 ;;		Unchanged: 0/0
  7072 ;; Data sizes:     COMRAM   BANK0   BANK1   BANK2   BANK3   BANK4   BANK5   BANK6   BANK7   BANK8   BANK9  BANK10  BANK1
      +1  BANK12  BANK13  BANK14  BANK15
  7073 ;;      Params:         0       0       0       0       0       0       0       0       0       0       0       0       
      +0       0       0       0       0
  7074 ;;      Locals:         0       3       0       0       0       0       0       0       0       0       0       0       
      +0       0       0       0       0
  7075 ;;      Temps:          2       0       0       0       0       0       0       0       0       0       0       0       
      +0       0       0       0       0
  7076 ;;      Totals:         2       3       0       0       0       0       0       0       0       0       0       0       
      +0       0       0       0       0
  7077 ;;Total ram usage:        5 bytes
  7078 ;; Hardware stack levels used:    1
  7079 ;; Hardware stack levels required when called:   10
  7080 ;; This function calls:
  7081 ;;		Nothing
  7082 ;; This function is called by:
  7083 ;;		_EUSART_Async_Read_Data
  7084 ;; This function uses a non-reentrant model
  7085 ;;
  7086                           
  7087                           	psect	text24
  7088  00373C                     __ptext24:
  7089                           	callstack 0
  7090  00373C                     _calc_parity_odd:
  7091                           	callstack 17
  7092                           
  7093                           ; BSR set to: 0
  7094                           ;incstack = 0
  7095                           ;calc_parity_odd@data stored from wreg
  7096  00373C  0100               	movlb	0	; () banked
  7097  00373E  6F80               	movwf	calc_parity_odd@data& (0+255),b
  7098  003740                     
  7099                           ;MCAL/EUSART/mcal_EUSART.c: 612: static __attribute__((inline)) uint8_t calc_parity_odd(
      +                          uint8_t data);MCAL/EUSART/mcal_EUSART.c: 613: {;MCAL/EUSART/mcal_EUSART.c: 616:     uint
      +                          8_t number_of_ones = 0 ;
  7100  003740  0E00               	movlw	0
  7101  003742  0100               	movlb	0	; () banked
  7102  003744  6F81               	movwf	calc_parity_odd@number_of_ones& (0+255),b
  7103                           
  7104                           ;MCAL/EUSART/mcal_EUSART.c: 617:     uint8_t l_counter = 0 ;
  7105  003746  0E00               	movlw	0
  7106  003748  6F82               	movwf	calc_parity_odd@l_counter& (0+255),b
  7107                           
  7108                           ;MCAL/EUSART/mcal_EUSART.c: 633:     for(l_counter = 0 ; l_counter < 8 ; l_counter++ )
  7109  00374A  0E00               	movlw	0
  7110  00374C  6F82               	movwf	calc_parity_odd@l_counter& (0+255),b
  7111  00374E                     l6737:
  7112                           
  7113                           ; BSR set to: 0
  7114                           ;MCAL/EUSART/mcal_EUSART.c: 634:     {;MCAL/EUSART/mcal_EUSART.c: 635:         if( (data
      +                           & 0x01 << l_counter) != 0 )
  7115  00374E  C082  F02A         	movff	calc_parity_odd@l_counter,??_calc_parity_odd
  7116  003752  0E01               	movlw	1
  7117  003754  6E2B               	movwf	(??_calc_parity_odd+1)^0,c
  7118  003756  2A2A               	incf	??_calc_parity_odd^0,f,c
  7119  003758  EFB0  F01B         	goto	u7114
  7120  00375C                     u7115:
  7121  00375C  90D8               	bcf	status,0,c
  7122  00375E  362B               	rlcf	(??_calc_parity_odd+1)^0,f,c
  7123  003760                     u7114:
  7124  003760  2E2A               	decfsz	??_calc_parity_odd^0,f,c
  7125  003762  EFAE  F01B         	goto	u7115
  7126  003766  502B               	movf	(??_calc_parity_odd+1)^0,w,c
  7127  003768  0100               	movlb	0	; () banked
  7128  00376A  1580               	andwf	calc_parity_odd@data& (0+255),w,b
  7129  00376C  0900               	iorlw	0
  7130  00376E  B4D8               	btfsc	status,2,c
  7131  003770  EFBC  F01B         	goto	u7121
  7132  003774  EFBE  F01B         	goto	u7120
  7133  003778                     u7121:
  7134  003778  EFBF  F01B         	goto	l467
  7135  00377C                     u7120:
  7136  00377C                     
  7137                           ; BSR set to: 0
  7138                           ;MCAL/EUSART/mcal_EUSART.c: 636:         {;MCAL/EUSART/mcal_EUSART.c: 637:             n
      +                          umber_of_ones++ ;
  7139  00377C  2B81               	incf	calc_parity_odd@number_of_ones& (0+255),f,b
  7140  00377E                     l467:
  7141                           
  7142                           ; BSR set to: 0
  7143                           ;MCAL/EUSART/mcal_EUSART.c: 639:     }
  7144  00377E  2B82               	incf	calc_parity_odd@l_counter& (0+255),f,b
  7145  003780                     
  7146                           ; BSR set to: 0
  7147  003780  0E07               	movlw	7
  7148  003782  6582               	cpfsgt	calc_parity_odd@l_counter& (0+255),b
  7149  003784  EFC6  F01B         	goto	u7131
  7150  003788  EFC8  F01B         	goto	u7130
  7151  00378C                     u7131:
  7152  00378C  EFA7  F01B         	goto	l6737
  7153  003790                     u7130:
  7154  003790                     
  7155                           ; BSR set to: 0
  7156                           ;MCAL/EUSART/mcal_EUSART.c: 642:     number_of_ones++ ;
  7157  003790  2B81               	incf	calc_parity_odd@number_of_ones& (0+255),f,b
  7158  003792                     
  7159                           ; BSR set to: 0
  7160                           ;MCAL/EUSART/mcal_EUSART.c: 644:     if((number_of_ones % 2) == 0)
  7161  003792  B181               	btfsc	calc_parity_odd@number_of_ones& (0+255),0,b
  7162  003794  EFCE  F01B         	goto	u7141
  7163  003798  EFD0  F01B         	goto	u7140
  7164  00379C                     u7141:
  7165  00379C  EFD3  F01B         	goto	l6751
  7166  0037A0                     u7140:
  7167  0037A0                     
  7168                           ; BSR set to: 0
  7169                           ;MCAL/EUSART/mcal_EUSART.c: 645:     {;MCAL/EUSART/mcal_EUSART.c: 646:         return 1 
      +                          ;
  7170  0037A0  0E01               	movlw	1
  7171  0037A2  EFD4  F01B         	goto	l469
  7172  0037A6                     l6751:
  7173                           
  7174                           ; BSR set to: 0
  7175                           ;MCAL/EUSART/mcal_EUSART.c: 648:     return 0 ;
  7176  0037A6  0E00               	movlw	0
  7177  0037A8                     l469:
  7178                           
  7179                           ; BSR set to: 0
  7180  0037A8  0012               	return		;funcret
  7181  0037AA                     __end_of_calc_parity_odd:
  7182                           	callstack 0
  7183                           
  7184 ;; *************** function _calc_parity_even *****************
  7185 ;; Defined at:
  7186 ;;		line 650 in file "MCAL/EUSART/mcal_EUSART.c"
  7187 ;; Parameters:    Size  Location     Type
  7188 ;;  data            1    wreg     unsigned char 
  7189 ;; Auto vars:     Size  Location     Type
  7190 ;;  data            1    0[BANK0 ] unsigned char 
  7191 ;;  l_counter       1    2[BANK0 ] unsigned char 
  7192 ;;  number_of_on    1    1[BANK0 ] unsigned char 
  7193 ;; Return value:  Size  Location     Type
  7194 ;;                  1    wreg      unsigned char 
  7195 ;; Registers used:
  7196 ;;		wreg, status,2, status,0
  7197 ;; Tracked objects:
  7198 ;;		On entry : 0/0
  7199 ;;		On exit  : 0/0
  7200 ;;		Unchanged: 0/0
  7201 ;; Data sizes:     COMRAM   BANK0   BANK1   BANK2   BANK3   BANK4   BANK5   BANK6   BANK7   BANK8   BANK9  BANK10  BANK1
      +1  BANK12  BANK13  BANK14  BANK15
  7202 ;;      Params:         0       0       0       0       0       0       0       0       0       0       0       0       
      +0       0       0       0       0
  7203 ;;      Locals:         0       3       0       0       0       0       0       0       0       0       0       0       
      +0       0       0       0       0
  7204 ;;      Temps:          2       0       0       0       0       0       0       0       0       0       0       0       
      +0       0       0       0       0
  7205 ;;      Totals:         2       3       0       0       0       0       0       0       0       0       0       0       
      +0       0       0       0       0
  7206 ;;Total ram usage:        5 bytes
  7207 ;; Hardware stack levels used:    1
  7208 ;; Hardware stack levels required when called:   10
  7209 ;; This function calls:
  7210 ;;		Nothing
  7211 ;; This function is called by:
  7212 ;;		_EUSART_Async_Read_Data
  7213 ;; This function uses a non-reentrant model
  7214 ;;
  7215                           
  7216                           	psect	text25
  7217  0037AA                     __ptext25:
  7218                           	callstack 0
  7219  0037AA                     _calc_parity_even:
  7220                           	callstack 17
  7221                           
  7222                           ; BSR set to: 0
  7223                           ;incstack = 0
  7224                           ;calc_parity_even@data stored from wreg
  7225  0037AA  0100               	movlb	0	; () banked
  7226  0037AC  6F80               	movwf	calc_parity_even@data& (0+255),b
  7227  0037AE                     
  7228                           ;MCAL/EUSART/mcal_EUSART.c: 650: static __attribute__((inline)) uint8_t calc_parity_even
      +                          (uint8_t data);MCAL/EUSART/mcal_EUSART.c: 651: {;MCAL/EUSART/mcal_EUSART.c: 653:     uin
      +                          t8_t number_of_ones = 0 ;
  7229  0037AE  0E00               	movlw	0
  7230  0037B0  0100               	movlb	0	; () banked
  7231  0037B2  6F81               	movwf	calc_parity_even@number_of_ones& (0+255),b
  7232                           
  7233                           ;MCAL/EUSART/mcal_EUSART.c: 654:     uint8_t l_counter = 0 ;
  7234  0037B4  0E00               	movlw	0
  7235  0037B6  6F82               	movwf	calc_parity_even@l_counter& (0+255),b
  7236                           
  7237                           ;MCAL/EUSART/mcal_EUSART.c: 667:     for(l_counter = 0 ; l_counter < 8 ; l_counter++ )
  7238  0037B8  0E00               	movlw	0
  7239  0037BA  6F82               	movwf	calc_parity_even@l_counter& (0+255),b
  7240  0037BC                     l6713:
  7241                           
  7242                           ; BSR set to: 0
  7243                           ;MCAL/EUSART/mcal_EUSART.c: 668:     {;MCAL/EUSART/mcal_EUSART.c: 669:         if( (data
      +                           & 0x01 << l_counter) != 0 )
  7244  0037BC  C082  F02A         	movff	calc_parity_even@l_counter,??_calc_parity_even
  7245  0037C0  0E01               	movlw	1
  7246  0037C2  6E2B               	movwf	(??_calc_parity_even+1)^0,c
  7247  0037C4  2A2A               	incf	??_calc_parity_even^0,f,c
  7248  0037C6  EFE7  F01B         	goto	u7074
  7249  0037CA                     u7075:
  7250  0037CA  90D8               	bcf	status,0,c
  7251  0037CC  362B               	rlcf	(??_calc_parity_even+1)^0,f,c
  7252  0037CE                     u7074:
  7253  0037CE  2E2A               	decfsz	??_calc_parity_even^0,f,c
  7254  0037D0  EFE5  F01B         	goto	u7075
  7255  0037D4  502B               	movf	(??_calc_parity_even+1)^0,w,c
  7256  0037D6  0100               	movlb	0	; () banked
  7257  0037D8  1580               	andwf	calc_parity_even@data& (0+255),w,b
  7258  0037DA  0900               	iorlw	0
  7259  0037DC  B4D8               	btfsc	status,2,c
  7260  0037DE  EFF3  F01B         	goto	u7081
  7261  0037E2  EFF5  F01B         	goto	u7080
  7262  0037E6                     u7081:
  7263  0037E6  EFF6  F01B         	goto	l474
  7264  0037EA                     u7080:
  7265  0037EA                     
  7266                           ; BSR set to: 0
  7267                           ;MCAL/EUSART/mcal_EUSART.c: 670:         {;MCAL/EUSART/mcal_EUSART.c: 671:             n
      +                          umber_of_ones++ ;
  7268  0037EA  2B81               	incf	calc_parity_even@number_of_ones& (0+255),f,b
  7269  0037EC                     l474:
  7270                           
  7271                           ; BSR set to: 0
  7272                           ;MCAL/EUSART/mcal_EUSART.c: 673:     }
  7273  0037EC  2B82               	incf	calc_parity_even@l_counter& (0+255),f,b
  7274  0037EE                     
  7275                           ; BSR set to: 0
  7276  0037EE  0E07               	movlw	7
  7277  0037F0  6582               	cpfsgt	calc_parity_even@l_counter& (0+255),b
  7278  0037F2  EFFD  F01B         	goto	u7091
  7279  0037F6  EFFF  F01B         	goto	u7090
  7280  0037FA                     u7091:
  7281  0037FA  EFDE  F01B         	goto	l6713
  7282  0037FE                     u7090:
  7283  0037FE                     
  7284                           ; BSR set to: 0
  7285                           ;MCAL/EUSART/mcal_EUSART.c: 676:     number_of_ones++ ;
  7286  0037FE  2B81               	incf	calc_parity_even@number_of_ones& (0+255),f,b
  7287  003800                     
  7288                           ; BSR set to: 0
  7289                           ;MCAL/EUSART/mcal_EUSART.c: 678:     if((number_of_ones % 2) != 0)
  7290  003800  A181               	btfss	calc_parity_even@number_of_ones& (0+255),0,b
  7291  003802  EF05  F01C         	goto	u7101
  7292  003806  EF07  F01C         	goto	u7100
  7293  00380A                     u7101:
  7294  00380A  EF0A  F01C         	goto	l6727
  7295  00380E                     u7100:
  7296  00380E                     
  7297                           ; BSR set to: 0
  7298                           ;MCAL/EUSART/mcal_EUSART.c: 679:     {;MCAL/EUSART/mcal_EUSART.c: 680:         return 1 
      +                          ;
  7299  00380E  0E01               	movlw	1
  7300  003810  EF0B  F01C         	goto	l476
  7301  003814                     l6727:
  7302                           
  7303                           ; BSR set to: 0
  7304                           ;MCAL/EUSART/mcal_EUSART.c: 682:     return 0 ;
  7305  003814  0E00               	movlw	0
  7306  003816                     l476:
  7307                           
  7308                           ; BSR set to: 0
  7309  003816  0012               	return		;funcret
  7310  003818                     __end_of_calc_parity_even:
  7311                           	callstack 0
  7312                           
  7313 ;; *************** function _GPIO_Pin_Toggle_Logic *****************
  7314 ;; Defined at:
  7315 ;;		line 135 in file "MCAL/GPIO/hal_gpio.c"
  7316 ;; Parameters:    Size  Location     Type
  7317 ;;  _pin_config     2   41[COMRAM] PTR const struct .
  7318 ;;		 -> pind2(1), pind1(1), 
  7319 ;; Auto vars:     Size  Location     Type
  7320 ;;  ERRORSTATUS     1    0        unsigned char 
  7321 ;; Return value:  Size  Location     Type
  7322 ;;                  1    wreg      unsigned char 
  7323 ;; Registers used:
  7324 ;;		wreg, fsr2l, fsr2h, status,2, status,0, prodl, prodh
  7325 ;; Tracked objects:
  7326 ;;		On entry : 0/0
  7327 ;;		On exit  : 0/0
  7328 ;;		Unchanged: 0/0
  7329 ;; Data sizes:     COMRAM   BANK0   BANK1   BANK2   BANK3   BANK4   BANK5   BANK6   BANK7   BANK8   BANK9  BANK10  BANK1
      +1  BANK12  BANK13  BANK14  BANK15
  7330 ;;      Params:         2       0       0       0       0       0       0       0       0       0       0       0       
      +0       0       0       0       0
  7331 ;;      Locals:         1       0       0       0       0       0       0       0       0       0       0       0       
      +0       0       0       0       0
  7332 ;;      Temps:          0       5       0       0       0       0       0       0       0       0       0       0       
      +0       0       0       0       0
  7333 ;;      Totals:         3       5       0       0       0       0       0       0       0       0       0       0       
      +0       0       0       0       0
  7334 ;;Total ram usage:        8 bytes
  7335 ;; Hardware stack levels used:    1
  7336 ;; Hardware stack levels required when called:   10
  7337 ;; This function calls:
  7338 ;;		Nothing
  7339 ;; This function is called by:
  7340 ;;		_main
  7341 ;; This function uses a non-reentrant model
  7342 ;;
  7343                           
  7344                           	psect	text26
  7345  00357A                     __ptext26:
  7346                           	callstack 0
  7347  00357A                     _GPIO_Pin_Toggle_Logic:
  7348                           	callstack 20
  7349  00357A                     
  7350                           ;MCAL/GPIO/hal_gpio.c: 138:           if ( ((void*)0)==_pin_config)
  7351  00357A  502A               	movf	GPIO_Pin_Toggle_Logic@_pin_config^0,w,c
  7352  00357C  102B               	iorwf	(GPIO_Pin_Toggle_Logic@_pin_config+1)^0,w,c
  7353  00357E  A4D8               	btfss	status,2,c
  7354  003580  EFC4  F01A         	goto	u8561
  7355  003584  EFC6  F01A         	goto	u8560
  7356  003588                     u8561:
  7357  003588  EFC8  F01A         	goto	l7629
  7358  00358C                     u8560:
  7359  00358C                     
  7360                           ;MCAL/GPIO/hal_gpio.c: 141:     }
  7361  00358C  EFF6  F01A         	goto	l562
  7362  003590                     l7629:
  7363                           
  7364                           ;MCAL/GPIO/hal_gpio.c: 143:     {;MCAL/GPIO/hal_gpio.c: 144:       (*lat_registers[_pin_
      +                          config->port]^=( (uint8)1<<_pin_config->pin ));
  7365  003590  C02A  FFD9         	movff	GPIO_Pin_Toggle_Logic@_pin_config,fsr2l
  7366  003594  C02B  FFDA         	movff	GPIO_Pin_Toggle_Logic@_pin_config+1,fsr2h
  7367  003598  50DF               	movf	indf2,w,c
  7368  00359A  0B07               	andlw	7
  7369  00359C  0100               	movlb	0	; () banked
  7370  00359E  6F80               	movwf	??_GPIO_Pin_Toggle_Logic& (0+255),b
  7371  0035A0  0E01               	movlw	1
  7372  0035A2  6F81               	movwf	(??_GPIO_Pin_Toggle_Logic+1)& (0+255),b
  7373  0035A4  2B80               	incf	??_GPIO_Pin_Toggle_Logic& (0+255),f,b
  7374  0035A6  EFD7  F01A         	goto	u8574
  7375  0035AA                     u8575:
  7376  0035AA  90D8               	bcf	status,0,c
  7377  0035AC  3781               	rlcf	(??_GPIO_Pin_Toggle_Logic+1)& (0+255),f,b
  7378  0035AE                     u8574:
  7379  0035AE  2F80               	decfsz	??_GPIO_Pin_Toggle_Logic& (0+255),f,b
  7380  0035B0  EFD5  F01A         	goto	u8575
  7381  0035B4  C02A  FFD9         	movff	GPIO_Pin_Toggle_Logic@_pin_config,fsr2l
  7382  0035B8  C02B  FFDA         	movff	GPIO_Pin_Toggle_Logic@_pin_config+1,fsr2h
  7383  0035BC  30DF               	rrcf	indf2,w,c
  7384  0035BE  32E8               	rrcf	wreg,f,c
  7385  0035C0  32E8               	rrcf	wreg,f,c
  7386  0035C2  0B07               	andlw	7
  7387  0035C4  0100               	movlb	0	; () banked
  7388  0035C6  6F82               	movwf	(??_GPIO_Pin_Toggle_Logic+2)& (0+255),b
  7389  0035C8  5182               	movf	(??_GPIO_Pin_Toggle_Logic+2)& (0+255),w,b
  7390  0035CA  0D02               	mullw	2
  7391  0035CC  0EE0               	movlw	low _lat_registers
  7392  0035CE  24F3               	addwf	243,w,c
  7393  0035D0  6ED9               	movwf	fsr2l,c
  7394  0035D2  0E00               	movlw	high _lat_registers
  7395  0035D4  20F4               	addwfc	prodh,w,c
  7396  0035D6  6EDA               	movwf	fsr2h,c
  7397  0035D8  CFDE F083          	movff	postinc2,??_GPIO_Pin_Toggle_Logic+3
  7398  0035DC  CFDD F084          	movff	postdec2,??_GPIO_Pin_Toggle_Logic+4
  7399  0035E0  C083  FFD9         	movff	??_GPIO_Pin_Toggle_Logic+3,fsr2l
  7400  0035E4  C084  FFDA         	movff	??_GPIO_Pin_Toggle_Logic+4,fsr2h
  7401  0035E8  5181               	movf	(??_GPIO_Pin_Toggle_Logic+1)& (0+255),w,b
  7402  0035EA  1ADF               	xorwf	indf2,f,c
  7403  0035EC                     l562:
  7404  0035EC  0012               	return		;funcret
  7405  0035EE                     __end_of_GPIO_Pin_Toggle_Logic:
  7406                           	callstack 0
  7407                           
  7408 ;; *************** function _InterruptManagerLow *****************
  7409 ;; Defined at:
  7410 ;;		line 101 in file "MCAL/Interrupts/mcal_interrupt_manager.c"
  7411 ;; Parameters:    Size  Location     Type
  7412 ;;		None
  7413 ;; Auto vars:     Size  Location     Type
  7414 ;;		None
  7415 ;; Return value:  Size  Location     Type
  7416 ;;                  1    wreg      void 
  7417 ;; Registers used:
  7418 ;;		wreg, status,2, cstack
  7419 ;; Tracked objects:
  7420 ;;		On entry : 0/0
  7421 ;;		On exit  : 0/0
  7422 ;;		Unchanged: 0/0
  7423 ;; Data sizes:     COMRAM   BANK0   BANK1   BANK2   BANK3   BANK4   BANK5   BANK6   BANK7   BANK8   BANK9  BANK10  BANK1
      +1  BANK12  BANK13  BANK14  BANK15
  7424 ;;      Params:         0       0       0       0       0       0       0       0       0       0       0       0       
      +0       0       0       0       0
  7425 ;;      Locals:         0       0       0       0       0       0       0       0       0       0       0       0       
      +0       0       0       0       0
  7426 ;;      Temps:          3       0       0       0       0       0       0       0       0       0       0       0       
      +0       0       0       0       0
  7427 ;;      Totals:         3       0       0       0       0       0       0       0       0       0       0       0       
      +0       0       0       0       0
  7428 ;;Total ram usage:        3 bytes
  7429 ;; Hardware stack levels used:    1
  7430 ;; Hardware stack levels required when called:    9
  7431 ;; This function calls:
  7432 ;;		_INT1_ISR
  7433 ;;		_RB4_ISR
  7434 ;;		_RB5_ISR
  7435 ;;		_RB6_ISR
  7436 ;;		_RB7_ISR
  7437 ;; This function is called by:
  7438 ;;		Interrupt level 1
  7439 ;; This function uses a non-reentrant model
  7440 ;;
  7441                           
  7442                           	psect	intcodelo
  7443  000018                     __pintcodelo:
  7444                           	callstack 0
  7445  000018                     _InterruptManagerLow:
  7446                           	callstack 15
  7447                           
  7448                           ;incstack = 0
  7449  000018  8056               	bsf	int$flags,0,c	;set compiler interrupt flag (level 1)
  7450  00001A  CFD8 F027          	movff	status,??_InterruptManagerLow
  7451  00001E  CFE8 F028          	movff	wreg,??_InterruptManagerLow+1
  7452  000022  CFE0 F029          	movff	bsr,??_InterruptManagerLow+2
  7453  000026                     
  7454                           ;MCAL/Interrupts/mcal_interrupt_manager.c: 103:     if( (1 == INTCON3bits.INT1IE) && (1 
      +                          == INTCON3bits.INT1IF) )
  7455  000026  A6F0               	btfss	240,3,c	;volatile
  7456  000028  EF18  F000         	goto	i1u334_21
  7457  00002C  EF1A  F000         	goto	i1u334_20
  7458  000030                     i1u334_21:
  7459  000030  EF23  F000         	goto	i1l835
  7460  000034                     i1u334_20:
  7461  000034  A0F0               	btfss	240,0,c	;volatile
  7462  000036  EF1F  F000         	goto	i1u335_21
  7463  00003A  EF21  F000         	goto	i1u335_20
  7464  00003E                     i1u335_21:
  7465  00003E  EF23  F000         	goto	i1l835
  7466  000042                     i1u335_20:
  7467  000042                     
  7468                           ;MCAL/Interrupts/mcal_interrupt_manager.c: 104:     {;MCAL/Interrupts/mcal_interrupt_man
      +                          ager.c: 105:         INT1_ISR();
  7469  000042  ECC1  F01E         	call	_INT1_ISR	;wreg free
  7470  000046                     i1l835:
  7471                           
  7472                           ;MCAL/Interrupts/mcal_interrupt_manager.c: 111:     if( (1 == INTCONbits.RBIE) && (1 == 
      +                          INTCONbits.RBIF) &&
  7473  000046  A6F2               	btfss	242,3,c	;volatile
  7474  000048  EF28  F000         	goto	i1u336_21
  7475  00004C  EF2A  F000         	goto	i1u336_20
  7476  000050                     i1u336_21:
  7477  000050  EF43  F000         	goto	i1l837
  7478  000054                     i1u336_20:
  7479  000054  A0F2               	btfss	242,0,c	;volatile
  7480  000056  EF2F  F000         	goto	i1u337_21
  7481  00005A  EF31  F000         	goto	i1u337_20
  7482  00005E                     i1u337_21:
  7483  00005E  EF43  F000         	goto	i1l837
  7484  000062                     i1u337_20:
  7485  000062  A881               	btfss	129,4,c	;volatile
  7486  000064  EF36  F000         	goto	i1u338_21
  7487  000068  EF38  F000         	goto	i1u338_20
  7488  00006C                     i1u338_21:
  7489  00006C  EF43  F000         	goto	i1l837
  7490  000070                     i1u338_20:
  7491  000070  A04C               	btfss	_flags^0,0,c	;volatile
  7492  000072  EF3D  F000         	goto	i1u339_21
  7493  000076  EF3F  F000         	goto	i1u339_20
  7494  00007A                     i1u339_21:
  7495  00007A  EF43  F000         	goto	i1l837
  7496  00007E                     i1u339_20:
  7497  00007E                     
  7498                           ;MCAL/Interrupts/mcal_interrupt_manager.c: 113:     {;MCAL/Interrupts/mcal_interrupt_man
      +                          ager.c: 114:         flags.rb4_flag = 0x00 ;
  7499  00007E  904C               	bcf	_flags^0,0,c	;volatile
  7500  000080                     
  7501                           ;MCAL/Interrupts/mcal_interrupt_manager.c: 115:         RB4_ISR(0x01);
  7502  000080  0E01               	movlw	1
  7503  000082  ECAD  F01E         	call	_RB4_ISR
  7504  000086                     i1l837:
  7505                           
  7506                           ;MCAL/Interrupts/mcal_interrupt_manager.c: 119:     if( (1 == INTCONbits.RBIE) && (1 == 
      +                          INTCONbits.RBIF) &&
  7507  000086  A6F2               	btfss	242,3,c	;volatile
  7508  000088  EF48  F000         	goto	i1u340_21
  7509  00008C  EF4A  F000         	goto	i1u340_20
  7510  000090                     i1u340_21:
  7511  000090  EF63  F000         	goto	i1l839
  7512  000094                     i1u340_20:
  7513  000094  A0F2               	btfss	242,0,c	;volatile
  7514  000096  EF4F  F000         	goto	i1u341_21
  7515  00009A  EF51  F000         	goto	i1u341_20
  7516  00009E                     i1u341_21:
  7517  00009E  EF63  F000         	goto	i1l839
  7518  0000A2                     i1u341_20:
  7519  0000A2  B881               	btfsc	129,4,c	;volatile
  7520  0000A4  EF56  F000         	goto	i1u342_21
  7521  0000A8  EF58  F000         	goto	i1u342_20
  7522  0000AC                     i1u342_21:
  7523  0000AC  EF63  F000         	goto	i1l839
  7524  0000B0                     i1u342_20:
  7525  0000B0  B04C               	btfsc	_flags^0,0,c	;volatile
  7526  0000B2  EF5D  F000         	goto	i1u343_21
  7527  0000B6  EF5F  F000         	goto	i1u343_20
  7528  0000BA                     i1u343_21:
  7529  0000BA  EF63  F000         	goto	i1l839
  7530  0000BE                     i1u343_20:
  7531  0000BE                     
  7532                           ;MCAL/Interrupts/mcal_interrupt_manager.c: 121:     {;MCAL/Interrupts/mcal_interrupt_man
      +                          ager.c: 122:         flags.rb4_flag = 0x01 ;
  7533  0000BE  804C               	bsf	_flags^0,0,c	;volatile
  7534  0000C0                     
  7535                           ;MCAL/Interrupts/mcal_interrupt_manager.c: 123:         RB4_ISR(0x00);
  7536  0000C0  0E00               	movlw	0
  7537  0000C2  ECAD  F01E         	call	_RB4_ISR
  7538  0000C6                     i1l839:
  7539                           
  7540                           ;MCAL/Interrupts/mcal_interrupt_manager.c: 128:     if( (1 == INTCONbits.RBIE) && (1 == 
      +                          INTCONbits.RBIF) &&
  7541  0000C6  A6F2               	btfss	242,3,c	;volatile
  7542  0000C8  EF68  F000         	goto	i1u344_21
  7543  0000CC  EF6A  F000         	goto	i1u344_20
  7544  0000D0                     i1u344_21:
  7545  0000D0  EF83  F000         	goto	i1l841
  7546  0000D4                     i1u344_20:
  7547  0000D4  A0F2               	btfss	242,0,c	;volatile
  7548  0000D6  EF6F  F000         	goto	i1u345_21
  7549  0000DA  EF71  F000         	goto	i1u345_20
  7550  0000DE                     i1u345_21:
  7551  0000DE  EF83  F000         	goto	i1l841
  7552  0000E2                     i1u345_20:
  7553  0000E2  AA81               	btfss	129,5,c	;volatile
  7554  0000E4  EF76  F000         	goto	i1u346_21
  7555  0000E8  EF78  F000         	goto	i1u346_20
  7556  0000EC                     i1u346_21:
  7557  0000EC  EF83  F000         	goto	i1l841
  7558  0000F0                     i1u346_20:
  7559  0000F0  A24C               	btfss	_flags^0,1,c	;volatile
  7560  0000F2  EF7D  F000         	goto	i1u347_21
  7561  0000F6  EF7F  F000         	goto	i1u347_20
  7562  0000FA                     i1u347_21:
  7563  0000FA  EF83  F000         	goto	i1l841
  7564  0000FE                     i1u347_20:
  7565  0000FE                     
  7566                           ;MCAL/Interrupts/mcal_interrupt_manager.c: 130:     {;MCAL/Interrupts/mcal_interrupt_man
      +                          ager.c: 131:         flags.rb5_flag = 0x00 ;
  7567  0000FE  924C               	bcf	_flags^0,1,c	;volatile
  7568  000100                     
  7569                           ;MCAL/Interrupts/mcal_interrupt_manager.c: 132:         RB5_ISR(0x01);
  7570  000100  0E01               	movlw	1
  7571  000102  ECA0  F01E         	call	_RB5_ISR
  7572  000106                     i1l841:
  7573                           
  7574                           ;MCAL/Interrupts/mcal_interrupt_manager.c: 136:     if( (1 == INTCONbits.RBIE) && (1 == 
      +                          INTCONbits.RBIF) &&
  7575  000106  A6F2               	btfss	242,3,c	;volatile
  7576  000108  EF88  F000         	goto	i1u348_21
  7577  00010C  EF8A  F000         	goto	i1u348_20
  7578  000110                     i1u348_21:
  7579  000110  EFA3  F000         	goto	i1l843
  7580  000114                     i1u348_20:
  7581  000114  A0F2               	btfss	242,0,c	;volatile
  7582  000116  EF8F  F000         	goto	i1u349_21
  7583  00011A  EF91  F000         	goto	i1u349_20
  7584  00011E                     i1u349_21:
  7585  00011E  EFA3  F000         	goto	i1l843
  7586  000122                     i1u349_20:
  7587  000122  BA81               	btfsc	129,5,c	;volatile
  7588  000124  EF96  F000         	goto	i1u350_21
  7589  000128  EF98  F000         	goto	i1u350_20
  7590  00012C                     i1u350_21:
  7591  00012C  EFA3  F000         	goto	i1l843
  7592  000130                     i1u350_20:
  7593  000130  B24C               	btfsc	_flags^0,1,c	;volatile
  7594  000132  EF9D  F000         	goto	i1u351_21
  7595  000136  EF9F  F000         	goto	i1u351_20
  7596  00013A                     i1u351_21:
  7597  00013A  EFA3  F000         	goto	i1l843
  7598  00013E                     i1u351_20:
  7599  00013E                     
  7600                           ;MCAL/Interrupts/mcal_interrupt_manager.c: 138:     {;MCAL/Interrupts/mcal_interrupt_man
      +                          ager.c: 139:         flags.rb5_flag = 0x01 ;
  7601  00013E  824C               	bsf	_flags^0,1,c	;volatile
  7602  000140                     
  7603                           ;MCAL/Interrupts/mcal_interrupt_manager.c: 140:         RB5_ISR(0x00);
  7604  000140  0E00               	movlw	0
  7605  000142  ECA0  F01E         	call	_RB5_ISR
  7606  000146                     i1l843:
  7607                           
  7608                           ;MCAL/Interrupts/mcal_interrupt_manager.c: 145:     if( (1 == INTCONbits.RBIE) && (1 == 
      +                          INTCONbits.RBIF) &&
  7609  000146  A6F2               	btfss	242,3,c	;volatile
  7610  000148  EFA8  F000         	goto	i1u352_21
  7611  00014C  EFAA  F000         	goto	i1u352_20
  7612  000150                     i1u352_21:
  7613  000150  EFC3  F000         	goto	i1l845
  7614  000154                     i1u352_20:
  7615  000154  A0F2               	btfss	242,0,c	;volatile
  7616  000156  EFAF  F000         	goto	i1u353_21
  7617  00015A  EFB1  F000         	goto	i1u353_20
  7618  00015E                     i1u353_21:
  7619  00015E  EFC3  F000         	goto	i1l845
  7620  000162                     i1u353_20:
  7621  000162  AC81               	btfss	129,6,c	;volatile
  7622  000164  EFB6  F000         	goto	i1u354_21
  7623  000168  EFB8  F000         	goto	i1u354_20
  7624  00016C                     i1u354_21:
  7625  00016C  EFC3  F000         	goto	i1l845
  7626  000170                     i1u354_20:
  7627  000170  A44C               	btfss	_flags^0,2,c	;volatile
  7628  000172  EFBD  F000         	goto	i1u355_21
  7629  000176  EFBF  F000         	goto	i1u355_20
  7630  00017A                     i1u355_21:
  7631  00017A  EFC3  F000         	goto	i1l845
  7632  00017E                     i1u355_20:
  7633  00017E                     
  7634                           ;MCAL/Interrupts/mcal_interrupt_manager.c: 147:     {;MCAL/Interrupts/mcal_interrupt_man
      +                          ager.c: 148:         flags.rb6_flag = 0x00 ;
  7635  00017E  944C               	bcf	_flags^0,2,c	;volatile
  7636  000180                     
  7637                           ;MCAL/Interrupts/mcal_interrupt_manager.c: 149:         RB6_ISR(0x01);
  7638  000180  0E01               	movlw	1
  7639  000182  EC93  F01E         	call	_RB6_ISR
  7640  000186                     i1l845:
  7641                           
  7642                           ;MCAL/Interrupts/mcal_interrupt_manager.c: 153:     if( (1 == INTCONbits.RBIE) && (1 == 
      +                          INTCONbits.RBIF) &&
  7643  000186  A6F2               	btfss	242,3,c	;volatile
  7644  000188  EFC8  F000         	goto	i1u356_21
  7645  00018C  EFCA  F000         	goto	i1u356_20
  7646  000190                     i1u356_21:
  7647  000190  EFE3  F000         	goto	i1l847
  7648  000194                     i1u356_20:
  7649  000194  A0F2               	btfss	242,0,c	;volatile
  7650  000196  EFCF  F000         	goto	i1u357_21
  7651  00019A  EFD1  F000         	goto	i1u357_20
  7652  00019E                     i1u357_21:
  7653  00019E  EFE3  F000         	goto	i1l847
  7654  0001A2                     i1u357_20:
  7655  0001A2  BC81               	btfsc	129,6,c	;volatile
  7656  0001A4  EFD6  F000         	goto	i1u358_21
  7657  0001A8  EFD8  F000         	goto	i1u358_20
  7658  0001AC                     i1u358_21:
  7659  0001AC  EFE3  F000         	goto	i1l847
  7660  0001B0                     i1u358_20:
  7661  0001B0  B44C               	btfsc	_flags^0,2,c	;volatile
  7662  0001B2  EFDD  F000         	goto	i1u359_21
  7663  0001B6  EFDF  F000         	goto	i1u359_20
  7664  0001BA                     i1u359_21:
  7665  0001BA  EFE3  F000         	goto	i1l847
  7666  0001BE                     i1u359_20:
  7667  0001BE                     
  7668                           ;MCAL/Interrupts/mcal_interrupt_manager.c: 155:     {;MCAL/Interrupts/mcal_interrupt_man
      +                          ager.c: 156:         flags.rb6_flag = 0x01 ;
  7669  0001BE  844C               	bsf	_flags^0,2,c	;volatile
  7670  0001C0                     
  7671                           ;MCAL/Interrupts/mcal_interrupt_manager.c: 157:         RB6_ISR(0x00);
  7672  0001C0  0E00               	movlw	0
  7673  0001C2  EC93  F01E         	call	_RB6_ISR
  7674  0001C6                     i1l847:
  7675                           
  7676                           ;MCAL/Interrupts/mcal_interrupt_manager.c: 162:     if( (1 == INTCONbits.RBIE) && (1 == 
      +                          INTCONbits.RBIF) &&
  7677  0001C6  A6F2               	btfss	242,3,c	;volatile
  7678  0001C8  EFE8  F000         	goto	i1u360_21
  7679  0001CC  EFEA  F000         	goto	i1u360_20
  7680  0001D0                     i1u360_21:
  7681  0001D0  EF03  F001         	goto	i1l849
  7682  0001D4                     i1u360_20:
  7683  0001D4  A0F2               	btfss	242,0,c	;volatile
  7684  0001D6  EFEF  F000         	goto	i1u361_21
  7685  0001DA  EFF1  F000         	goto	i1u361_20
  7686  0001DE                     i1u361_21:
  7687  0001DE  EF03  F001         	goto	i1l849
  7688  0001E2                     i1u361_20:
  7689  0001E2  AE81               	btfss	129,7,c	;volatile
  7690  0001E4  EFF6  F000         	goto	i1u362_21
  7691  0001E8  EFF8  F000         	goto	i1u362_20
  7692  0001EC                     i1u362_21:
  7693  0001EC  EF03  F001         	goto	i1l849
  7694  0001F0                     i1u362_20:
  7695  0001F0  A64C               	btfss	_flags^0,3,c	;volatile
  7696  0001F2  EFFD  F000         	goto	i1u363_21
  7697  0001F6  EFFF  F000         	goto	i1u363_20
  7698  0001FA                     i1u363_21:
  7699  0001FA  EF03  F001         	goto	i1l849
  7700  0001FE                     i1u363_20:
  7701  0001FE                     
  7702                           ;MCAL/Interrupts/mcal_interrupt_manager.c: 164:     {;MCAL/Interrupts/mcal_interrupt_man
      +                          ager.c: 165:         flags.rb7_flag = 0x00 ;
  7703  0001FE  964C               	bcf	_flags^0,3,c	;volatile
  7704  000200                     
  7705                           ;MCAL/Interrupts/mcal_interrupt_manager.c: 166:         RB7_ISR(0x01);
  7706  000200  0E01               	movlw	1
  7707  000202  EC86  F01E         	call	_RB7_ISR
  7708  000206                     i1l849:
  7709                           
  7710                           ;MCAL/Interrupts/mcal_interrupt_manager.c: 170:     if( (1 == INTCONbits.RBIE) && (1 == 
      +                          INTCONbits.RBIF) &&
  7711  000206  A6F2               	btfss	242,3,c	;volatile
  7712  000208  EF08  F001         	goto	i1u364_21
  7713  00020C  EF0A  F001         	goto	i1u364_20
  7714  000210                     i1u364_21:
  7715  000210  EF23  F001         	goto	i1l851
  7716  000214                     i1u364_20:
  7717  000214  A0F2               	btfss	242,0,c	;volatile
  7718  000216  EF0F  F001         	goto	i1u365_21
  7719  00021A  EF11  F001         	goto	i1u365_20
  7720  00021E                     i1u365_21:
  7721  00021E  EF23  F001         	goto	i1l851
  7722  000222                     i1u365_20:
  7723  000222  BE81               	btfsc	129,7,c	;volatile
  7724  000224  EF16  F001         	goto	i1u366_21
  7725  000228  EF18  F001         	goto	i1u366_20
  7726  00022C                     i1u366_21:
  7727  00022C  EF23  F001         	goto	i1l851
  7728  000230                     i1u366_20:
  7729  000230  B64C               	btfsc	_flags^0,3,c	;volatile
  7730  000232  EF1D  F001         	goto	i1u367_21
  7731  000236  EF1F  F001         	goto	i1u367_20
  7732  00023A                     i1u367_21:
  7733  00023A  EF23  F001         	goto	i1l851
  7734  00023E                     i1u367_20:
  7735  00023E                     
  7736                           ;MCAL/Interrupts/mcal_interrupt_manager.c: 172:     {;MCAL/Interrupts/mcal_interrupt_man
      +                          ager.c: 173:         flags.rb7_flag = 0x01 ;
  7737  00023E  864C               	bsf	_flags^0,3,c	;volatile
  7738  000240                     
  7739                           ;MCAL/Interrupts/mcal_interrupt_manager.c: 174:         RB7_ISR(0x00);
  7740  000240  0E00               	movlw	0
  7741  000242  EC86  F01E         	call	_RB7_ISR
  7742  000246                     i1l851:
  7743                           
  7744                           ;MCAL/Interrupts/mcal_interrupt_manager.c: 181:     if( (1 == PIE1bits.ADIE) && (1 == PI
      +                          R1bits.ADIF) )
  7745  000246  AC9D               	btfss	157,6,c	;volatile
  7746  000248  EF28  F001         	goto	i1u368_21
  7747  00024C  EF2A  F001         	goto	i1u368_20
  7748  000250                     i1u368_21:
  7749  000250  EF2B  F001         	goto	i1l853
  7750  000254                     i1u368_20:
  7751  000254  509E               	movf	158,w,c	;volatile
  7752  000256                     i1l853:
  7753                           
  7754                           ;MCAL/Interrupts/mcal_interrupt_manager.c: 187:     if( (1 == PIE1bits.TMR1IE) && (1 == 
      +                          PIR1bits.TMR1IF) )
  7755  000256  A09D               	btfss	157,0,c	;volatile
  7756  000258  EF30  F001         	goto	i1u369_21
  7757  00025C  EF32  F001         	goto	i1u369_20
  7758  000260                     i1u369_21:
  7759  000260  EF33  F001         	goto	i1l856
  7760  000264                     i1u369_20:
  7761  000264  509E               	movf	158,w,c	;volatile
  7762  000266                     i1l856:
  7763  000266  C029  FFE0         	movff	??_InterruptManagerLow+2,bsr
  7764  00026A  C028  FFE8         	movff	??_InterruptManagerLow+1,wreg
  7765  00026E  C027  FFD8         	movff	??_InterruptManagerLow,status
  7766  000272  9056               	bcf	int$flags,0,c	;clear compiler interrupt flag (level 1)
  7767  000274  0010               	retfie	
  7768  000276                     __end_of_InterruptManagerLow:
  7769                           	callstack 0
  7770                           
  7771 ;; *************** function _RB7_ISR *****************
  7772 ;; Defined at:
  7773 ;;		line 175 in file "MCAL/Interrupts/mcal_external_interrupt.c"
  7774 ;; Parameters:    Size  Location     Type
  7775 ;;  Handler_Sele    1    wreg     unsigned char 
  7776 ;; Auto vars:     Size  Location     Type
  7777 ;;  Handler_Sele    1   37[COMRAM] unsigned char 
  7778 ;; Return value:  Size  Location     Type
  7779 ;;                  1    wreg      void 
  7780 ;; Registers used:
  7781 ;;		wreg, status,2
  7782 ;; Tracked objects:
  7783 ;;		On entry : 0/0
  7784 ;;		On exit  : 0/0
  7785 ;;		Unchanged: 0/0
  7786 ;; Data sizes:     COMRAM   BANK0   BANK1   BANK2   BANK3   BANK4   BANK5   BANK6   BANK7   BANK8   BANK9  BANK10  BANK1
      +1  BANK12  BANK13  BANK14  BANK15
  7787 ;;      Params:         0       0       0       0       0       0       0       0       0       0       0       0       
      +0       0       0       0       0
  7788 ;;      Locals:         1       0       0       0       0       0       0       0       0       0       0       0       
      +0       0       0       0       0
  7789 ;;      Temps:          0       0       0       0       0       0       0       0       0       0       0       0       
      +0       0       0       0       0
  7790 ;;      Totals:         1       0       0       0       0       0       0       0       0       0       0       0       
      +0       0       0       0       0
  7791 ;;Total ram usage:        1 bytes
  7792 ;; Hardware stack levels used:    1
  7793 ;; Hardware stack levels required when called:    8
  7794 ;; This function calls:
  7795 ;;		Nothing
  7796 ;; This function is called by:
  7797 ;;		_InterruptManagerLow
  7798 ;; This function uses a non-reentrant model
  7799 ;;
  7800                           
  7801                           	psect	text28
  7802  003D0C                     __ptext28:
  7803                           	callstack 0
  7804  003D0C                     _RB7_ISR:
  7805                           	callstack 15
  7806                           
  7807                           ;incstack = 0
  7808                           ;RB7_ISR@Handler_Select stored from wreg
  7809  003D0C  6E26               	movwf	RB7_ISR@Handler_Select^0,c
  7810  003D0E                     
  7811                           ;MCAL/Interrupts/mcal_external_interrupt.c: 175: void RB7_ISR(uint8_t Handler_Select);MC
      +                          AL/Interrupts/mcal_external_interrupt.c: 176: {;MCAL/Interrupts/mcal_external_interrupt.
      +                          c: 178:     (INTCONbits.RBIF = 0 );
  7812  003D0E  90F2               	bcf	242,0,c	;volatile
  7813  003D10                     
  7814                           ;MCAL/Interrupts/mcal_external_interrupt.c: 182:     if(Handler_Select)
  7815  003D10  5026               	movf	RB7_ISR@Handler_Select^0,w,c
  7816  003D12  B4D8               	btfsc	status,2,c
  7817  003D14  EF8E  F01E         	goto	i1u210_21
  7818  003D18  EF90  F01E         	goto	i1u210_20
  7819  003D1C                     i1u210_21:
  7820  003D1C  EF92  F01E         	goto	i1l3271
  7821  003D20                     i1u210_20:
  7822  003D20  EF92  F01E         	goto	i1l962
  7823  003D24                     i1l3271:
  7824  003D24                     i1l962:
  7825  003D24  0012               	return		;funcret
  7826  003D26                     __end_of_RB7_ISR:
  7827                           	callstack 0
  7828                           
  7829 ;; *************** function _RB6_ISR *****************
  7830 ;; Defined at:
  7831 ;;		line 150 in file "MCAL/Interrupts/mcal_external_interrupt.c"
  7832 ;; Parameters:    Size  Location     Type
  7833 ;;  Handler_Sele    1    wreg     unsigned char 
  7834 ;; Auto vars:     Size  Location     Type
  7835 ;;  Handler_Sele    1   37[COMRAM] unsigned char 
  7836 ;; Return value:  Size  Location     Type
  7837 ;;                  1    wreg      void 
  7838 ;; Registers used:
  7839 ;;		wreg, status,2
  7840 ;; Tracked objects:
  7841 ;;		On entry : 0/0
  7842 ;;		On exit  : 0/0
  7843 ;;		Unchanged: 0/0
  7844 ;; Data sizes:     COMRAM   BANK0   BANK1   BANK2   BANK3   BANK4   BANK5   BANK6   BANK7   BANK8   BANK9  BANK10  BANK1
      +1  BANK12  BANK13  BANK14  BANK15
  7845 ;;      Params:         0       0       0       0       0       0       0       0       0       0       0       0       
      +0       0       0       0       0
  7846 ;;      Locals:         1       0       0       0       0       0       0       0       0       0       0       0       
      +0       0       0       0       0
  7847 ;;      Temps:          0       0       0       0       0       0       0       0       0       0       0       0       
      +0       0       0       0       0
  7848 ;;      Totals:         1       0       0       0       0       0       0       0       0       0       0       0       
      +0       0       0       0       0
  7849 ;;Total ram usage:        1 bytes
  7850 ;; Hardware stack levels used:    1
  7851 ;; Hardware stack levels required when called:    8
  7852 ;; This function calls:
  7853 ;;		Nothing
  7854 ;; This function is called by:
  7855 ;;		_InterruptManagerLow
  7856 ;; This function uses a non-reentrant model
  7857 ;;
  7858                           
  7859                           	psect	text29
  7860  003D26                     __ptext29:
  7861                           	callstack 0
  7862  003D26                     _RB6_ISR:
  7863                           	callstack 15
  7864                           
  7865                           ;incstack = 0
  7866                           ;RB6_ISR@Handler_Select stored from wreg
  7867  003D26  6E26               	movwf	RB6_ISR@Handler_Select^0,c
  7868  003D28                     
  7869                           ;MCAL/Interrupts/mcal_external_interrupt.c: 150: void RB6_ISR(uint8_t Handler_Select);MC
      +                          AL/Interrupts/mcal_external_interrupt.c: 151: {;MCAL/Interrupts/mcal_external_interrupt.
      +                          c: 153:     (INTCONbits.RBIF = 0 );
  7870  003D28  90F2               	bcf	242,0,c	;volatile
  7871  003D2A                     
  7872                           ;MCAL/Interrupts/mcal_external_interrupt.c: 157:     if(Handler_Select)
  7873  003D2A  5026               	movf	RB6_ISR@Handler_Select^0,w,c
  7874  003D2C  B4D8               	btfsc	status,2,c
  7875  003D2E  EF9B  F01E         	goto	i1u209_21
  7876  003D32  EF9D  F01E         	goto	i1u209_20
  7877  003D36                     i1u209_21:
  7878  003D36  EF9F  F01E         	goto	i1l3261
  7879  003D3A                     i1u209_20:
  7880  003D3A  EF9F  F01E         	goto	i1l953
  7881  003D3E                     i1l3261:
  7882  003D3E                     i1l953:
  7883  003D3E  0012               	return		;funcret
  7884  003D40                     __end_of_RB6_ISR:
  7885                           	callstack 0
  7886                           
  7887 ;; *************** function _RB5_ISR *****************
  7888 ;; Defined at:
  7889 ;;		line 125 in file "MCAL/Interrupts/mcal_external_interrupt.c"
  7890 ;; Parameters:    Size  Location     Type
  7891 ;;  Handler_Sele    1    wreg     unsigned char 
  7892 ;; Auto vars:     Size  Location     Type
  7893 ;;  Handler_Sele    1   37[COMRAM] unsigned char 
  7894 ;; Return value:  Size  Location     Type
  7895 ;;                  1    wreg      void 
  7896 ;; Registers used:
  7897 ;;		wreg, status,2
  7898 ;; Tracked objects:
  7899 ;;		On entry : 0/0
  7900 ;;		On exit  : 0/0
  7901 ;;		Unchanged: 0/0
  7902 ;; Data sizes:     COMRAM   BANK0   BANK1   BANK2   BANK3   BANK4   BANK5   BANK6   BANK7   BANK8   BANK9  BANK10  BANK1
      +1  BANK12  BANK13  BANK14  BANK15
  7903 ;;      Params:         0       0       0       0       0       0       0       0       0       0       0       0       
      +0       0       0       0       0
  7904 ;;      Locals:         1       0       0       0       0       0       0       0       0       0       0       0       
      +0       0       0       0       0
  7905 ;;      Temps:          0       0       0       0       0       0       0       0       0       0       0       0       
      +0       0       0       0       0
  7906 ;;      Totals:         1       0       0       0       0       0       0       0       0       0       0       0       
      +0       0       0       0       0
  7907 ;;Total ram usage:        1 bytes
  7908 ;; Hardware stack levels used:    1
  7909 ;; Hardware stack levels required when called:    8
  7910 ;; This function calls:
  7911 ;;		Nothing
  7912 ;; This function is called by:
  7913 ;;		_InterruptManagerLow
  7914 ;; This function uses a non-reentrant model
  7915 ;;
  7916                           
  7917                           	psect	text30
  7918  003D40                     __ptext30:
  7919                           	callstack 0
  7920  003D40                     _RB5_ISR:
  7921                           	callstack 15
  7922                           
  7923                           ;incstack = 0
  7924                           ;RB5_ISR@Handler_Select stored from wreg
  7925  003D40  6E26               	movwf	RB5_ISR@Handler_Select^0,c
  7926  003D42                     
  7927                           ;MCAL/Interrupts/mcal_external_interrupt.c: 125: void RB5_ISR(uint8_t Handler_Select);MC
      +                          AL/Interrupts/mcal_external_interrupt.c: 126: {;MCAL/Interrupts/mcal_external_interrupt.
      +                          c: 128:     (INTCONbits.RBIF = 0 );
  7928  003D42  90F2               	bcf	242,0,c	;volatile
  7929  003D44                     
  7930                           ;MCAL/Interrupts/mcal_external_interrupt.c: 132:     if(Handler_Select)
  7931  003D44  5026               	movf	RB5_ISR@Handler_Select^0,w,c
  7932  003D46  B4D8               	btfsc	status,2,c
  7933  003D48  EFA8  F01E         	goto	i1u208_21
  7934  003D4C  EFAA  F01E         	goto	i1u208_20
  7935  003D50                     i1u208_21:
  7936  003D50  EFAC  F01E         	goto	i1l3251
  7937  003D54                     i1u208_20:
  7938  003D54  EFAC  F01E         	goto	i1l944
  7939  003D58                     i1l3251:
  7940  003D58                     i1l944:
  7941  003D58  0012               	return		;funcret
  7942  003D5A                     __end_of_RB5_ISR:
  7943                           	callstack 0
  7944                           
  7945 ;; *************** function _RB4_ISR *****************
  7946 ;; Defined at:
  7947 ;;		line 101 in file "MCAL/Interrupts/mcal_external_interrupt.c"
  7948 ;; Parameters:    Size  Location     Type
  7949 ;;  Handler_Sele    1    wreg     unsigned char 
  7950 ;; Auto vars:     Size  Location     Type
  7951 ;;  Handler_Sele    1   37[COMRAM] unsigned char 
  7952 ;; Return value:  Size  Location     Type
  7953 ;;                  1    wreg      void 
  7954 ;; Registers used:
  7955 ;;		wreg, status,2
  7956 ;; Tracked objects:
  7957 ;;		On entry : 0/0
  7958 ;;		On exit  : 0/0
  7959 ;;		Unchanged: 0/0
  7960 ;; Data sizes:     COMRAM   BANK0   BANK1   BANK2   BANK3   BANK4   BANK5   BANK6   BANK7   BANK8   BANK9  BANK10  BANK1
      +1  BANK12  BANK13  BANK14  BANK15
  7961 ;;      Params:         0       0       0       0       0       0       0       0       0       0       0       0       
      +0       0       0       0       0
  7962 ;;      Locals:         1       0       0       0       0       0       0       0       0       0       0       0       
      +0       0       0       0       0
  7963 ;;      Temps:          0       0       0       0       0       0       0       0       0       0       0       0       
      +0       0       0       0       0
  7964 ;;      Totals:         1       0       0       0       0       0       0       0       0       0       0       0       
      +0       0       0       0       0
  7965 ;;Total ram usage:        1 bytes
  7966 ;; Hardware stack levels used:    1
  7967 ;; Hardware stack levels required when called:    8
  7968 ;; This function calls:
  7969 ;;		Nothing
  7970 ;; This function is called by:
  7971 ;;		_InterruptManagerLow
  7972 ;; This function uses a non-reentrant model
  7973 ;;
  7974                           
  7975                           	psect	text31
  7976  003D5A                     __ptext31:
  7977                           	callstack 0
  7978  003D5A                     _RB4_ISR:
  7979                           	callstack 15
  7980                           
  7981                           ;incstack = 0
  7982                           ;RB4_ISR@Handler_Select stored from wreg
  7983  003D5A  6E26               	movwf	RB4_ISR@Handler_Select^0,c
  7984  003D5C                     
  7985                           ;MCAL/Interrupts/mcal_external_interrupt.c: 101: void RB4_ISR(uint8_t Handler_Select);MC
      +                          AL/Interrupts/mcal_external_interrupt.c: 102: {;MCAL/Interrupts/mcal_external_interrupt.
      +                          c: 104:     (INTCONbits.RBIF = 0 );
  7986  003D5C  90F2               	bcf	242,0,c	;volatile
  7987  003D5E                     
  7988                           ;MCAL/Interrupts/mcal_external_interrupt.c: 108:     if(Handler_Select)
  7989  003D5E  5026               	movf	RB4_ISR@Handler_Select^0,w,c
  7990  003D60  B4D8               	btfsc	status,2,c
  7991  003D62  EFB5  F01E         	goto	i1u207_21
  7992  003D66  EFB7  F01E         	goto	i1u207_20
  7993  003D6A                     i1u207_21:
  7994  003D6A  EFB9  F01E         	goto	i1l3241
  7995  003D6E                     i1u207_20:
  7996  003D6E  EFB9  F01E         	goto	i1l935
  7997  003D72                     i1l3241:
  7998  003D72                     i1l935:
  7999  003D72  0012               	return		;funcret
  8000  003D74                     __end_of_RB4_ISR:
  8001                           	callstack 0
  8002                           
  8003 ;; *************** function _INT1_ISR *****************
  8004 ;; Defined at:
  8005 ;;		line 73 in file "MCAL/Interrupts/mcal_external_interrupt.c"
  8006 ;; Parameters:    Size  Location     Type
  8007 ;;		None
  8008 ;; Auto vars:     Size  Location     Type
  8009 ;;		None
  8010 ;; Return value:  Size  Location     Type
  8011 ;;                  1    wreg      void 
  8012 ;; Registers used:
  8013 ;;		None
  8014 ;; Tracked objects:
  8015 ;;		On entry : 0/0
  8016 ;;		On exit  : 0/0
  8017 ;;		Unchanged: 0/0
  8018 ;; Data sizes:     COMRAM   BANK0   BANK1   BANK2   BANK3   BANK4   BANK5   BANK6   BANK7   BANK8   BANK9  BANK10  BANK1
      +1  BANK12  BANK13  BANK14  BANK15
  8019 ;;      Params:         0       0       0       0       0       0       0       0       0       0       0       0       
      +0       0       0       0       0
  8020 ;;      Locals:         0       0       0       0       0       0       0       0       0       0       0       0       
      +0       0       0       0       0
  8021 ;;      Temps:          0       0       0       0       0       0       0       0       0       0       0       0       
      +0       0       0       0       0
  8022 ;;      Totals:         0       0       0       0       0       0       0       0       0       0       0       0       
      +0       0       0       0       0
  8023 ;;Total ram usage:        0 bytes
  8024 ;; Hardware stack levels used:    1
  8025 ;; Hardware stack levels required when called:    8
  8026 ;; This function calls:
  8027 ;;		Nothing
  8028 ;; This function is called by:
  8029 ;;		_InterruptManagerLow
  8030 ;; This function uses a non-reentrant model
  8031 ;;
  8032                           
  8033                           	psect	text32
  8034  003D82                     __ptext32:
  8035                           	callstack 0
  8036  003D82                     _INT1_ISR:
  8037                           	callstack 15
  8038  003D82                     
  8039                           ;MCAL/Interrupts/mcal_external_interrupt.c: 76:     (INTCON3bits.INT1IF = 0 );
  8040  003D82  90F0               	bcf	240,0,c	;volatile
  8041  003D84  0012               	return		;funcret
  8042  003D86                     __end_of_INT1_ISR:
  8043                           	callstack 0
  8044                           
  8045 ;; *************** function _InterruptManagerHigh *****************
  8046 ;; Defined at:
  8047 ;;		line 33 in file "MCAL/Interrupts/mcal_interrupt_manager.c"
  8048 ;; Parameters:    Size  Location     Type
  8049 ;;		None
  8050 ;; Auto vars:     Size  Location     Type
  8051 ;;		None
  8052 ;; Return value:  Size  Location     Type
  8053 ;;                  1    wreg      void 
  8054 ;; Registers used:
  8055 ;;		wreg, fsr2l, fsr2h, status,2, status,0, pclath, tosl, prodl, prodh, cstack
  8056 ;; Tracked objects:
  8057 ;;		On entry : 0/0
  8058 ;;		On exit  : 0/0
  8059 ;;		Unchanged: 0/0
  8060 ;; Data sizes:     COMRAM   BANK0   BANK1   BANK2   BANK3   BANK4   BANK5   BANK6   BANK7   BANK8   BANK9  BANK10  BANK1
      +1  BANK12  BANK13  BANK14  BANK15
  8061 ;;      Params:         0       0       0       0       0       0       0       0       0       0       0       0       
      +0       0       0       0       0
  8062 ;;      Locals:         0       0       0       0       0       0       0       0       0       0       0       0       
      +0       0       0       0       0
  8063 ;;      Temps:          6       0       0       0       0       0       0       0       0       0       0       0       
      +0       0       0       0       0
  8064 ;;      Totals:         6       0       0       0       0       0       0       0       0       0       0       0       
      +0       0       0       0       0
  8065 ;;Total ram usage:        6 bytes
  8066 ;; Hardware stack levels used:    1
  8067 ;; Hardware stack levels required when called:    7
  8068 ;; This function calls:
  8069 ;;		_EUSART_Rx_ISR
  8070 ;;		_EUSART_Tx_ISR
  8071 ;;		_INT0_ISR
  8072 ;;		_INT2_ISR
  8073 ;; This function is called by:
  8074 ;;		Interrupt level 2
  8075 ;; This function uses a non-reentrant model
  8076 ;;
  8077                           
  8078                           	psect	intcode
  8079  000008                     __pintcode:
  8080                           	callstack 0
  8081  000008                     _InterruptManagerHigh:
  8082                           	callstack 15
  8083                           
  8084                           ;incstack = 0
  8085  000008  8256               	bsf	int$flags,1,c	;set compiler interrupt flag (level 2)
  8086  00000A  EDC4  F016         	call	int_func,f	;refresh shadow registers
  8087                           
  8088                           	psect	intcode_body
  8089  002D88                     __pintcode_body:
  8090                           	callstack 15
  8091  002D88                     int_func:
  8092                           	callstack 15
  8093  002D88  0006               	pop		; remove dummy address from shadow register refresh
  8094  002D8A  CFFA F020          	movff	pclath,??_InterruptManagerHigh
  8095  002D8E  CFFB F021          	movff	pclatu,??_InterruptManagerHigh+1
  8096  002D92  CFD9 F022          	movff	fsr2l,??_InterruptManagerHigh+2
  8097  002D96  CFDA F023          	movff	fsr2h,??_InterruptManagerHigh+3
  8098  002D9A  CFF3 F024          	movff	prodl,??_InterruptManagerHigh+4
  8099  002D9E  CFF4 F025          	movff	prodh,??_InterruptManagerHigh+5
  8100  002DA2                     
  8101                           ;MCAL/Interrupts/mcal_interrupt_manager.c: 36:     if( (1 == INTCONbits.INT0IE) && (1 ==
      +                           INTCONbits.INT0IF) )
  8102  002DA2  A8F2               	btfss	242,4,c	;volatile
  8103  002DA4  EFD6  F016         	goto	i2u684_41
  8104  002DA8  EFD8  F016         	goto	i2u684_40
  8105  002DAC                     i2u684_41:
  8106  002DAC  EFE1  F016         	goto	i2l810
  8107  002DB0                     i2u684_40:
  8108  002DB0  A2F2               	btfss	242,1,c	;volatile
  8109  002DB2  EFDD  F016         	goto	i2u685_41
  8110  002DB6  EFDF  F016         	goto	i2u685_40
  8111  002DBA                     i2u685_41:
  8112  002DBA  EFE1  F016         	goto	i2l810
  8113  002DBE                     i2u685_40:
  8114  002DBE                     
  8115                           ;MCAL/Interrupts/mcal_interrupt_manager.c: 37:     {;MCAL/Interrupts/mcal_interrupt_mana
      +                          ger.c: 38:         INT0_ISR();
  8116  002DBE  ECC5  F01E         	call	_INT0_ISR	;wreg free
  8117  002DC2                     i2l810:
  8118                           
  8119                           ;MCAL/Interrupts/mcal_interrupt_manager.c: 42:     if( (1 == INTCON3bits.INT2IE) && (1 =
      +                          = INTCON3bits.INT2IF) )
  8120  002DC2  A8F0               	btfss	240,4,c	;volatile
  8121  002DC4  EFE6  F016         	goto	i2u686_41
  8122  002DC8  EFE8  F016         	goto	i2u686_40
  8123  002DCC                     i2u686_41:
  8124  002DCC  EFF1  F016         	goto	i2l812
  8125  002DD0                     i2u686_40:
  8126  002DD0  A2F0               	btfss	240,1,c	;volatile
  8127  002DD2  EFED  F016         	goto	i2u687_41
  8128  002DD6  EFEF  F016         	goto	i2u687_40
  8129  002DDA                     i2u687_41:
  8130  002DDA  EFF1  F016         	goto	i2l812
  8131  002DDE                     i2u687_40:
  8132  002DDE                     
  8133                           ;MCAL/Interrupts/mcal_interrupt_manager.c: 43:     {;MCAL/Interrupts/mcal_interrupt_mana
      +                          ger.c: 44:         INT2_ISR();
  8134  002DDE  ECC3  F01E         	call	_INT2_ISR	;wreg free
  8135  002DE2                     i2l812:
  8136                           
  8137                           ;MCAL/Interrupts/mcal_interrupt_manager.c: 49:     if( (1 == INTCONbits.TMR0IE) && (1 ==
      +                           INTCONbits.TMR0IF) )
  8138  002DE2  AAF2               	btfss	242,5,c	;volatile
  8139  002DE4  EFF6  F016         	goto	i2u688_41
  8140  002DE8  EFF8  F016         	goto	i2u688_40
  8141  002DEC                     i2u688_41:
  8142  002DEC  EFF9  F016         	goto	i2l814
  8143  002DF0                     i2u688_40:
  8144  002DF0  50F2               	movf	242,w,c	;volatile
  8145  002DF2                     i2l814:
  8146                           
  8147                           ;MCAL/Interrupts/mcal_interrupt_manager.c: 55:     if( (1 == PIE1bits.TMR2IE) && (1 == P
      +                          IR1bits.TMR2IF) )
  8148  002DF2  A29D               	btfss	157,1,c	;volatile
  8149  002DF4  EFFE  F016         	goto	i2u689_41
  8150  002DF8  EF00  F017         	goto	i2u689_40
  8151  002DFC                     i2u689_41:
  8152  002DFC  EF01  F017         	goto	i2l816
  8153  002E00                     i2u689_40:
  8154  002E00  509E               	movf	158,w,c	;volatile
  8155  002E02                     i2l816:
  8156                           
  8157                           ;MCAL/Interrupts/mcal_interrupt_manager.c: 62:     if( (1 == PIE2bits.TMR3IE) && (1 == P
      +                          IR2bits.TMR3IF) )
  8158  002E02  A2A0               	btfss	160,1,c	;volatile
  8159  002E04  EF06  F017         	goto	i2u690_41
  8160  002E08  EF08  F017         	goto	i2u690_40
  8161  002E0C                     i2u690_41:
  8162  002E0C  EF09  F017         	goto	i2l818
  8163  002E10                     i2u690_40:
  8164  002E10  50A1               	movf	161,w,c	;volatile
  8165  002E12                     i2l818:
  8166                           
  8167                           ;MCAL/Interrupts/mcal_interrupt_manager.c: 68:     if( (1 == PIE2bits.CCP2IE) && (1 == P
      +                          IR2bits.CCP2IF) )
  8168  002E12  A0A0               	btfss	160,0,c	;volatile
  8169  002E14  EF0E  F017         	goto	i2u691_41
  8170  002E18  EF10  F017         	goto	i2u691_40
  8171  002E1C                     i2u691_41:
  8172  002E1C  EF11  F017         	goto	i2l820
  8173  002E20                     i2u691_40:
  8174  002E20  50A1               	movf	161,w,c	;volatile
  8175  002E22                     i2l820:
  8176                           
  8177                           ;MCAL/Interrupts/mcal_interrupt_manager.c: 74:     if( (1 == PIE1bits.RCIE) && (1 == PIR
      +                          1bits.RCIF) )
  8178  002E22  AA9D               	btfss	157,5,c	;volatile
  8179  002E24  EF16  F017         	goto	i2u692_41
  8180  002E28  EF18  F017         	goto	i2u692_40
  8181  002E2C                     i2u692_41:
  8182  002E2C  EF21  F017         	goto	i2l822
  8183  002E30                     i2u692_40:
  8184  002E30  AA9E               	btfss	158,5,c	;volatile
  8185  002E32  EF1D  F017         	goto	i2u693_41
  8186  002E36  EF1F  F017         	goto	i2u693_40
  8187  002E3A                     i2u693_41:
  8188  002E3A  EF21  F017         	goto	i2l822
  8189  002E3E                     i2u693_40:
  8190  002E3E                     
  8191                           ;MCAL/Interrupts/mcal_interrupt_manager.c: 75:     {;MCAL/Interrupts/mcal_interrupt_mana
      +                          ger.c: 76:         EUSART_Rx_ISR();
  8192  002E3E  EC46  F01E         	call	_EUSART_Rx_ISR	;wreg free
  8193  002E42                     i2l822:
  8194                           
  8195                           ;MCAL/Interrupts/mcal_interrupt_manager.c: 80:     if( (1 == PIE1bits.TXIE) && (1 == PIR
      +                          1bits.TXIF) )
  8196  002E42  A89D               	btfss	157,4,c	;volatile
  8197  002E44  EF26  F017         	goto	i2u694_41
  8198  002E48  EF28  F017         	goto	i2u694_40
  8199  002E4C                     i2u694_41:
  8200  002E4C  EF31  F017         	goto	i2l824
  8201  002E50                     i2u694_40:
  8202  002E50  A89E               	btfss	158,4,c	;volatile
  8203  002E52  EF2D  F017         	goto	i2u695_41
  8204  002E56  EF2F  F017         	goto	i2u695_40
  8205  002E5A                     i2u695_41:
  8206  002E5A  EF31  F017         	goto	i2l824
  8207  002E5E                     i2u695_40:
  8208  002E5E                     
  8209                           ;MCAL/Interrupts/mcal_interrupt_manager.c: 81:     {;MCAL/Interrupts/mcal_interrupt_mana
      +                          ger.c: 82:         EUSART_Tx_ISR();
  8210  002E5E  ECC7  F01E         	call	_EUSART_Tx_ISR	;wreg free
  8211  002E62                     i2l824:
  8212                           
  8213                           ;MCAL/Interrupts/mcal_interrupt_manager.c: 86:     if( (1 == PIE2bits.BCLIE) && (1 == PI
      +                          R2bits.BCLIF) )
  8214  002E62  A6A0               	btfss	160,3,c	;volatile
  8215  002E64  EF36  F017         	goto	i2u696_41
  8216  002E68  EF38  F017         	goto	i2u696_40
  8217  002E6C                     i2u696_41:
  8218  002E6C  EF39  F017         	goto	i2l826
  8219  002E70                     i2u696_40:
  8220  002E70  50A1               	movf	161,w,c	;volatile
  8221  002E72                     i2l826:
  8222                           
  8223                           ;MCAL/Interrupts/mcal_interrupt_manager.c: 92:     if( (1 == PIE1bits.SSPIE) && (1 == PI
      +                          R1bits.SSPIF) )
  8224  002E72  A69D               	btfss	157,3,c	;volatile
  8225  002E74  EF3E  F017         	goto	i2u697_41
  8226  002E78  EF40  F017         	goto	i2u697_40
  8227  002E7C                     i2u697_41:
  8228  002E7C  EF41  F017         	goto	i2l829
  8229  002E80                     i2u697_40:
  8230  002E80  509E               	movf	158,w,c	;volatile
  8231  002E82                     i2l829:
  8232  002E82  C025  FFF4         	movff	??_InterruptManagerHigh+5,prodh
  8233  002E86  C024  FFF3         	movff	??_InterruptManagerHigh+4,prodl
  8234  002E8A  C023  FFDA         	movff	??_InterruptManagerHigh+3,fsr2h
  8235  002E8E  C022  FFD9         	movff	??_InterruptManagerHigh+2,fsr2l
  8236  002E92  C021  FFFB         	movff	??_InterruptManagerHigh+1,pclatu
  8237  002E96  C020  FFFA         	movff	??_InterruptManagerHigh,pclath
  8238  002E9A  9256               	bcf	int$flags,1,c	;clear compiler interrupt flag (level 2)
  8239  002E9C  0011               	retfie		f
  8240  002E9E                     __end_of_InterruptManagerHigh:
  8241                           	callstack 0
  8242                           
  8243 ;; *************** function _INT2_ISR *****************
  8244 ;; Defined at:
  8245 ;;		line 86 in file "MCAL/Interrupts/mcal_external_interrupt.c"
  8246 ;; Parameters:    Size  Location     Type
  8247 ;;		None
  8248 ;; Auto vars:     Size  Location     Type
  8249 ;;		None
  8250 ;; Return value:  Size  Location     Type
  8251 ;;                  1    wreg      void 
  8252 ;; Registers used:
  8253 ;;		None
  8254 ;; Tracked objects:
  8255 ;;		On entry : 0/0
  8256 ;;		On exit  : 0/0
  8257 ;;		Unchanged: 0/0
  8258 ;; Data sizes:     COMRAM   BANK0   BANK1   BANK2   BANK3   BANK4   BANK5   BANK6   BANK7   BANK8   BANK9  BANK10  BANK1
      +1  BANK12  BANK13  BANK14  BANK15
  8259 ;;      Params:         0       0       0       0       0       0       0       0       0       0       0       0       
      +0       0       0       0       0
  8260 ;;      Locals:         0       0       0       0       0       0       0       0       0       0       0       0       
      +0       0       0       0       0
  8261 ;;      Temps:          0       0       0       0       0       0       0       0       0       0       0       0       
      +0       0       0       0       0
  8262 ;;      Totals:         0       0       0       0       0       0       0       0       0       0       0       0       
      +0       0       0       0       0
  8263 ;;Total ram usage:        0 bytes
  8264 ;; Hardware stack levels used:    1
  8265 ;; This function calls:
  8266 ;;		Nothing
  8267 ;; This function is called by:
  8268 ;;		_InterruptManagerHigh
  8269 ;; This function uses a non-reentrant model
  8270 ;;
  8271                           
  8272                           	psect	text34
  8273  003D86                     __ptext34:
  8274                           	callstack 0
  8275  003D86                     _INT2_ISR:
  8276                           	callstack 21
  8277  003D86                     
  8278                           ;MCAL/Interrupts/mcal_external_interrupt.c: 89:     (INTCON3bits.INT2IF = 0);
  8279  003D86  92F0               	bcf	240,1,c	;volatile
  8280  003D88  0012               	return		;funcret
  8281  003D8A                     __end_of_INT2_ISR:
  8282                           	callstack 0
  8283                           
  8284 ;; *************** function _INT0_ISR *****************
  8285 ;; Defined at:
  8286 ;;		line 60 in file "MCAL/Interrupts/mcal_external_interrupt.c"
  8287 ;; Parameters:    Size  Location     Type
  8288 ;;		None
  8289 ;; Auto vars:     Size  Location     Type
  8290 ;;		None
  8291 ;; Return value:  Size  Location     Type
  8292 ;;                  1    wreg      void 
  8293 ;; Registers used:
  8294 ;;		None
  8295 ;; Tracked objects:
  8296 ;;		On entry : 0/0
  8297 ;;		On exit  : 0/0
  8298 ;;		Unchanged: 0/0
  8299 ;; Data sizes:     COMRAM   BANK0   BANK1   BANK2   BANK3   BANK4   BANK5   BANK6   BANK7   BANK8   BANK9  BANK10  BANK1
      +1  BANK12  BANK13  BANK14  BANK15
  8300 ;;      Params:         0       0       0       0       0       0       0       0       0       0       0       0       
      +0       0       0       0       0
  8301 ;;      Locals:         0       0       0       0       0       0       0       0       0       0       0       0       
      +0       0       0       0       0
  8302 ;;      Temps:          0       0       0       0       0       0       0       0       0       0       0       0       
      +0       0       0       0       0
  8303 ;;      Totals:         0       0       0       0       0       0       0       0       0       0       0       0       
      +0       0       0       0       0
  8304 ;;Total ram usage:        0 bytes
  8305 ;; Hardware stack levels used:    1
  8306 ;; This function calls:
  8307 ;;		Nothing
  8308 ;; This function is called by:
  8309 ;;		_InterruptManagerHigh
  8310 ;; This function uses a non-reentrant model
  8311 ;;
  8312                           
  8313                           	psect	text35
  8314  003D8A                     __ptext35:
  8315                           	callstack 0
  8316  003D8A                     _INT0_ISR:
  8317                           	callstack 21
  8318  003D8A                     
  8319                           ;MCAL/Interrupts/mcal_external_interrupt.c: 63:     (INTCONbits.INT0IF = 0 );
  8320  003D8A  92F2               	bcf	242,1,c	;volatile
  8321  003D8C  0012               	return		;funcret
  8322  003D8E                     __end_of_INT0_ISR:
  8323                           	callstack 0
  8324                           
  8325 ;; *************** function _EUSART_Tx_ISR *****************
  8326 ;; Defined at:
  8327 ;;		line 685 in file "MCAL/EUSART/mcal_EUSART.c"
  8328 ;; Parameters:    Size  Location     Type
  8329 ;;		None
  8330 ;; Auto vars:     Size  Location     Type
  8331 ;;		None
  8332 ;; Return value:  Size  Location     Type
  8333 ;;                  1    wreg      void 
  8334 ;; Registers used:
  8335 ;;		None
  8336 ;; Tracked objects:
  8337 ;;		On entry : 0/0
  8338 ;;		On exit  : 0/0
  8339 ;;		Unchanged: 0/0
  8340 ;; Data sizes:     COMRAM   BANK0   BANK1   BANK2   BANK3   BANK4   BANK5   BANK6   BANK7   BANK8   BANK9  BANK10  BANK1
      +1  BANK12  BANK13  BANK14  BANK15
  8341 ;;      Params:         0       0       0       0       0       0       0       0       0       0       0       0       
      +0       0       0       0       0
  8342 ;;      Locals:         0       0       0       0       0       0       0       0       0       0       0       0       
      +0       0       0       0       0
  8343 ;;      Temps:          0       0       0       0       0       0       0       0       0       0       0       0       
      +0       0       0       0       0
  8344 ;;      Totals:         0       0       0       0       0       0       0       0       0       0       0       0       
      +0       0       0       0       0
  8345 ;;Total ram usage:        0 bytes
  8346 ;; Hardware stack levels used:    1
  8347 ;; This function calls:
  8348 ;;		Nothing
  8349 ;; This function is called by:
  8350 ;;		_InterruptManagerHigh
  8351 ;; This function uses a non-reentrant model
  8352 ;;
  8353                           
  8354                           	psect	text36
  8355  003D8E                     __ptext36:
  8356                           	callstack 0
  8357  003D8E                     _EUSART_Tx_ISR:
  8358                           	callstack 21
  8359  003D8E  0012               	return		;funcret
  8360  003D90                     __end_of_EUSART_Tx_ISR:
  8361                           	callstack 0
  8362                           
  8363 ;; *************** function _EUSART_Rx_ISR *****************
  8364 ;; Defined at:
  8365 ;;		line 703 in file "MCAL/EUSART/mcal_EUSART.c"
  8366 ;; Parameters:    Size  Location     Type
  8367 ;;		None
  8368 ;; Auto vars:     Size  Location     Type
  8369 ;;		None
  8370 ;; Return value:  Size  Location     Type
  8371 ;;                  1    wreg      void 
  8372 ;; Registers used:
  8373 ;;		wreg, fsr2l, fsr2h, status,2, status,0, pclath, tosl, prodl, prodh, cstack
  8374 ;; Tracked objects:
  8375 ;;		On entry : 0/0
  8376 ;;		On exit  : 0/0
  8377 ;;		Unchanged: 0/0
  8378 ;; Data sizes:     COMRAM   BANK0   BANK1   BANK2   BANK3   BANK4   BANK5   BANK6   BANK7   BANK8   BANK9  BANK10  BANK1
      +1  BANK12  BANK13  BANK14  BANK15
  8379 ;;      Params:         0       0       0       0       0       0       0       0       0       0       0       0       
      +0       0       0       0       0
  8380 ;;      Locals:         0       0       0       0       0       0       0       0       0       0       0       0       
      +0       0       0       0       0
  8381 ;;      Temps:          0       0       0       0       0       0       0       0       0       0       0       0       
      +0       0       0       0       0
  8382 ;;      Totals:         0       0       0       0       0       0       0       0       0       0       0       0       
      +0       0       0       0       0
  8383 ;;Total ram usage:        0 bytes
  8384 ;; Hardware stack levels used:    1
  8385 ;; Hardware stack levels required when called:    6
  8386 ;; This function calls:
  8387 ;;		Absolute function
  8388 ;;		_usart_isr
  8389 ;; This function is called by:
  8390 ;;		_InterruptManagerHigh
  8391 ;; This function uses a non-reentrant model
  8392 ;;
  8393                           
  8394                           	psect	text37
  8395  003C8C                     __ptext37:
  8396                           	callstack 0
  8397  003C8C                     _EUSART_Rx_ISR:
  8398                           	callstack 15
  8399  003C8C                     
  8400                           ;MCAL/EUSART/mcal_EUSART.c: 708:     if(eusart_Rx_InterruptHandler)
  8401  003C8C  5043               	movf	_eusart_Rx_InterruptHandler^0,w,c
  8402  003C8E  1044               	iorwf	(_eusart_Rx_InterruptHandler+1)^0,w,c
  8403  003C90  B4D8               	btfsc	status,2,c
  8404  003C92  EF4D  F01E         	goto	i2u608_41
  8405  003C96  EF4F  F01E         	goto	i2u608_40
  8406  003C9A                     i2u608_41:
  8407  003C9A  EF5B  F01E         	goto	i2l483
  8408  003C9E                     i2u608_40:
  8409  003C9E                     
  8410                           ;MCAL/EUSART/mcal_EUSART.c: 709:     {;MCAL/EUSART/mcal_EUSART.c: 710:         eusart_Rx
      +                          _InterruptHandler();
  8411  003C9E  D802               	call	i2u609_48
  8412  003CA0  EF5B  F01E         	goto	i2u609_49
  8413  003CA4                     i2u609_48:
  8414  003CA4  0005               	push	
  8415  003CA6  6EFA               	movwf	pclath,c
  8416  003CA8  5043               	movf	_eusart_Rx_InterruptHandler^0,w,c
  8417  003CAA  6EFD               	movwf	tosl,c
  8418  003CAC  5044               	movf	(_eusart_Rx_InterruptHandler+1)^0,w,c
  8419  003CAE  6EFE               	movwf	tosh,c
  8420  003CB0  6AFF               	clrf	tosu,c
  8421  003CB2  50FA               	movf	pclath,w,c
  8422  003CB4  0012               	return		;indir
  8423  003CB6                     i2u609_49:
  8424  003CB6                     i2l483:
  8425  003CB6  0012               	return		;funcret
  8426  003CB8                     __end_of_EUSART_Rx_ISR:
  8427                           	callstack 0
  8428                           
  8429 ;; *************** function _usart_isr *****************
  8430 ;; Defined at:
  8431 ;;		line 188 in file "application.c"
  8432 ;; Parameters:    Size  Location     Type
  8433 ;;		None
  8434 ;; Auto vars:     Size  Location     Type
  8435 ;;		None
  8436 ;; Return value:  Size  Location     Type
  8437 ;;                  1    wreg      void 
  8438 ;; Registers used:
  8439 ;;		wreg, fsr2l, fsr2h, status,2, status,0, prodl, prodh, cstack
  8440 ;; Tracked objects:
  8441 ;;		On entry : 0/0
  8442 ;;		On exit  : 0/0
  8443 ;;		Unchanged: 0/0
  8444 ;; Data sizes:     COMRAM   BANK0   BANK1   BANK2   BANK3   BANK4   BANK5   BANK6   BANK7   BANK8   BANK9  BANK10  BANK1
      +1  BANK12  BANK13  BANK14  BANK15
  8445 ;;      Params:         0       0       0       0       0       0       0       0       0       0       0       0       
      +0       0       0       0       0
  8446 ;;      Locals:         0       0       0       0       0       0       0       0       0       0       0       0       
      +0       0       0       0       0
  8447 ;;      Temps:          0       0       0       0       0       0       0       0       0       0       0       0       
      +0       0       0       0       0
  8448 ;;      Totals:         0       0       0       0       0       0       0       0       0       0       0       0       
      +0       0       0       0       0
  8449 ;;Total ram usage:        0 bytes
  8450 ;; Hardware stack levels used:    1
  8451 ;; Hardware stack levels required when called:    5
  8452 ;; This function calls:
  8453 ;;		_Bluetooth_Send_Data_Non_Blocking
  8454 ;;		_lcd_4bit_send_char_data_pos
  8455 ;;		i2_EUSART_Async_Read_Data
  8456 ;;		i2_GPIO_Pin_Toggle_Logic
  8457 ;; This function is called by:
  8458 ;;		_EUSART_Rx_ISR
  8459 ;; This function uses a non-reentrant model
  8460 ;;
  8461                           
  8462                           	psect	text38
  8463  003B76                     __ptext38:
  8464                           	callstack 0
  8465  003B76                     _usart_isr:
  8466                           	callstack 15
  8467  003B76                     
  8468                           ;application.c: 190:     EUSART_Async_Read_Data(&_uart_obj,&datarecive);
  8469  003B76  0EF4               	movlw	low __uart_obj
  8470  003B78  6E06               	movwf	i2EUSART_Async_Read_Data@_eusart_obj^0,c
  8471  003B7A  0E00               	movlw	high __uart_obj
  8472  003B7C  6E07               	movwf	(i2EUSART_Async_Read_Data@_eusart_obj+1)^0,c
  8473  003B7E  0E48               	movlw	low _datarecive
  8474  003B80  6E08               	movwf	i2EUSART_Async_Read_Data@data^0,c
  8475  003B82  0E00               	movlw	high _datarecive
  8476  003B84  6E09               	movwf	(i2EUSART_Async_Read_Data@data+1)^0,c
  8477  003B86  EC87  F011         	call	i2_EUSART_Async_Read_Data	;wreg free
  8478                           
  8479                           ;application.c: 191:     Bluetooth_Send_Data_Non_Blocking(&_uart_obj,datasend);
  8480  003B8A  0EF4               	movlw	low __uart_obj
  8481  003B8C  6E0D               	movwf	Bluetooth_Send_Data_Non_Blocking@_uart_obj^0,c
  8482  003B8E  0E00               	movlw	high __uart_obj
  8483  003B90  6E0E               	movwf	(Bluetooth_Send_Data_Non_Blocking@_uart_obj+1)^0,c
  8484  003B92  C04B  F00F         	movff	_datasend,Bluetooth_Send_Data_Non_Blocking@data
  8485  003B96  EC71  F01E         	call	_Bluetooth_Send_Data_Non_Blocking	;wreg free
  8486  003B9A                     
  8487                           ;application.c: 192:     lcd_4bit_send_char_data_pos(&lcd1,2,4,datarecive);
  8488  003B9A  0E4D               	movlw	low _lcd1
  8489  003B9C  6E1A               	movwf	lcd_4bit_send_char_data_pos@lcd^0,c
  8490  003B9E  0E00               	movlw	high _lcd1
  8491  003BA0  6E1B               	movwf	(lcd_4bit_send_char_data_pos@lcd+1)^0,c
  8492  003BA2  0E02               	movlw	2
  8493  003BA4  6E1C               	movwf	lcd_4bit_send_char_data_pos@row^0,c
  8494  003BA6  0E04               	movlw	4
  8495  003BA8  6E1D               	movwf	lcd_4bit_send_char_data_pos@colum^0,c
  8496  003BAA  C048  F01E         	movff	_datarecive,lcd_4bit_send_char_data_pos@data
  8497  003BAE  EC28  F01E         	call	_lcd_4bit_send_char_data_pos	;wreg free
  8498  003BB2                     
  8499                           ;application.c: 193:     GPIO_Pin_Toggle_Logic(&pind2);
  8500  003BB2  0E55               	movlw	low _pind2
  8501  003BB4  6E01               	movwf	i2GPIO_Pin_Toggle_Logic@_pin_config^0,c
  8502  003BB6  0E00               	movlw	high _pind2
  8503  003BB8  6E02               	movwf	(i2GPIO_Pin_Toggle_Logic@_pin_config+1)^0,c
  8504  003BBA  EC2F  F01B         	call	i2_GPIO_Pin_Toggle_Logic	;wreg free
  8505  003BBE  0012               	return		;funcret
  8506  003BC0                     __end_of_usart_isr:
  8507                           	callstack 0
  8508                           
  8509 ;; *************** function i2_GPIO_Pin_Toggle_Logic *****************
  8510 ;; Defined at:
  8511 ;;		line 135 in file "MCAL/GPIO/hal_gpio.c"
  8512 ;; Parameters:    Size  Location     Type
  8513 ;;  _pin_config     2    0[COMRAM] PTR const struct .
  8514 ;;		 -> pind2(1), pind1(1), 
  8515 ;; Auto vars:     Size  Location     Type
  8516 ;;  ERRORSTATUS     1    0        unsigned char 
  8517 ;; Return value:  Size  Location     Type
  8518 ;;                  1    wreg      unsigned char 
  8519 ;; Registers used:
  8520 ;;		wreg, fsr2l, fsr2h, status,2, status,0, prodl, prodh
  8521 ;; Tracked objects:
  8522 ;;		On entry : 0/0
  8523 ;;		On exit  : 0/0
  8524 ;;		Unchanged: 0/0
  8525 ;; Data sizes:     COMRAM   BANK0   BANK1   BANK2   BANK3   BANK4   BANK5   BANK6   BANK7   BANK8   BANK9  BANK10  BANK1
      +1  BANK12  BANK13  BANK14  BANK15
  8526 ;;      Params:         2       0       0       0       0       0       0       0       0       0       0       0       
      +0       0       0       0       0
  8527 ;;      Locals:         1       0       0       0       0       0       0       0       0       0       0       0       
      +0       0       0       0       0
  8528 ;;      Temps:          5       0       0       0       0       0       0       0       0       0       0       0       
      +0       0       0       0       0
  8529 ;;      Totals:         8       0       0       0       0       0       0       0       0       0       0       0       
      +0       0       0       0       0
  8530 ;;Total ram usage:        8 bytes
  8531 ;; Hardware stack levels used:    1
  8532 ;; This function calls:
  8533 ;;		Nothing
  8534 ;; This function is called by:
  8535 ;;		_usart_isr
  8536 ;; This function uses a non-reentrant model
  8537 ;;
  8538                           
  8539                           	psect	text39
  8540  00365E                     __ptext39:
  8541                           	callstack 0
  8542  00365E                     i2_GPIO_Pin_Toggle_Logic:
  8543                           	callstack 19
  8544  00365E                     
  8545                           ;MCAL/GPIO/hal_gpio.c: 138:           if ( ((void*)0)==_pin_config)
  8546  00365E  5001               	movf	i2GPIO_Pin_Toggle_Logic@_pin_config^0,w,c
  8547  003660  1002               	iorwf	(i2GPIO_Pin_Toggle_Logic@_pin_config+1)^0,w,c
  8548  003662  A4D8               	btfss	status,2,c
  8549  003664  EF36  F01B         	goto	i2u580_41
  8550  003668  EF38  F01B         	goto	i2u580_40
  8551  00366C                     i2u580_41:
  8552  00366C  EF3A  F01B         	goto	i2l5613
  8553  003670                     i2u580_40:
  8554  003670                     
  8555                           ;MCAL/GPIO/hal_gpio.c: 141:     }
  8556  003670  EF66  F01B         	goto	i2l562
  8557  003674                     i2l5613:
  8558                           
  8559                           ;MCAL/GPIO/hal_gpio.c: 143:     {;MCAL/GPIO/hal_gpio.c: 144:       (*lat_registers[_pin_
      +                          config->port]^=( (uint8)1<<_pin_config->pin ));
  8560  003674  C001  FFD9         	movff	i2GPIO_Pin_Toggle_Logic@_pin_config,fsr2l
  8561  003678  C002  FFDA         	movff	i2GPIO_Pin_Toggle_Logic@_pin_config+1,fsr2h
  8562  00367C  50DF               	movf	indf2,w,c
  8563  00367E  0B07               	andlw	7
  8564  003680  6E03               	movwf	??i2_GPIO_Pin_Toggle_Logic^0,c
  8565  003682  0E01               	movlw	1
  8566  003684  6E04               	movwf	(??i2_GPIO_Pin_Toggle_Logic+1)^0,c
  8567  003686  2A03               	incf	??i2_GPIO_Pin_Toggle_Logic^0,f,c
  8568  003688  EF48  F01B         	goto	i2u581_44
  8569  00368C                     i2u581_45:
  8570  00368C  90D8               	bcf	status,0,c
  8571  00368E  3604               	rlcf	(??i2_GPIO_Pin_Toggle_Logic+1)^0,f,c
  8572  003690                     i2u581_44:
  8573  003690  2E03               	decfsz	??i2_GPIO_Pin_Toggle_Logic^0,f,c
  8574  003692  EF46  F01B         	goto	i2u581_45
  8575  003696  C001  FFD9         	movff	i2GPIO_Pin_Toggle_Logic@_pin_config,fsr2l
  8576  00369A  C002  FFDA         	movff	i2GPIO_Pin_Toggle_Logic@_pin_config+1,fsr2h
  8577  00369E  30DF               	rrcf	indf2,w,c
  8578  0036A0  32E8               	rrcf	wreg,f,c
  8579  0036A2  32E8               	rrcf	wreg,f,c
  8580  0036A4  0B07               	andlw	7
  8581  0036A6  6E05               	movwf	(??i2_GPIO_Pin_Toggle_Logic+2)^0,c
  8582  0036A8  5005               	movf	(??i2_GPIO_Pin_Toggle_Logic+2)^0,w,c
  8583  0036AA  0D02               	mullw	2
  8584  0036AC  0EE0               	movlw	low _lat_registers
  8585  0036AE  24F3               	addwf	243,w,c
  8586  0036B0  6ED9               	movwf	fsr2l,c
  8587  0036B2  0E00               	movlw	high _lat_registers
  8588  0036B4  20F4               	addwfc	prodh,w,c
  8589  0036B6  6EDA               	movwf	fsr2h,c
  8590  0036B8  CFDE F006          	movff	postinc2,??i2_GPIO_Pin_Toggle_Logic+3
  8591  0036BC  CFDD F007          	movff	postdec2,??i2_GPIO_Pin_Toggle_Logic+4
  8592  0036C0  C006  FFD9         	movff	??i2_GPIO_Pin_Toggle_Logic+3,fsr2l
  8593  0036C4  C007  FFDA         	movff	??i2_GPIO_Pin_Toggle_Logic+4,fsr2h
  8594  0036C8  5004               	movf	(??i2_GPIO_Pin_Toggle_Logic+1)^0,w,c
  8595  0036CA  1ADF               	xorwf	indf2,f,c
  8596  0036CC                     i2l562:
  8597  0036CC  0012               	return		;funcret
  8598  0036CE                     __end_ofi2_GPIO_Pin_Toggle_Logic:
  8599                           	callstack 0
  8600                           
  8601 ;; *************** function i2_EUSART_Async_Read_Data *****************
  8602 ;; Defined at:
  8603 ;;		line 181 in file "MCAL/EUSART/mcal_EUSART.c"
  8604 ;; Parameters:    Size  Location     Type
  8605 ;;  _eusart_obj     2    5[COMRAM] PTR const struct .
  8606 ;;		 -> _uart_obj(12), 
  8607 ;;  data            2    7[COMRAM] PTR unsigned short 
  8608 ;;		 -> longtude(13), latitude(13), gpstemp(1), datarecive(1), 
  8609 ;; Auto vars:     Size  Location     Type
  8610 ;;  l_temp_data     2   18[COMRAM] unsigned short 
  8611 ;;  ret_val         1    0        unsigned char 
  8612 ;; Return value:  Size  Location     Type
  8613 ;;                  1    wreg      unsigned char 
  8614 ;; Registers used:
  8615 ;;		wreg, fsr2l, fsr2h, status,2, status,0, cstack
  8616 ;; Tracked objects:
  8617 ;;		On entry : 0/0
  8618 ;;		On exit  : 0/0
  8619 ;;		Unchanged: 0/0
  8620 ;; Data sizes:     COMRAM   BANK0   BANK1   BANK2   BANK3   BANK4   BANK5   BANK6   BANK7   BANK8   BANK9  BANK10  BANK1
      +1  BANK12  BANK13  BANK14  BANK15
  8621 ;;      Params:         4       0       0       0       0       0       0       0       0       0       0       0       
      +0       0       0       0       0
  8622 ;;      Locals:         9       0       0       0       0       0       0       0       0       0       0       0       
      +0       0       0       0       0
  8623 ;;      Temps:          2       0       0       0       0       0       0       0       0       0       0       0       
      +0       0       0       0       0
  8624 ;;      Totals:        15       0       0       0       0       0       0       0       0       0       0       0       
      +0       0       0       0       0
  8625 ;;Total ram usage:       15 bytes
  8626 ;; Hardware stack levels used:    1
  8627 ;; Hardware stack levels required when called:    1
  8628 ;; This function calls:
  8629 ;;		i2_calc_parity_even
  8630 ;;		i2_calc_parity_odd
  8631 ;; This function is called by:
  8632 ;;		_usart_isr
  8633 ;; This function uses a non-reentrant model
  8634 ;;
  8635                           
  8636                           	psect	text40
  8637  00230E                     __ptext40:
  8638                           	callstack 0
  8639  00230E                     i2_EUSART_Async_Read_Data:
  8640                           	callstack 18
  8641  00230E                     
  8642                           ;MCAL/EUSART/mcal_EUSART.c: 184:     uint16_t l_temp_data = 0;
  8643  00230E  0E00               	movlw	0
  8644  002310  6E14               	movwf	(i2EUSART_Async_Read_Data@l_temp_data+1)^0,c
  8645  002312  0E00               	movlw	0
  8646  002314  6E13               	movwf	i2EUSART_Async_Read_Data@l_temp_data^0,c
  8647  002316                     
  8648                           ;MCAL/EUSART/mcal_EUSART.c: 186:     if((((void*)0) == _eusart_obj) || (((void*)0) == da
      +                          ta))
  8649  002316  5006               	movf	i2EUSART_Async_Read_Data@_eusart_obj^0,w,c
  8650  002318  1007               	iorwf	(i2EUSART_Async_Read_Data@_eusart_obj+1)^0,w,c
  8651  00231A  B4D8               	btfsc	status,2,c
  8652  00231C  EF92  F011         	goto	i2u565_41
  8653  002320  EF94  F011         	goto	i2u565_40
  8654  002324                     i2u565_41:
  8655  002324  EF9D  F011         	goto	i2l5553
  8656  002328                     i2u565_40:
  8657  002328  5008               	movf	i2EUSART_Async_Read_Data@data^0,w,c
  8658  00232A  1009               	iorwf	(i2EUSART_Async_Read_Data@data+1)^0,w,c
  8659  00232C  A4D8               	btfss	status,2,c
  8660  00232E  EF9B  F011         	goto	i2u566_41
  8661  002332  EF9D  F011         	goto	i2u566_40
  8662  002336                     i2u566_41:
  8663  002336  EF9F  F011         	goto	i2l334
  8664  00233A                     i2u566_40:
  8665  00233A                     i2l5553:
  8666                           
  8667                           ;MCAL/EUSART/mcal_EUSART.c: 189:     }
  8668  00233A  EF7B  F012         	goto	i2l5603
  8669  00233E                     i2l334:
  8670                           
  8671                           ;MCAL/EUSART/mcal_EUSART.c: 191:     {;MCAL/EUSART/mcal_EUSART.c: 192:         if(1 == P
      +                          IR1bits.RCIF)
  8672  00233E  AA9E               	btfss	158,5,c	;volatile
  8673  002340  EFA4  F011         	goto	i2u567_41
  8674  002344  EFA6  F011         	goto	i2u567_40
  8675  002348                     i2u567_41:
  8676  002348  EF9D  F011         	goto	i2l5553
  8677  00234C                     i2u567_40:
  8678  00234C                     
  8679                           ;MCAL/EUSART/mcal_EUSART.c: 193:         {;MCAL/EUSART/mcal_EUSART.c: 194:             i
      +                          f(0 == _eusart_obj->rx_config.rx_9th_bit_en)
  8680  00234C  EE20 F009          	lfsr	2,9
  8681  002350  5006               	movf	i2EUSART_Async_Read_Data@_eusart_obj^0,w,c
  8682  002352  26D9               	addwf	fsr2l,f,c
  8683  002354  5007               	movf	(i2EUSART_Async_Read_Data@_eusart_obj+1)^0,w,c
  8684  002356  22DA               	addwfc	fsr2h,f,c
  8685  002358  B8DF               	btfsc	indf2,4,c
  8686  00235A  EFB1  F011         	goto	i2u568_41
  8687  00235E  EFB3  F011         	goto	i2u568_40
  8688  002362                     i2u568_41:
  8689  002362  EFC0  F011         	goto	i2l5559
  8690  002366                     i2u568_40:
  8691  002366                     
  8692                           ;MCAL/EUSART/mcal_EUSART.c: 195:             {;MCAL/EUSART/mcal_EUSART.c: 196:          
      +                                 *data = RCREG ;
  8693  002366  50AE               	movf	174,w,c	;volatile
  8694  002368  6E0A               	movwf	??i2_EUSART_Async_Read_Data^0,c
  8695  00236A  6A0B               	clrf	(??i2_EUSART_Async_Read_Data+1)^0,c
  8696  00236C  C008  FFD9         	movff	i2EUSART_Async_Read_Data@data,fsr2l
  8697  002370  C009  FFDA         	movff	i2EUSART_Async_Read_Data@data+1,fsr2h
  8698  002374  C00A  FFDE         	movff	??i2_EUSART_Async_Read_Data,postinc2
  8699  002378  C00B  FFDD         	movff	??i2_EUSART_Async_Read_Data+1,postdec2
  8700                           
  8701                           ;MCAL/EUSART/mcal_EUSART.c: 197:             }
  8702  00237C  EF7B  F012         	goto	i2l5603
  8703  002380                     i2l5559:
  8704  002380  EE20 F009          	lfsr	2,9
  8705  002384  5006               	movf	i2EUSART_Async_Read_Data@_eusart_obj^0,w,c
  8706  002386  26D9               	addwf	fsr2l,f,c
  8707  002388  5007               	movf	(i2EUSART_Async_Read_Data@_eusart_obj+1)^0,w,c
  8708  00238A  22DA               	addwfc	fsr2h,f,c
  8709  00238C  A8DF               	btfss	indf2,4,c
  8710  00238E  EFCB  F011         	goto	i2u569_41
  8711  002392  EFCD  F011         	goto	i2u569_40
  8712  002396                     i2u569_41:
  8713  002396  EF7B  F012         	goto	i2l347
  8714  00239A                     i2u569_40:
  8715  00239A                     
  8716                           ;MCAL/EUSART/mcal_EUSART.c: 199:             {;MCAL/EUSART/mcal_EUSART.c: 201:          
      +                                 if(0 == _eusart_obj->rx_config.uart_rx_9th_bit_role)
  8717  00239A  EE20 F009          	lfsr	2,9
  8718  00239E  5006               	movf	i2EUSART_Async_Read_Data@_eusart_obj^0,w,c
  8719  0023A0  26D9               	addwf	fsr2l,f,c
  8720  0023A2  5007               	movf	(i2EUSART_Async_Read_Data@_eusart_obj+1)^0,w,c
  8721  0023A4  22DA               	addwfc	fsr2h,f,c
  8722  0023A6  30DF               	rrcf	indf2,w,c
  8723  0023A8  0B03               	andlw	3
  8724  0023AA  0900               	iorlw	0
  8725  0023AC  A4D8               	btfss	status,2,c
  8726  0023AE  EFDB  F011         	goto	i2u570_41
  8727  0023B2  EFDD  F011         	goto	i2u570_40
  8728  0023B6                     i2u570_41:
  8729  0023B6  EFFF  F011         	goto	i2l5573
  8730  0023BA                     i2u570_40:
  8731  0023BA                     
  8732                           ;MCAL/EUSART/mcal_EUSART.c: 202:                 {;MCAL/EUSART/mcal_EUSART.c: 204:      
      +                                     l_temp_data = RCREG ;
  8733  0023BA  CFAE F013          	movff	4014,i2EUSART_Async_Read_Data@l_temp_data	;volatile
  8734  0023BE  6A14               	clrf	(i2EUSART_Async_Read_Data@l_temp_data+1)^0,c
  8735                           
  8736                           ;MCAL/EUSART/mcal_EUSART.c: 205:                 l_temp_data += ((RX9D == GPIO_HIGH) ? (
      +                          0x0001 << 8) : 0x0000) ;
  8737  0023C0  B0AB               	btfsc	4011,0,c	;volatile
  8738  0023C2  EFE5  F011         	goto	i2u571_41
  8739  0023C6  EFE7  F011         	goto	i2u571_40
  8740  0023CA                     i2u571_41:
  8741  0023CA  EFED  F011         	goto	i2l5567
  8742  0023CE                     i2u571_40:
  8743  0023CE  0E00               	movlw	0
  8744  0023D0  6E0E               	movwf	(i2_EUSART_Async_Read_Data$1243+1)^0,c
  8745  0023D2  0E00               	movlw	0
  8746  0023D4  6E0D               	movwf	i2_EUSART_Async_Read_Data$1243^0,c
  8747  0023D6  EFF1  F011         	goto	i2l5569
  8748  0023DA                     i2l5567:
  8749  0023DA  0E01               	movlw	1
  8750  0023DC  6E0E               	movwf	(i2_EUSART_Async_Read_Data$1243+1)^0,c
  8751  0023DE  0E00               	movlw	0
  8752  0023E0  6E0D               	movwf	i2_EUSART_Async_Read_Data$1243^0,c
  8753  0023E2                     i2l5569:
  8754  0023E2  500D               	movf	i2_EUSART_Async_Read_Data$1243^0,w,c
  8755  0023E4  2613               	addwf	i2EUSART_Async_Read_Data@l_temp_data^0,f,c
  8756  0023E6  500E               	movf	(i2_EUSART_Async_Read_Data$1243+1)^0,w,c
  8757  0023E8  2214               	addwfc	(i2EUSART_Async_Read_Data@l_temp_data+1)^0,f,c
  8758  0023EA                     
  8759                           ;MCAL/EUSART/mcal_EUSART.c: 207:                 *data = l_temp_data ;
  8760  0023EA  C008  FFD9         	movff	i2EUSART_Async_Read_Data@data,fsr2l
  8761  0023EE  C009  FFDA         	movff	i2EUSART_Async_Read_Data@data+1,fsr2h
  8762  0023F2  C013  FFDE         	movff	i2EUSART_Async_Read_Data@l_temp_data,postinc2
  8763  0023F6  C014  FFDD         	movff	i2EUSART_Async_Read_Data@l_temp_data+1,postdec2
  8764                           
  8765                           ;MCAL/EUSART/mcal_EUSART.c: 209:                 }
  8766  0023FA  EF7B  F012         	goto	i2l5603
  8767  0023FE                     i2l5573:
  8768  0023FE  EE20 F009          	lfsr	2,9
  8769  002402  5006               	movf	i2EUSART_Async_Read_Data@_eusart_obj^0,w,c
  8770  002404  26D9               	addwf	fsr2l,f,c
  8771  002406  5007               	movf	(i2EUSART_Async_Read_Data@_eusart_obj+1)^0,w,c
  8772  002408  22DA               	addwfc	fsr2h,f,c
  8773  00240A  30DF               	rrcf	indf2,w,c
  8774  00240C  0B03               	andlw	3
  8775  00240E  06E8               	decf	wreg,f,c
  8776  002410  A4D8               	btfss	status,2,c
  8777  002412  EF0D  F012         	goto	i2u572_41
  8778  002416  EF0F  F012         	goto	i2u572_40
  8779  00241A                     i2u572_41:
  8780  00241A  EF44  F012         	goto	i2l5587
  8781  00241E                     i2u572_40:
  8782  00241E                     
  8783                           ;MCAL/EUSART/mcal_EUSART.c: 211:                 {;MCAL/EUSART/mcal_EUSART.c: 214:      
      +                                         l_temp_data = RCREG ;
  8784  00241E  CFAE F013          	movff	4014,i2EUSART_Async_Read_Data@l_temp_data	;volatile
  8785  002422  6A14               	clrf	(i2EUSART_Async_Read_Data@l_temp_data+1)^0,c
  8786                           
  8787                           ;MCAL/EUSART/mcal_EUSART.c: 216:                     l_temp_data += ((RCSTAbits.RX9D == 
      +                          GPIO_HIGH) ? (0x0001 << 8) : 0x0000) ;
  8788  002424  B0AB               	btfsc	171,0,c	;volatile
  8789  002426  EF17  F012         	goto	i2u573_41
  8790  00242A  EF19  F012         	goto	i2u573_40
  8791  00242E                     i2u573_41:
  8792  00242E  EF1F  F012         	goto	i2l5579
  8793  002432                     i2u573_40:
  8794  002432  0E00               	movlw	0
  8795  002434  6E10               	movwf	(i2_EUSART_Async_Read_Data$1244+1)^0,c
  8796  002436  0E00               	movlw	0
  8797  002438  6E0F               	movwf	i2_EUSART_Async_Read_Data$1244^0,c
  8798  00243A  EF23  F012         	goto	i2l5581
  8799  00243E                     i2l5579:
  8800  00243E  0E01               	movlw	1
  8801  002440  6E10               	movwf	(i2_EUSART_Async_Read_Data$1244+1)^0,c
  8802  002442  0E00               	movlw	0
  8803  002444  6E0F               	movwf	i2_EUSART_Async_Read_Data$1244^0,c
  8804  002446                     i2l5581:
  8805  002446  500F               	movf	i2_EUSART_Async_Read_Data$1244^0,w,c
  8806  002448  2613               	addwf	i2EUSART_Async_Read_Data@l_temp_data^0,f,c
  8807  00244A  5010               	movf	(i2_EUSART_Async_Read_Data$1244+1)^0,w,c
  8808  00244C  2214               	addwfc	(i2EUSART_Async_Read_Data@l_temp_data+1)^0,f,c
  8809  00244E                     
  8810                           ;MCAL/EUSART/mcal_EUSART.c: 219:                     if( calc_parity_even( (uint8_t) l_t
      +                          emp_data) == (l_temp_data >> 8))
  8811  00244E  5013               	movf	i2EUSART_Async_Read_Data@l_temp_data^0,w,c
  8812  002450  EC40  F01C         	call	i2_calc_parity_even
  8813  002454  6E0A               	movwf	??i2_EUSART_Async_Read_Data^0,c
  8814  002456  5014               	movf	(i2EUSART_Async_Read_Data@l_temp_data+1)^0,w,c
  8815  002458  180A               	xorwf	??i2_EUSART_Async_Read_Data^0,w,c
  8816  00245A  A4D8               	btfss	status,2,c
  8817  00245C  EF32  F012         	goto	i2u574_41
  8818  002460  EF34  F012         	goto	i2u574_40
  8819  002464                     i2u574_41:
  8820  002464  EF7B  F012         	goto	i2l347
  8821  002468                     i2u574_40:
  8822  002468                     i2l5585:
  8823                           
  8824                           ;MCAL/EUSART/mcal_EUSART.c: 220:                     {;MCAL/EUSART/mcal_EUSART.c: 222:  
      +                                                 *data = (l_temp_data & 0x00FF) ;
  8825  002468  0EFF               	movlw	255
  8826  00246A  1413               	andwf	i2EUSART_Async_Read_Data@l_temp_data^0,w,c
  8827  00246C  6E0A               	movwf	??i2_EUSART_Async_Read_Data^0,c
  8828  00246E  0E00               	movlw	0
  8829  002470  1414               	andwf	(i2EUSART_Async_Read_Data@l_temp_data+1)^0,w,c
  8830  002472  6E0B               	movwf	(??i2_EUSART_Async_Read_Data+1)^0,c
  8831  002474  C008  FFD9         	movff	i2EUSART_Async_Read_Data@data,fsr2l
  8832  002478  C009  FFDA         	movff	i2EUSART_Async_Read_Data@data+1,fsr2h
  8833  00247C  C00A  FFDE         	movff	??i2_EUSART_Async_Read_Data,postinc2
  8834  002480  C00B  FFDD         	movff	??i2_EUSART_Async_Read_Data+1,postdec2
  8835                           
  8836                           ;MCAL/EUSART/mcal_EUSART.c: 224:                     }
  8837  002484  EF7B  F012         	goto	i2l5603
  8838  002488                     i2l5587:
  8839  002488  EE20 F009          	lfsr	2,9
  8840  00248C  5006               	movf	i2EUSART_Async_Read_Data@_eusart_obj^0,w,c
  8841  00248E  26D9               	addwf	fsr2l,f,c
  8842  002490  5007               	movf	(i2EUSART_Async_Read_Data@_eusart_obj+1)^0,w,c
  8843  002492  22DA               	addwfc	fsr2h,f,c
  8844  002494  30DF               	rrcf	indf2,w,c
  8845  002496  0B03               	andlw	3
  8846  002498  0A02               	xorlw	2
  8847  00249A  A4D8               	btfss	status,2,c
  8848  00249C  EF52  F012         	goto	i2u575_41
  8849  0024A0  EF54  F012         	goto	i2u575_40
  8850  0024A4                     i2u575_41:
  8851  0024A4  EF7B  F012         	goto	i2l347
  8852  0024A8                     i2u575_40:
  8853  0024A8                     
  8854                           ;MCAL/EUSART/mcal_EUSART.c: 235:                 {;MCAL/EUSART/mcal_EUSART.c: 238:      
      +                                         l_temp_data = RCREG ;
  8855  0024A8  CFAE F013          	movff	4014,i2EUSART_Async_Read_Data@l_temp_data	;volatile
  8856  0024AC  6A14               	clrf	(i2EUSART_Async_Read_Data@l_temp_data+1)^0,c
  8857                           
  8858                           ;MCAL/EUSART/mcal_EUSART.c: 240:                     l_temp_data += ((RCSTAbits.RX9D == 
      +                          GPIO_HIGH) ? (0x0001 << 8) : 0x0000) ;
  8859  0024AE  B0AB               	btfsc	171,0,c	;volatile
  8860  0024B0  EF5C  F012         	goto	i2u576_41
  8861  0024B4  EF5E  F012         	goto	i2u576_40
  8862  0024B8                     i2u576_41:
  8863  0024B8  EF64  F012         	goto	i2l5593
  8864  0024BC                     i2u576_40:
  8865  0024BC  0E00               	movlw	0
  8866  0024BE  6E12               	movwf	(i2_EUSART_Async_Read_Data$1245+1)^0,c
  8867  0024C0  0E00               	movlw	0
  8868  0024C2  6E11               	movwf	i2_EUSART_Async_Read_Data$1245^0,c
  8869  0024C4  EF68  F012         	goto	i2l5595
  8870  0024C8                     i2l5593:
  8871  0024C8  0E01               	movlw	1
  8872  0024CA  6E12               	movwf	(i2_EUSART_Async_Read_Data$1245+1)^0,c
  8873  0024CC  0E00               	movlw	0
  8874  0024CE  6E11               	movwf	i2_EUSART_Async_Read_Data$1245^0,c
  8875  0024D0                     i2l5595:
  8876  0024D0  5011               	movf	i2_EUSART_Async_Read_Data$1245^0,w,c
  8877  0024D2  2613               	addwf	i2EUSART_Async_Read_Data@l_temp_data^0,f,c
  8878  0024D4  5012               	movf	(i2_EUSART_Async_Read_Data$1245+1)^0,w,c
  8879  0024D6  2214               	addwfc	(i2EUSART_Async_Read_Data@l_temp_data+1)^0,f,c
  8880  0024D8                     
  8881                           ;MCAL/EUSART/mcal_EUSART.c: 245:                     if( calc_parity_odd( (uint8_t) l_te
      +                          mp_data) == (l_temp_data >> 8) )
  8882  0024D8  5013               	movf	i2EUSART_Async_Read_Data@l_temp_data^0,w,c
  8883  0024DA  EC0C  F01C         	call	i2_calc_parity_odd
  8884  0024DE  6E0A               	movwf	??i2_EUSART_Async_Read_Data^0,c
  8885  0024E0  5014               	movf	(i2EUSART_Async_Read_Data@l_temp_data+1)^0,w,c
  8886  0024E2  180A               	xorwf	??i2_EUSART_Async_Read_Data^0,w,c
  8887  0024E4  A4D8               	btfss	status,2,c
  8888  0024E6  EF77  F012         	goto	i2u577_41
  8889  0024EA  EF79  F012         	goto	i2u577_40
  8890  0024EE                     i2u577_41:
  8891  0024EE  EF7B  F012         	goto	i2l347
  8892  0024F2                     i2u577_40:
  8893  0024F2  EF34  F012         	goto	i2l5585
  8894  0024F6                     i2l347:
  8895  0024F6                     i2l5603:
  8896                           
  8897                           ;MCAL/EUSART/mcal_EUSART.c: 270:     if ((1==RCSTA1bits.OERR)||(1==RCSTA1bits.FERR))
  8898  0024F6  B2AB               	btfsc	171,1,c	;volatile
  8899  0024F8  EF80  F012         	goto	i2u578_41
  8900  0024FC  EF82  F012         	goto	i2u578_40
  8901  002500                     i2u578_41:
  8902  002500  EF89  F012         	goto	i2l368
  8903  002504                     i2u578_40:
  8904  002504  A4AB               	btfss	171,2,c	;volatile
  8905  002506  EF87  F012         	goto	i2u579_41
  8906  00250A  EF89  F012         	goto	i2u579_40
  8907  00250E                     i2u579_41:
  8908  00250E  EF8B  F012         	goto	i2l369
  8909  002512                     i2u579_40:
  8910  002512                     i2l368:
  8911                           
  8912                           ;MCAL/EUSART/mcal_EUSART.c: 271:     {;MCAL/EUSART/mcal_EUSART.c: 273:         RCSTA1bit
      +                          s.CREN=0;
  8913  002512  98AB               	bcf	171,4,c	;volatile
  8914                           
  8915                           ;MCAL/EUSART/mcal_EUSART.c: 274:         RCSTA1bits.CREN=1;
  8916  002514  88AB               	bsf	171,4,c	;volatile
  8917  002516                     i2l369:
  8918  002516  0012               	return		;funcret
  8919  002518                     __end_ofi2_EUSART_Async_Read_Data:
  8920                           	callstack 0
  8921                           
  8922 ;; *************** function _lcd_4bit_send_char_data_pos *****************
  8923 ;; Defined at:
  8924 ;;		line 117 in file "ECU/LCD_for_test_gps/ecu_char_lcd.c"
  8925 ;; Parameters:    Size  Location     Type
  8926 ;;  lcd             2   25[COMRAM] PTR const struct .
  8927 ;;		 -> lcd1(6), 
  8928 ;;  row             1   27[COMRAM] unsigned char 
  8929 ;;  colum           1   28[COMRAM] unsigned char 
  8930 ;;  data            1   29[COMRAM] unsigned char 
  8931 ;; Auto vars:     Size  Location     Type
  8932 ;;  ERRORSTATUS     1    0        unsigned char 
  8933 ;; Return value:  Size  Location     Type
  8934 ;;                  1    wreg      unsigned char 
  8935 ;; Registers used:
  8936 ;;		wreg, fsr2l, fsr2h, status,2, status,0, prodl, prodh, cstack
  8937 ;; Tracked objects:
  8938 ;;		On entry : 0/0
  8939 ;;		On exit  : 0/0
  8940 ;;		Unchanged: 0/0
  8941 ;; Data sizes:     COMRAM   BANK0   BANK1   BANK2   BANK3   BANK4   BANK5   BANK6   BANK7   BANK8   BANK9  BANK10  BANK1
      +1  BANK12  BANK13  BANK14  BANK15
  8942 ;;      Params:         5       0       0       0       0       0       0       0       0       0       0       0       
      +0       0       0       0       0
  8943 ;;      Locals:         1       0       0       0       0       0       0       0       0       0       0       0       
      +0       0       0       0       0
  8944 ;;      Temps:          0       0       0       0       0       0       0       0       0       0       0       0       
      +0       0       0       0       0
  8945 ;;      Totals:         6       0       0       0       0       0       0       0       0       0       0       0       
      +0       0       0       0       0
  8946 ;;Total ram usage:        6 bytes
  8947 ;; Hardware stack levels used:    1
  8948 ;; Hardware stack levels required when called:    4
  8949 ;; This function calls:
  8950 ;;		i2_lcd_4bit_send_char_data
  8951 ;;		i2_lcd_4bits_set_courser
  8952 ;; This function is called by:
  8953 ;;		_usart_isr
  8954 ;;		_lcd_4bit_send_custom_char
  8955 ;; This function uses a non-reentrant model
  8956 ;;
  8957                           
  8958                           	psect	text41
  8959  003C50                     __ptext41:
  8960                           	callstack 0
  8961  003C50                     _lcd_4bit_send_char_data_pos:
  8962                           	callstack 15
  8963  003C50                     
  8964                           ;ECU/LCD_for_test_gps/ecu_char_lcd.c: 120:     if ( ((void*)0)==lcd)
  8965  003C50  501A               	movf	lcd_4bit_send_char_data_pos@lcd^0,w,c
  8966  003C52  101B               	iorwf	(lcd_4bit_send_char_data_pos@lcd+1)^0,w,c
  8967  003C54  A4D8               	btfss	status,2,c
  8968  003C56  EF2F  F01E         	goto	i2u552_41
  8969  003C5A  EF31  F01E         	goto	i2u552_40
  8970  003C5E                     i2u552_41:
  8971  003C5E  EF33  F01E         	goto	i2l5423
  8972  003C62                     i2u552_40:
  8973  003C62                     
  8974                           ;ECU/LCD_for_test_gps/ecu_char_lcd.c: 123:     }
  8975  003C62  EF45  F01E         	goto	i2l92
  8976  003C66                     i2l5423:
  8977                           
  8978                           ;ECU/LCD_for_test_gps/ecu_char_lcd.c: 125:     {;ECU/LCD_for_test_gps/ecu_char_lcd.c: 12
      +                          6:        lcd_4bits_set_courser(lcd,row,colum);
  8979  003C66  C01A  F013         	movff	lcd_4bit_send_char_data_pos@lcd,i2lcd_4bits_set_courser@lcd
  8980  003C6A  C01B  F014         	movff	lcd_4bit_send_char_data_pos@lcd+1,i2lcd_4bits_set_courser@lcd+1
  8981  003C6E  C01C  F015         	movff	lcd_4bit_send_char_data_pos@row,i2lcd_4bits_set_courser@row
  8982  003C72  C01D  F016         	movff	lcd_4bit_send_char_data_pos@colum,i2lcd_4bits_set_courser@colum
  8983  003C76  ECF7  F018         	call	i2_lcd_4bits_set_courser	;wreg free
  8984                           
  8985                           ;ECU/LCD_for_test_gps/ecu_char_lcd.c: 127:        lcd_4bit_send_char_data(lcd,data);
  8986  003C7A  C01A  F00F         	movff	lcd_4bit_send_char_data_pos@lcd,i2lcd_4bit_send_char_data@lcd
  8987  003C7E  C01B  F010         	movff	lcd_4bit_send_char_data_pos@lcd+1,i2lcd_4bit_send_char_data@lcd+1
  8988  003C82  C01E  F011         	movff	lcd_4bit_send_char_data_pos@data,i2lcd_4bit_send_char_data@data
  8989  003C86  EC3C  F01D         	call	i2_lcd_4bit_send_char_data	;wreg free
  8990  003C8A                     i2l92:
  8991  003C8A  0012               	return		;funcret
  8992  003C8C                     __end_of_lcd_4bit_send_char_data_pos:
  8993                           	callstack 0
  8994                           
  8995 ;; *************** function i2_lcd_4bits_set_courser *****************
  8996 ;; Defined at:
  8997 ;;		line 567 in file "ECU/LCD_for_test_gps/ecu_char_lcd.c"
  8998 ;; Parameters:    Size  Location     Type
  8999 ;;  lcd             2   18[COMRAM] PTR const struct .
  9000 ;;		 -> lcd1(6), 
  9001 ;;  row             1   20[COMRAM] unsigned char 
  9002 ;;  colum           1   21[COMRAM] unsigned char 
  9003 ;; Auto vars:     Size  Location     Type
  9004 ;;  ERRORSTATUS     1    0        unsigned char 
  9005 ;; Return value:  Size  Location     Type
  9006 ;;                  1    wreg      unsigned char 
  9007 ;; Registers used:
  9008 ;;		wreg, fsr2l, fsr2h, status,2, status,0, prodl, prodh, cstack
  9009 ;; Tracked objects:
  9010 ;;		On entry : 0/0
  9011 ;;		On exit  : 0/0
  9012 ;;		Unchanged: 0/0
  9013 ;; Data sizes:     COMRAM   BANK0   BANK1   BANK2   BANK3   BANK4   BANK5   BANK6   BANK7   BANK8   BANK9  BANK10  BANK1
      +1  BANK12  BANK13  BANK14  BANK15
  9014 ;;      Params:         4       0       0       0       0       0       0       0       0       0       0       0       
      +0       0       0       0       0
  9015 ;;      Locals:         1       0       0       0       0       0       0       0       0       0       0       0       
      +0       0       0       0       0
  9016 ;;      Temps:          2       0       0       0       0       0       0       0       0       0       0       0       
      +0       0       0       0       0
  9017 ;;      Totals:         7       0       0       0       0       0       0       0       0       0       0       0       
      +0       0       0       0       0
  9018 ;;Total ram usage:        7 bytes
  9019 ;; Hardware stack levels used:    1
  9020 ;; Hardware stack levels required when called:    3
  9021 ;; This function calls:
  9022 ;;		i2_lcd_4bit_send_command
  9023 ;; This function is called by:
  9024 ;;		_lcd_4bit_send_char_data_pos
  9025 ;; This function uses a non-reentrant model
  9026 ;;
  9027                           
  9028                           	psect	text42
  9029  0031EE                     __ptext42:
  9030                           	callstack 0
  9031  0031EE                     i2_lcd_4bits_set_courser:
  9032                           	callstack 15
  9033  0031EE                     
  9034                           ;ECU/LCD_for_test_gps/ecu_char_lcd.c: 570:         if ( ((void*)0)==lcd)
  9035  0031EE  5013               	movf	i2lcd_4bits_set_courser@lcd^0,w,c
  9036  0031F0  1014               	iorwf	(i2lcd_4bits_set_courser@lcd+1)^0,w,c
  9037  0031F2  A4D8               	btfss	status,2,c
  9038  0031F4  EFFE  F018         	goto	i2u533_41
  9039  0031F8  EF00  F019         	goto	i2u533_40
  9040  0031FC                     i2u533_41:
  9041  0031FC  EF02  F019         	goto	i2l5307
  9042  003200                     i2u533_40:
  9043  003200                     
  9044                           ;ECU/LCD_for_test_gps/ecu_char_lcd.c: 573:     }
  9045  003200  EF4E  F019         	goto	i2l228
  9046  003204                     i2l5307:
  9047                           
  9048                           ;ECU/LCD_for_test_gps/ecu_char_lcd.c: 575:     {;ECU/LCD_for_test_gps/ecu_char_lcd.c: 57
      +                          6:             colum--;
  9049  003204  0616               	decf	i2lcd_4bits_set_courser@colum^0,f,c
  9050                           
  9051                           ;ECU/LCD_for_test_gps/ecu_char_lcd.c: 577:             switch (row)
  9052  003206  EF31  F019         	goto	i2l5319
  9053  00320A                     i2l5309:
  9054  00320A  C013  F00F         	movff	i2lcd_4bits_set_courser@lcd,i2lcd_4bit_send_command@lcd
  9055  00320E  C014  F010         	movff	i2lcd_4bits_set_courser@lcd+1,i2lcd_4bit_send_command@lcd+1
  9056  003212  5016               	movf	i2lcd_4bits_set_courser@colum^0,w,c
  9057  003214  0F80               	addlw	128
  9058  003216  6E11               	movwf	i2lcd_4bit_send_command@command^0,c
  9059  003218  EC0B  F01D         	call	i2_lcd_4bit_send_command	;wreg free
  9060  00321C  EF4E  F019         	goto	i2l228
  9061  003220                     i2l5311:
  9062  003220  C013  F00F         	movff	i2lcd_4bits_set_courser@lcd,i2lcd_4bit_send_command@lcd
  9063  003224  C014  F010         	movff	i2lcd_4bits_set_courser@lcd+1,i2lcd_4bit_send_command@lcd+1
  9064  003228  5016               	movf	i2lcd_4bits_set_courser@colum^0,w,c
  9065  00322A  0FC0               	addlw	192
  9066  00322C  6E11               	movwf	i2lcd_4bit_send_command@command^0,c
  9067  00322E  EC0B  F01D         	call	i2_lcd_4bit_send_command	;wreg free
  9068  003232  EF4E  F019         	goto	i2l228
  9069  003236                     i2l5313:
  9070  003236  C013  F00F         	movff	i2lcd_4bits_set_courser@lcd,i2lcd_4bit_send_command@lcd
  9071  00323A  C014  F010         	movff	i2lcd_4bits_set_courser@lcd+1,i2lcd_4bit_send_command@lcd+1
  9072  00323E  5016               	movf	i2lcd_4bits_set_courser@colum^0,w,c
  9073  003240  0F94               	addlw	148
  9074  003242  6E11               	movwf	i2lcd_4bit_send_command@command^0,c
  9075  003244  EC0B  F01D         	call	i2_lcd_4bit_send_command	;wreg free
  9076  003248  EF4E  F019         	goto	i2l228
  9077  00324C                     i2l5315:
  9078  00324C  C013  F00F         	movff	i2lcd_4bits_set_courser@lcd,i2lcd_4bit_send_command@lcd
  9079  003250  C014  F010         	movff	i2lcd_4bits_set_courser@lcd+1,i2lcd_4bit_send_command@lcd+1
  9080  003254  5016               	movf	i2lcd_4bits_set_courser@colum^0,w,c
  9081  003256  0FD4               	addlw	212
  9082  003258  6E11               	movwf	i2lcd_4bit_send_command@command^0,c
  9083  00325A  EC0B  F01D         	call	i2_lcd_4bit_send_command	;wreg free
  9084  00325E  EF4E  F019         	goto	i2l228
  9085  003262                     i2l5319:
  9086  003262  5015               	movf	i2lcd_4bits_set_courser@row^0,w,c
  9087  003264  6E17               	movwf	??i2_lcd_4bits_set_courser^0,c
  9088  003266  6A18               	clrf	(??i2_lcd_4bits_set_courser+1)^0,c
  9089                           
  9090                           ; Switch on 2 bytes has been partitioned into a top level switch of size 1, and 1 sub-sw
      +                          itches
  9091                           ; Switch size 1, requested type "simple"
  9092                           ; Number of cases is 1, Range of values is 0 to 0
  9093                           ; switch strategies available:
  9094                           ; Name         Instructions Cycles
  9095                           ; simple_byte            4     3 (average)
  9096                           ;	Chosen strategy is simple_byte
  9097  003268  5018               	movf	(??i2_lcd_4bits_set_courser+1)^0,w,c
  9098  00326A  0A00               	xorlw	0	; case 0
  9099  00326C  B4D8               	btfsc	status,2,c
  9100  00326E  EF3B  F019         	goto	i2l8207
  9101  003272  EF4E  F019         	goto	i2l228
  9102  003276                     i2l8207:
  9103                           
  9104                           ; Switch size 1, requested type "simple"
  9105                           ; Number of cases is 4, Range of values is 1 to 4
  9106                           ; switch strategies available:
  9107                           ; Name         Instructions Cycles
  9108                           ; simple_byte           13     7 (average)
  9109                           ;	Chosen strategy is simple_byte
  9110  003276  5017               	movf	??i2_lcd_4bits_set_courser^0,w,c
  9111  003278  0A01               	xorlw	1	; case 1
  9112  00327A  B4D8               	btfsc	status,2,c
  9113  00327C  EF05  F019         	goto	i2l5309
  9114  003280  0A03               	xorlw	3	; case 2
  9115  003282  B4D8               	btfsc	status,2,c
  9116  003284  EF10  F019         	goto	i2l5311
  9117  003288  0A01               	xorlw	1	; case 3
  9118  00328A  B4D8               	btfsc	status,2,c
  9119  00328C  EF1B  F019         	goto	i2l5313
  9120  003290  0A07               	xorlw	7	; case 4
  9121  003292  B4D8               	btfsc	status,2,c
  9122  003294  EF26  F019         	goto	i2l5315
  9123  003298  EF4E  F019         	goto	i2l228
  9124  00329C                     i2l228:
  9125  00329C  0012               	return		;funcret
  9126  00329E                     __end_ofi2_lcd_4bits_set_courser:
  9127                           	callstack 0
  9128                           
  9129 ;; *************** function i2_lcd_4bit_send_command *****************
  9130 ;; Defined at:
  9131 ;;		line 65 in file "ECU/LCD_for_test_gps/ecu_char_lcd.c"
  9132 ;; Parameters:    Size  Location     Type
  9133 ;;  lcd             2   14[COMRAM] PTR const struct .
  9134 ;;		 -> lcd1(6), 
  9135 ;;  command         1   16[COMRAM] unsigned char 
  9136 ;; Auto vars:     Size  Location     Type
  9137 ;;  ERRORSTATUS     1    0        unsigned char 
  9138 ;; Return value:  Size  Location     Type
  9139 ;;                  1    wreg      unsigned char 
  9140 ;; Registers used:
  9141 ;;		wreg, fsr2l, fsr2h, status,2, status,0, prodl, prodh, cstack
  9142 ;; Tracked objects:
  9143 ;;		On entry : 0/0
  9144 ;;		On exit  : 0/0
  9145 ;;		Unchanged: 0/0
  9146 ;; Data sizes:     COMRAM   BANK0   BANK1   BANK2   BANK3   BANK4   BANK5   BANK6   BANK7   BANK8   BANK9  BANK10  BANK1
      +1  BANK12  BANK13  BANK14  BANK15
  9147 ;;      Params:         3       0       0       0       0       0       0       0       0       0       0       0       
      +0       0       0       0       0
  9148 ;;      Locals:         1       0       0       0       0       0       0       0       0       0       0       0       
      +0       0       0       0       0
  9149 ;;      Temps:          0       0       0       0       0       0       0       0       0       0       0       0       
      +0       0       0       0       0
  9150 ;;      Totals:         4       0       0       0       0       0       0       0       0       0       0       0       
      +0       0       0       0       0
  9151 ;;Total ram usage:        4 bytes
  9152 ;; Hardware stack levels used:    1
  9153 ;; Hardware stack levels required when called:    2
  9154 ;; This function calls:
  9155 ;;		i2_GPIO_Pin_Write_Logic
  9156 ;;		i2_lcd_4bits_send_enable_signal
  9157 ;;		i2_lcd_send_4bits
  9158 ;; This function is called by:
  9159 ;;		i2_lcd_4bits_set_courser
  9160 ;; This function uses a non-reentrant model
  9161 ;;
  9162                           
  9163                           	psect	text43
  9164  003A16                     __ptext43:
  9165                           	callstack 0
  9166  003A16                     i2_lcd_4bit_send_command:
  9167                           	callstack 15
  9168  003A16                     
  9169                           ;ECU/LCD_for_test_gps/ecu_char_lcd.c: 68:     if ( ((void*)0)==lcd)
  9170  003A16  500F               	movf	i2lcd_4bit_send_command@lcd^0,w,c
  9171  003A18  1010               	iorwf	(i2lcd_4bit_send_command@lcd+1)^0,w,c
  9172  003A1A  A4D8               	btfss	status,2,c
  9173  003A1C  EF12  F01D         	goto	i2u418_41
  9174  003A20  EF14  F01D         	goto	i2u418_40
  9175  003A24                     i2u418_41:
  9176  003A24  EF16  F01D         	goto	i2l4675
  9177  003A28                     i2u418_40:
  9178  003A28                     
  9179                           ;ECU/LCD_for_test_gps/ecu_char_lcd.c: 71:     }
  9180  003A28  EF3B  F01D         	goto	i2l82
  9181  003A2C                     i2l4675:
  9182  003A2C  C00F  F001         	movff	i2lcd_4bit_send_command@lcd,i2GPIO_Pin_Write_Logic@_pin_config
  9183  003A30  C010  F002         	movff	i2lcd_4bit_send_command@lcd+1,i2GPIO_Pin_Write_Logic@_pin_config+1
  9184  003A34  0E00               	movlw	0
  9185  003A36  6E03               	movwf	i2GPIO_Pin_Write_Logic@logic^0,c
  9186  003A38  EC30  F016         	call	i2_GPIO_Pin_Write_Logic	;wreg free
  9187                           
  9188                           ;ECU/LCD_for_test_gps/ecu_char_lcd.c: 75:     lcd_send_4bits(lcd,(command>>4));
  9189  003A3C  C00F  F00B         	movff	i2lcd_4bit_send_command@lcd,i2lcd_send_4bits@lcd
  9190  003A40  C010  F00C         	movff	i2lcd_4bit_send_command@lcd+1,i2lcd_send_4bits@lcd+1
  9191  003A44  3811               	swapf	i2lcd_4bit_send_command@command^0,w,c
  9192  003A46  0B0F               	andlw	15
  9193  003A48  6E0D               	movwf	i2lcd_send_4bits@data_command^0,c
  9194  003A4A  EC80  F01A         	call	i2_lcd_send_4bits	;wreg free
  9195                           
  9196                           ;ECU/LCD_for_test_gps/ecu_char_lcd.c: 76:     lcd_4bits_send_enable_signal(lcd);
  9197  003A4E  C00F  F00B         	movff	i2lcd_4bit_send_command@lcd,i2lcd_4bits_send_enable_signal@lcd
  9198  003A52  C010  F00C         	movff	i2lcd_4bit_send_command@lcd+1,i2lcd_4bits_send_enable_signal@lcd+1
  9199  003A56  EC04  F01E         	call	i2_lcd_4bits_send_enable_signal	;wreg free
  9200                           
  9201                           ;ECU/LCD_for_test_gps/ecu_char_lcd.c: 77:     lcd_send_4bits(lcd,command);
  9202  003A5A  C00F  F00B         	movff	i2lcd_4bit_send_command@lcd,i2lcd_send_4bits@lcd
  9203  003A5E  C010  F00C         	movff	i2lcd_4bit_send_command@lcd+1,i2lcd_send_4bits@lcd+1
  9204  003A62  C011  F00D         	movff	i2lcd_4bit_send_command@command,i2lcd_send_4bits@data_command
  9205  003A66  EC80  F01A         	call	i2_lcd_send_4bits	;wreg free
  9206                           
  9207                           ;ECU/LCD_for_test_gps/ecu_char_lcd.c: 78:     lcd_4bits_send_enable_signal(lcd);
  9208  003A6A  C00F  F00B         	movff	i2lcd_4bit_send_command@lcd,i2lcd_4bits_send_enable_signal@lcd
  9209  003A6E  C010  F00C         	movff	i2lcd_4bit_send_command@lcd+1,i2lcd_4bits_send_enable_signal@lcd+1
  9210  003A72  EC04  F01E         	call	i2_lcd_4bits_send_enable_signal	;wreg free
  9211  003A76                     i2l82:
  9212  003A76  0012               	return		;funcret
  9213  003A78                     __end_ofi2_lcd_4bit_send_command:
  9214                           	callstack 0
  9215                           
  9216 ;; *************** function i2_lcd_4bit_send_char_data *****************
  9217 ;; Defined at:
  9218 ;;		line 90 in file "ECU/LCD_for_test_gps/ecu_char_lcd.c"
  9219 ;; Parameters:    Size  Location     Type
  9220 ;;  lcd             2   14[COMRAM] PTR const struct .
  9221 ;;		 -> lcd1(6), 
  9222 ;;  data            1   16[COMRAM] unsigned char 
  9223 ;; Auto vars:     Size  Location     Type
  9224 ;;  ERRORSTATUS     1    0        unsigned char 
  9225 ;; Return value:  Size  Location     Type
  9226 ;;                  1    wreg      unsigned char 
  9227 ;; Registers used:
  9228 ;;		wreg, fsr2l, fsr2h, status,2, status,0, prodl, prodh, cstack
  9229 ;; Tracked objects:
  9230 ;;		On entry : 0/0
  9231 ;;		On exit  : 0/0
  9232 ;;		Unchanged: 0/0
  9233 ;; Data sizes:     COMRAM   BANK0   BANK1   BANK2   BANK3   BANK4   BANK5   BANK6   BANK7   BANK8   BANK9  BANK10  BANK1
      +1  BANK12  BANK13  BANK14  BANK15
  9234 ;;      Params:         3       0       0       0       0       0       0       0       0       0       0       0       
      +0       0       0       0       0
  9235 ;;      Locals:         1       0       0       0       0       0       0       0       0       0       0       0       
      +0       0       0       0       0
  9236 ;;      Temps:          0       0       0       0       0       0       0       0       0       0       0       0       
      +0       0       0       0       0
  9237 ;;      Totals:         4       0       0       0       0       0       0       0       0       0       0       0       
      +0       0       0       0       0
  9238 ;;Total ram usage:        4 bytes
  9239 ;; Hardware stack levels used:    1
  9240 ;; Hardware stack levels required when called:    2
  9241 ;; This function calls:
  9242 ;;		i2_GPIO_Pin_Write_Logic
  9243 ;;		i2_lcd_4bits_send_enable_signal
  9244 ;;		i2_lcd_send_4bits
  9245 ;; This function is called by:
  9246 ;;		_lcd_4bit_send_char_data_pos
  9247 ;; This function uses a non-reentrant model
  9248 ;;
  9249                           
  9250                           	psect	text44
  9251  003A78                     __ptext44:
  9252                           	callstack 0
  9253  003A78                     i2_lcd_4bit_send_char_data:
  9254                           	callstack 16
  9255  003A78                     
  9256                           ;ECU/LCD_for_test_gps/ecu_char_lcd.c: 93:     if ( ((void*)0)==lcd)
  9257  003A78  500F               	movf	i2lcd_4bit_send_char_data@lcd^0,w,c
  9258  003A7A  1010               	iorwf	(i2lcd_4bit_send_char_data@lcd+1)^0,w,c
  9259  003A7C  A4D8               	btfss	status,2,c
  9260  003A7E  EF43  F01D         	goto	i2u532_41
  9261  003A82  EF45  F01D         	goto	i2u532_40
  9262  003A86                     i2u532_41:
  9263  003A86  EF47  F01D         	goto	i2l5297
  9264  003A8A                     i2u532_40:
  9265  003A8A                     
  9266                           ;ECU/LCD_for_test_gps/ecu_char_lcd.c: 96:     }
  9267  003A8A  EF6C  F01D         	goto	i2l87
  9268  003A8E                     i2l5297:
  9269  003A8E  C00F  F001         	movff	i2lcd_4bit_send_char_data@lcd,i2GPIO_Pin_Write_Logic@_pin_config
  9270  003A92  C010  F002         	movff	i2lcd_4bit_send_char_data@lcd+1,i2GPIO_Pin_Write_Logic@_pin_config+1
  9271  003A96  0E01               	movlw	1
  9272  003A98  6E03               	movwf	i2GPIO_Pin_Write_Logic@logic^0,c
  9273  003A9A  EC30  F016         	call	i2_GPIO_Pin_Write_Logic	;wreg free
  9274                           
  9275                           ;ECU/LCD_for_test_gps/ecu_char_lcd.c: 100:     lcd_send_4bits(lcd,(data>>4));
  9276  003A9E  C00F  F00B         	movff	i2lcd_4bit_send_char_data@lcd,i2lcd_send_4bits@lcd
  9277  003AA2  C010  F00C         	movff	i2lcd_4bit_send_char_data@lcd+1,i2lcd_send_4bits@lcd+1
  9278  003AA6  3811               	swapf	i2lcd_4bit_send_char_data@data^0,w,c
  9279  003AA8  0B0F               	andlw	15
  9280  003AAA  6E0D               	movwf	i2lcd_send_4bits@data_command^0,c
  9281  003AAC  EC80  F01A         	call	i2_lcd_send_4bits	;wreg free
  9282                           
  9283                           ;ECU/LCD_for_test_gps/ecu_char_lcd.c: 101:     lcd_4bits_send_enable_signal(lcd);
  9284  003AB0  C00F  F00B         	movff	i2lcd_4bit_send_char_data@lcd,i2lcd_4bits_send_enable_signal@lcd
  9285  003AB4  C010  F00C         	movff	i2lcd_4bit_send_char_data@lcd+1,i2lcd_4bits_send_enable_signal@lcd+1
  9286  003AB8  EC04  F01E         	call	i2_lcd_4bits_send_enable_signal	;wreg free
  9287                           
  9288                           ;ECU/LCD_for_test_gps/ecu_char_lcd.c: 102:     lcd_send_4bits(lcd,data);
  9289  003ABC  C00F  F00B         	movff	i2lcd_4bit_send_char_data@lcd,i2lcd_send_4bits@lcd
  9290  003AC0  C010  F00C         	movff	i2lcd_4bit_send_char_data@lcd+1,i2lcd_send_4bits@lcd+1
  9291  003AC4  C011  F00D         	movff	i2lcd_4bit_send_char_data@data,i2lcd_send_4bits@data_command
  9292  003AC8  EC80  F01A         	call	i2_lcd_send_4bits	;wreg free
  9293                           
  9294                           ;ECU/LCD_for_test_gps/ecu_char_lcd.c: 103:     lcd_4bits_send_enable_signal(lcd);
  9295  003ACC  C00F  F00B         	movff	i2lcd_4bit_send_char_data@lcd,i2lcd_4bits_send_enable_signal@lcd
  9296  003AD0  C010  F00C         	movff	i2lcd_4bit_send_char_data@lcd+1,i2lcd_4bits_send_enable_signal@lcd+1
  9297  003AD4  EC04  F01E         	call	i2_lcd_4bits_send_enable_signal	;wreg free
  9298  003AD8                     i2l87:
  9299  003AD8  0012               	return		;funcret
  9300  003ADA                     __end_ofi2_lcd_4bit_send_char_data:
  9301                           	callstack 0
  9302                           
  9303 ;; *************** function i2_lcd_send_4bits *****************
  9304 ;; Defined at:
  9305 ;;		line 505 in file "ECU/LCD_for_test_gps/ecu_char_lcd.c"
  9306 ;; Parameters:    Size  Location     Type
  9307 ;;  lcd             2   10[COMRAM] PTR const struct .
  9308 ;;		 -> lcd1(6), 
  9309 ;;  data_command    1   12[COMRAM] unsigned char 
  9310 ;; Auto vars:     Size  Location     Type
  9311 ;;  ERRORSTATUS     1    0        unsigned char 
  9312 ;; Return value:  Size  Location     Type
  9313 ;;                  1    wreg      unsigned char 
  9314 ;; Registers used:
  9315 ;;		wreg, fsr2l, fsr2h, status,2, status,0, prodl, prodh, cstack
  9316 ;; Tracked objects:
  9317 ;;		On entry : 0/0
  9318 ;;		On exit  : 0/0
  9319 ;;		Unchanged: 0/0
  9320 ;; Data sizes:     COMRAM   BANK0   BANK1   BANK2   BANK3   BANK4   BANK5   BANK6   BANK7   BANK8   BANK9  BANK10  BANK1
      +1  BANK12  BANK13  BANK14  BANK15
  9321 ;;      Params:         3       0       0       0       0       0       0       0       0       0       0       0       
      +0       0       0       0       0
  9322 ;;      Locals:         1       0       0       0       0       0       0       0       0       0       0       0       
      +0       0       0       0       0
  9323 ;;      Temps:          0       0       0       0       0       0       0       0       0       0       0       0       
      +0       0       0       0       0
  9324 ;;      Totals:         4       0       0       0       0       0       0       0       0       0       0       0       
      +0       0       0       0       0
  9325 ;;Total ram usage:        4 bytes
  9326 ;; Hardware stack levels used:    1
  9327 ;; Hardware stack levels required when called:    1
  9328 ;; This function calls:
  9329 ;;		i2_GPIO_Pin_Write_Logic
  9330 ;; This function is called by:
  9331 ;;		i2_lcd_4bit_send_command
  9332 ;;		i2_lcd_4bit_send_char_data
  9333 ;; This function uses a non-reentrant model
  9334 ;;
  9335                           
  9336                           	psect	text45
  9337  003500                     __ptext45:
  9338                           	callstack 0
  9339  003500                     i2_lcd_send_4bits:
  9340                           	callstack 15
  9341  003500                     
  9342                           ;ECU/LCD_for_test_gps/ecu_char_lcd.c: 508:         if ( ((void*)0)==lcd)
  9343  003500  500B               	movf	i2lcd_send_4bits@lcd^0,w,c
  9344  003502  100C               	iorwf	(i2lcd_send_4bits@lcd+1)^0,w,c
  9345  003504  A4D8               	btfss	status,2,c
  9346  003506  EF87  F01A         	goto	i2u415_41
  9347  00350A  EF89  F01A         	goto	i2u415_40
  9348  00350E                     i2u415_41:
  9349  00350E  EF8B  F01A         	goto	i2l4641
  9350  003512                     i2u415_40:
  9351  003512                     
  9352                           ;ECU/LCD_for_test_gps/ecu_char_lcd.c: 511:     }
  9353  003512  EFBC  F01A         	goto	i2l199
  9354  003516                     i2l4641:
  9355                           
  9356                           ;ECU/LCD_for_test_gps/ecu_char_lcd.c: 513:     {;ECU/LCD_for_test_gps/ecu_char_lcd.c: 51
      +                          4:             GPIO_Pin_Write_Logic(&(lcd->lcd_data_pins[0]),((data_command>>0)&(uint8)0
      +                          x01));
  9357  003516  0E02               	movlw	2
  9358  003518  240B               	addwf	i2lcd_send_4bits@lcd^0,w,c
  9359  00351A  6E01               	movwf	i2GPIO_Pin_Write_Logic@_pin_config^0,c
  9360  00351C  0E00               	movlw	0
  9361  00351E  200C               	addwfc	(i2lcd_send_4bits@lcd+1)^0,w,c
  9362  003520  6E02               	movwf	(i2GPIO_Pin_Write_Logic@_pin_config+1)^0,c
  9363  003522  500D               	movf	i2lcd_send_4bits@data_command^0,w,c
  9364  003524  0B01               	andlw	1
  9365  003526  6E03               	movwf	i2GPIO_Pin_Write_Logic@logic^0,c
  9366  003528  EC30  F016         	call	i2_GPIO_Pin_Write_Logic	;wreg free
  9367                           
  9368                           ;ECU/LCD_for_test_gps/ecu_char_lcd.c: 515:             GPIO_Pin_Write_Logic(&(lcd->lcd_d
      +                          ata_pins[1]),((data_command>>1)&(uint8)0x01));
  9369  00352C  0E03               	movlw	3
  9370  00352E  240B               	addwf	i2lcd_send_4bits@lcd^0,w,c
  9371  003530  6E01               	movwf	i2GPIO_Pin_Write_Logic@_pin_config^0,c
  9372  003532  0E00               	movlw	0
  9373  003534  200C               	addwfc	(i2lcd_send_4bits@lcd+1)^0,w,c
  9374  003536  6E02               	movwf	(i2GPIO_Pin_Write_Logic@_pin_config+1)^0,c
  9375  003538  90D8               	bcf	status,0,c
  9376  00353A  300D               	rrcf	i2lcd_send_4bits@data_command^0,w,c
  9377  00353C  0B01               	andlw	1
  9378  00353E  6E03               	movwf	i2GPIO_Pin_Write_Logic@logic^0,c
  9379  003540  EC30  F016         	call	i2_GPIO_Pin_Write_Logic	;wreg free
  9380                           
  9381                           ;ECU/LCD_for_test_gps/ecu_char_lcd.c: 516:             GPIO_Pin_Write_Logic(&(lcd->lcd_d
      +                          ata_pins[2]),((data_command>>2)&(uint8)0x01));
  9382  003544  0E04               	movlw	4
  9383  003546  240B               	addwf	i2lcd_send_4bits@lcd^0,w,c
  9384  003548  6E01               	movwf	i2GPIO_Pin_Write_Logic@_pin_config^0,c
  9385  00354A  0E00               	movlw	0
  9386  00354C  200C               	addwfc	(i2lcd_send_4bits@lcd+1)^0,w,c
  9387  00354E  6E02               	movwf	(i2GPIO_Pin_Write_Logic@_pin_config+1)^0,c
  9388  003550  400D               	rrncf	i2lcd_send_4bits@data_command^0,w,c
  9389  003552  42E8               	rrncf	wreg,f,c
  9390  003554  0B3F               	andlw	63
  9391  003556  0B01               	andlw	1
  9392  003558  6E03               	movwf	i2GPIO_Pin_Write_Logic@logic^0,c
  9393  00355A  EC30  F016         	call	i2_GPIO_Pin_Write_Logic	;wreg free
  9394                           
  9395                           ;ECU/LCD_for_test_gps/ecu_char_lcd.c: 517:             GPIO_Pin_Write_Logic(&(lcd->lcd_d
      +                          ata_pins[3]),((data_command>>3)&(uint8)0x01));
  9396  00355E  0E05               	movlw	5
  9397  003560  240B               	addwf	i2lcd_send_4bits@lcd^0,w,c
  9398  003562  6E01               	movwf	i2GPIO_Pin_Write_Logic@_pin_config^0,c
  9399  003564  0E00               	movlw	0
  9400  003566  200C               	addwfc	(i2lcd_send_4bits@lcd+1)^0,w,c
  9401  003568  6E02               	movwf	(i2GPIO_Pin_Write_Logic@_pin_config+1)^0,c
  9402  00356A  380D               	swapf	i2lcd_send_4bits@data_command^0,w,c
  9403  00356C  46E8               	rlncf	wreg,f,c
  9404  00356E  0B1F               	andlw	31
  9405  003570  0B01               	andlw	1
  9406  003572  6E03               	movwf	i2GPIO_Pin_Write_Logic@logic^0,c
  9407  003574  EC30  F016         	call	i2_GPIO_Pin_Write_Logic	;wreg free
  9408  003578                     i2l199:
  9409  003578  0012               	return		;funcret
  9410  00357A                     __end_ofi2_lcd_send_4bits:
  9411                           	callstack 0
  9412                           
  9413 ;; *************** function i2_lcd_4bits_send_enable_signal *****************
  9414 ;; Defined at:
  9415 ;;		line 488 in file "ECU/LCD_for_test_gps/ecu_char_lcd.c"
  9416 ;; Parameters:    Size  Location     Type
  9417 ;;  lcd             2   10[COMRAM] PTR const struct .
  9418 ;;		 -> lcd1(6), 
  9419 ;; Auto vars:     Size  Location     Type
  9420 ;;  ERRORSTATUS     1    0        unsigned char 
  9421 ;; Return value:  Size  Location     Type
  9422 ;;                  1    wreg      unsigned char 
  9423 ;; Registers used:
  9424 ;;		wreg, fsr2l, fsr2h, status,2, status,0, prodl, prodh, cstack
  9425 ;; Tracked objects:
  9426 ;;		On entry : 0/0
  9427 ;;		On exit  : 0/0
  9428 ;;		Unchanged: 0/0
  9429 ;; Data sizes:     COMRAM   BANK0   BANK1   BANK2   BANK3   BANK4   BANK5   BANK6   BANK7   BANK8   BANK9  BANK10  BANK1
      +1  BANK12  BANK13  BANK14  BANK15
  9430 ;;      Params:         2       0       0       0       0       0       0       0       0       0       0       0       
      +0       0       0       0       0
  9431 ;;      Locals:         1       0       0       0       0       0       0       0       0       0       0       0       
      +0       0       0       0       0
  9432 ;;      Temps:          0       0       0       0       0       0       0       0       0       0       0       0       
      +0       0       0       0       0
  9433 ;;      Totals:         3       0       0       0       0       0       0       0       0       0       0       0       
      +0       0       0       0       0
  9434 ;;Total ram usage:        3 bytes
  9435 ;; Hardware stack levels used:    1
  9436 ;; Hardware stack levels required when called:    1
  9437 ;; This function calls:
  9438 ;;		i2_GPIO_Pin_Write_Logic
  9439 ;; This function is called by:
  9440 ;;		i2_lcd_4bit_send_command
  9441 ;;		i2_lcd_4bit_send_char_data
  9442 ;; This function uses a non-reentrant model
  9443 ;;
  9444                           
  9445                           	psect	text46
  9446  003C08                     __ptext46:
  9447                           	callstack 0
  9448  003C08                     i2_lcd_4bits_send_enable_signal:
  9449                           	callstack 15
  9450  003C08                     
  9451                           ;ECU/LCD_for_test_gps/ecu_char_lcd.c: 491:         if ( ((void*)0)==lcd)
  9452  003C08  500B               	movf	i2lcd_4bits_send_enable_signal@lcd^0,w,c
  9453  003C0A  100C               	iorwf	(i2lcd_4bits_send_enable_signal@lcd+1)^0,w,c
  9454  003C0C  A4D8               	btfss	status,2,c
  9455  003C0E  EF0B  F01E         	goto	i2u414_41
  9456  003C12  EF0D  F01E         	goto	i2u414_40
  9457  003C16                     i2u414_41:
  9458  003C16  EF0F  F01E         	goto	i2l4627
  9459  003C1A                     i2u414_40:
  9460  003C1A                     
  9461                           ;ECU/LCD_for_test_gps/ecu_char_lcd.c: 494:     }
  9462  003C1A  EF27  F01E         	goto	i2l194
  9463  003C1E                     i2l4627:
  9464                           
  9465                           ;ECU/LCD_for_test_gps/ecu_char_lcd.c: 496:     {;ECU/LCD_for_test_gps/ecu_char_lcd.c: 49
      +                          7:             GPIO_Pin_Write_Logic(&(lcd->lcd_enable_pin),GPIO_HIGH);
  9466  003C1E  0E01               	movlw	1
  9467  003C20  240B               	addwf	i2lcd_4bits_send_enable_signal@lcd^0,w,c
  9468  003C22  6E01               	movwf	i2GPIO_Pin_Write_Logic@_pin_config^0,c
  9469  003C24  0E00               	movlw	0
  9470  003C26  200C               	addwfc	(i2lcd_4bits_send_enable_signal@lcd+1)^0,w,c
  9471  003C28  6E02               	movwf	(i2GPIO_Pin_Write_Logic@_pin_config+1)^0,c
  9472  003C2A  0E01               	movlw	1
  9473  003C2C  6E03               	movwf	i2GPIO_Pin_Write_Logic@logic^0,c
  9474  003C2E  EC30  F016         	call	i2_GPIO_Pin_Write_Logic	;wreg free
  9475  003C32                     
  9476                           ;ECU/LCD_for_test_gps/ecu_char_lcd.c: 498:             _delay((unsigned long)((5)*(80000
      +                          00/4000000.0)));
  9477  003C32  0E03               	movlw	3
  9478  003C34                     i2u903_47:
  9479  003C34  2EE8               	decfsz	wreg,f,c
  9480  003C36  D7FE               	bra	i2u903_47
  9481  003C38  F000               	nop	
  9482  003C3A                     
  9483                           ;ECU/LCD_for_test_gps/ecu_char_lcd.c: 499:              GPIO_Pin_Write_Logic(&(lcd->lcd_
      +                          enable_pin),GPIO_LOW);
  9484  003C3A  0E01               	movlw	1
  9485  003C3C  240B               	addwf	i2lcd_4bits_send_enable_signal@lcd^0,w,c
  9486  003C3E  6E01               	movwf	i2GPIO_Pin_Write_Logic@_pin_config^0,c
  9487  003C40  0E00               	movlw	0
  9488  003C42  200C               	addwfc	(i2lcd_4bits_send_enable_signal@lcd+1)^0,w,c
  9489  003C44  6E02               	movwf	(i2GPIO_Pin_Write_Logic@_pin_config+1)^0,c
  9490  003C46  0E00               	movlw	0
  9491  003C48  6E03               	movwf	i2GPIO_Pin_Write_Logic@logic^0,c
  9492  003C4A  EC30  F016         	call	i2_GPIO_Pin_Write_Logic	;wreg free
  9493  003C4E                     i2l194:
  9494  003C4E  0012               	return		;funcret
  9495  003C50                     __end_ofi2_lcd_4bits_send_enable_signal:
  9496                           	callstack 0
  9497                           
  9498 ;; *************** function i2_GPIO_Pin_Write_Logic *****************
  9499 ;; Defined at:
  9500 ;;		line 82 in file "MCAL/GPIO/hal_gpio.c"
  9501 ;; Parameters:    Size  Location     Type
  9502 ;;  _pin_config     2    0[COMRAM] PTR const struct .
  9503 ;;		 -> selector(1), pind2(1), pind1(1), lcd1.lcd_data_pins(4), 
  9504 ;;		 -> lcd1(6), 
  9505 ;;  logic           1    2[COMRAM] enum E2959
  9506 ;; Auto vars:     Size  Location     Type
  9507 ;;  ERRORSTATUS     1    9[COMRAM] unsigned char 
  9508 ;; Return value:  Size  Location     Type
  9509 ;;                  1    wreg      unsigned char 
  9510 ;; Registers used:
  9511 ;;		wreg, fsr2l, fsr2h, status,2, status,0, prodl, prodh
  9512 ;; Tracked objects:
  9513 ;;		On entry : 0/0
  9514 ;;		On exit  : 0/0
  9515 ;;		Unchanged: 0/0
  9516 ;; Data sizes:     COMRAM   BANK0   BANK1   BANK2   BANK3   BANK4   BANK5   BANK6   BANK7   BANK8   BANK9  BANK10  BANK1
      +1  BANK12  BANK13  BANK14  BANK15
  9517 ;;      Params:         3       0       0       0       0       0       0       0       0       0       0       0       
      +0       0       0       0       0
  9518 ;;      Locals:         1       0       0       0       0       0       0       0       0       0       0       0       
      +0       0       0       0       0
  9519 ;;      Temps:          6       0       0       0       0       0       0       0       0       0       0       0       
      +0       0       0       0       0
  9520 ;;      Totals:        10       0       0       0       0       0       0       0       0       0       0       0       
      +0       0       0       0       0
  9521 ;;Total ram usage:       10 bytes
  9522 ;; Hardware stack levels used:    1
  9523 ;; This function calls:
  9524 ;;		Nothing
  9525 ;; This function is called by:
  9526 ;;		i2_lcd_4bit_send_command
  9527 ;;		i2_lcd_4bit_send_char_data
  9528 ;;		i2_lcd_4bits_send_enable_signal
  9529 ;;		i2_lcd_send_4bits
  9530 ;; This function uses a non-reentrant model
  9531 ;;
  9532                           
  9533                           	psect	text47
  9534  002C60                     __ptext47:
  9535                           	callstack 0
  9536  002C60                     i2_GPIO_Pin_Write_Logic:
  9537                           	callstack 15
  9538  002C60                     
  9539                           ;MCAL/GPIO/hal_gpio.c: 82: Std_returnType GPIO_Pin_Write_Logic (const pin_config_st * _p
      +                          in_config,logic_et logic);MCAL/GPIO/hal_gpio.c: 83: {;MCAL/GPIO/hal_gpio.c: 84:       St
      +                          d_returnType ERRORSTATUS =(Std_returnType) 0x01;
  9540  002C60  0E01               	movlw	1
  9541  002C62  6E0A               	movwf	i2GPIO_Pin_Write_Logic@ERRORSTATUS^0,c
  9542  002C64                     
  9543                           ;MCAL/GPIO/hal_gpio.c: 85:      if ( ((void*)0)==_pin_config||_pin_config->pin> 8 -1)
  9544  002C64  5001               	movf	i2GPIO_Pin_Write_Logic@_pin_config^0,w,c
  9545  002C66  1002               	iorwf	(i2GPIO_Pin_Write_Logic@_pin_config+1)^0,w,c
  9546  002C68  B4D8               	btfsc	status,2,c
  9547  002C6A  EF39  F016         	goto	i2u406_41
  9548  002C6E  EF3B  F016         	goto	i2u406_40
  9549  002C72                     i2u406_41:
  9550  002C72  EF4A  F016         	goto	i2l4579
  9551  002C76                     i2u406_40:
  9552  002C76  C001  FFD9         	movff	i2GPIO_Pin_Write_Logic@_pin_config,fsr2l
  9553  002C7A  C002  FFDA         	movff	i2GPIO_Pin_Write_Logic@_pin_config+1,fsr2h
  9554  002C7E  50DF               	movf	indf2,w,c
  9555  002C80  0B07               	andlw	7
  9556  002C82  6E04               	movwf	??i2_GPIO_Pin_Write_Logic^0,c
  9557  002C84  0E07               	movlw	7
  9558  002C86  6404               	cpfsgt	??i2_GPIO_Pin_Write_Logic^0,c
  9559  002C88  EF48  F016         	goto	i2u407_41
  9560  002C8C  EF4A  F016         	goto	i2u407_40
  9561  002C90                     i2u407_41:
  9562  002C90  EFAD  F016         	goto	i2l4587
  9563  002C94                     i2u407_40:
  9564  002C94                     i2l4579:
  9565                           
  9566                           ;MCAL/GPIO/hal_gpio.c: 86:     {;MCAL/GPIO/hal_gpio.c: 87:         ERRORSTATUS=(Std_retu
      +                          rnType) 0x00;
  9567  002C94  0E00               	movlw	0
  9568  002C96  6E0A               	movwf	i2GPIO_Pin_Write_Logic@ERRORSTATUS^0,c
  9569                           
  9570                           ;MCAL/GPIO/hal_gpio.c: 88:     }
  9571  002C98  EFC2  F016         	goto	i2l4589
  9572  002C9C                     i2l4581:
  9573                           
  9574                           ;MCAL/GPIO/hal_gpio.c: 94:          (*lat_registers[_pin_config->port]&=~( (uint8)1<<_pi
      +                          n_config->pin ));
  9575  002C9C  C001  FFD9         	movff	i2GPIO_Pin_Write_Logic@_pin_config,fsr2l
  9576  002CA0  C002  FFDA         	movff	i2GPIO_Pin_Write_Logic@_pin_config+1,fsr2h
  9577  002CA4  50DF               	movf	indf2,w,c
  9578  002CA6  0B07               	andlw	7
  9579  002CA8  6E04               	movwf	??i2_GPIO_Pin_Write_Logic^0,c
  9580  002CAA  0E01               	movlw	1
  9581  002CAC  6E05               	movwf	(??i2_GPIO_Pin_Write_Logic+1)^0,c
  9582  002CAE  2A04               	incf	??i2_GPIO_Pin_Write_Logic^0,f,c
  9583  002CB0  EF5C  F016         	goto	i2u408_44
  9584  002CB4                     i2u408_45:
  9585  002CB4  90D8               	bcf	status,0,c
  9586  002CB6  3605               	rlcf	(??i2_GPIO_Pin_Write_Logic+1)^0,f,c
  9587  002CB8                     i2u408_44:
  9588  002CB8  2E04               	decfsz	??i2_GPIO_Pin_Write_Logic^0,f,c
  9589  002CBA  EF5A  F016         	goto	i2u408_45
  9590  002CBE  5005               	movf	(??i2_GPIO_Pin_Write_Logic+1)^0,w,c
  9591  002CC0  0AFF               	xorlw	255
  9592  002CC2  6E06               	movwf	(??i2_GPIO_Pin_Write_Logic+2)^0,c
  9593  002CC4  C001  FFD9         	movff	i2GPIO_Pin_Write_Logic@_pin_config,fsr2l
  9594  002CC8  C002  FFDA         	movff	i2GPIO_Pin_Write_Logic@_pin_config+1,fsr2h
  9595  002CCC  30DF               	rrcf	indf2,w,c
  9596  002CCE  32E8               	rrcf	wreg,f,c
  9597  002CD0  32E8               	rrcf	wreg,f,c
  9598  002CD2  0B07               	andlw	7
  9599  002CD4  6E07               	movwf	(??i2_GPIO_Pin_Write_Logic+3)^0,c
  9600  002CD6  5007               	movf	(??i2_GPIO_Pin_Write_Logic+3)^0,w,c
  9601  002CD8  0D02               	mullw	2
  9602  002CDA  0EE0               	movlw	low _lat_registers
  9603  002CDC  24F3               	addwf	243,w,c
  9604  002CDE  6ED9               	movwf	fsr2l,c
  9605  002CE0  0E00               	movlw	high _lat_registers
  9606  002CE2  20F4               	addwfc	prodh,w,c
  9607  002CE4  6EDA               	movwf	fsr2h,c
  9608  002CE6  CFDE F008          	movff	postinc2,??i2_GPIO_Pin_Write_Logic+4
  9609  002CEA  CFDD F009          	movff	postdec2,??i2_GPIO_Pin_Write_Logic+5
  9610  002CEE  C008  FFD9         	movff	??i2_GPIO_Pin_Write_Logic+4,fsr2l
  9611  002CF2  C009  FFDA         	movff	??i2_GPIO_Pin_Write_Logic+5,fsr2h
  9612  002CF6  5006               	movf	(??i2_GPIO_Pin_Write_Logic+2)^0,w,c
  9613  002CF8  16DF               	andwf	indf2,f,c
  9614                           
  9615                           ;MCAL/GPIO/hal_gpio.c: 95:             break;
  9616  002CFA  EFC2  F016         	goto	i2l4589
  9617  002CFE                     i2l4583:
  9618                           
  9619                           ;MCAL/GPIO/hal_gpio.c: 97:           (*lat_registers[_pin_config->port]|=( (uint8)1<<_pi
      +                          n_config->pin ));
  9620  002CFE  C001  FFD9         	movff	i2GPIO_Pin_Write_Logic@_pin_config,fsr2l
  9621  002D02  C002  FFDA         	movff	i2GPIO_Pin_Write_Logic@_pin_config+1,fsr2h
  9622  002D06  50DF               	movf	indf2,w,c
  9623  002D08  0B07               	andlw	7
  9624  002D0A  6E04               	movwf	??i2_GPIO_Pin_Write_Logic^0,c
  9625  002D0C  0E01               	movlw	1
  9626  002D0E  6E05               	movwf	(??i2_GPIO_Pin_Write_Logic+1)^0,c
  9627  002D10  2A04               	incf	??i2_GPIO_Pin_Write_Logic^0,f,c
  9628  002D12  EF8D  F016         	goto	i2u409_44
  9629  002D16                     i2u409_45:
  9630  002D16  90D8               	bcf	status,0,c
  9631  002D18  3605               	rlcf	(??i2_GPIO_Pin_Write_Logic+1)^0,f,c
  9632  002D1A                     i2u409_44:
  9633  002D1A  2E04               	decfsz	??i2_GPIO_Pin_Write_Logic^0,f,c
  9634  002D1C  EF8B  F016         	goto	i2u409_45
  9635  002D20  C001  FFD9         	movff	i2GPIO_Pin_Write_Logic@_pin_config,fsr2l
  9636  002D24  C002  FFDA         	movff	i2GPIO_Pin_Write_Logic@_pin_config+1,fsr2h
  9637  002D28  30DF               	rrcf	indf2,w,c
  9638  002D2A  32E8               	rrcf	wreg,f,c
  9639  002D2C  32E8               	rrcf	wreg,f,c
  9640  002D2E  0B07               	andlw	7
  9641  002D30  6E06               	movwf	(??i2_GPIO_Pin_Write_Logic+2)^0,c
  9642  002D32  5006               	movf	(??i2_GPIO_Pin_Write_Logic+2)^0,w,c
  9643  002D34  0D02               	mullw	2
  9644  002D36  0EE0               	movlw	low _lat_registers
  9645  002D38  24F3               	addwf	243,w,c
  9646  002D3A  6ED9               	movwf	fsr2l,c
  9647  002D3C  0E00               	movlw	high _lat_registers
  9648  002D3E  20F4               	addwfc	prodh,w,c
  9649  002D40  6EDA               	movwf	fsr2h,c
  9650  002D42  CFDE F007          	movff	postinc2,??i2_GPIO_Pin_Write_Logic+3
  9651  002D46  CFDD F008          	movff	postdec2,??i2_GPIO_Pin_Write_Logic+4
  9652  002D4A  C007  FFD9         	movff	??i2_GPIO_Pin_Write_Logic+3,fsr2l
  9653  002D4E  C008  FFDA         	movff	??i2_GPIO_Pin_Write_Logic+4,fsr2h
  9654  002D52  5005               	movf	(??i2_GPIO_Pin_Write_Logic+1)^0,w,c
  9655  002D54  12DF               	iorwf	indf2,f,c
  9656                           
  9657                           ;MCAL/GPIO/hal_gpio.c: 98:             break;
  9658  002D56  EFC2  F016         	goto	i2l4589
  9659  002D5A                     i2l4587:
  9660  002D5A  5003               	movf	i2GPIO_Pin_Write_Logic@logic^0,w,c
  9661  002D5C  6E04               	movwf	??i2_GPIO_Pin_Write_Logic^0,c
  9662  002D5E  6A05               	clrf	(??i2_GPIO_Pin_Write_Logic+1)^0,c
  9663                           
  9664                           ; Switch on 2 bytes has been partitioned into a top level switch of size 1, and 1 sub-sw
      +                          itches
  9665                           ; Switch size 1, requested type "simple"
  9666                           ; Number of cases is 1, Range of values is 0 to 0
  9667                           ; switch strategies available:
  9668                           ; Name         Instructions Cycles
  9669                           ; simple_byte            4     3 (average)
  9670                           ;	Chosen strategy is simple_byte
  9671  002D60  5005               	movf	(??i2_GPIO_Pin_Write_Logic+1)^0,w,c
  9672  002D62  0A00               	xorlw	0	; case 0
  9673  002D64  B4D8               	btfsc	status,2,c
  9674  002D66  EFB7  F016         	goto	i2l8209
  9675  002D6A  EF4A  F016         	goto	i2l4579
  9676  002D6E                     i2l8209:
  9677                           
  9678                           ; Switch size 1, requested type "simple"
  9679                           ; Number of cases is 2, Range of values is 0 to 1
  9680                           ; switch strategies available:
  9681                           ; Name         Instructions Cycles
  9682                           ; simple_byte            7     4 (average)
  9683                           ;	Chosen strategy is simple_byte
  9684  002D6E  5004               	movf	??i2_GPIO_Pin_Write_Logic^0,w,c
  9685  002D70  0A00               	xorlw	0	; case 0
  9686  002D72  B4D8               	btfsc	status,2,c
  9687  002D74  EF4E  F016         	goto	i2l4581
  9688  002D78  0A01               	xorlw	1	; case 1
  9689  002D7A  B4D8               	btfsc	status,2,c
  9690  002D7C  EF7F  F016         	goto	i2l4583
  9691  002D80  EF4A  F016         	goto	i2l4579
  9692  002D84                     i2l4589:
  9693                           
  9694                           ;MCAL/GPIO/hal_gpio.c: 104:      return ERRORSTATUS;
  9695  002D84  500A               	movf	i2GPIO_Pin_Write_Logic@ERRORSTATUS^0,w,c
  9696  002D86  0012               	return		;funcret
  9697  002D88                     __end_ofi2_GPIO_Pin_Write_Logic:
  9698                           	callstack 0
  9699                           
  9700 ;; *************** function _Bluetooth_Send_Data_Non_Blocking *****************
  9701 ;; Defined at:
  9702 ;;		line 71 in file "ECU/Bluetooth/Bluetooth.c"
  9703 ;; Parameters:    Size  Location     Type
  9704 ;;  _uart_obj       2   12[COMRAM] PTR const struct .
  9705 ;;		 -> _uart_obj(12), 
  9706 ;;  data            1   14[COMRAM] unsigned char 
  9707 ;; Auto vars:     Size  Location     Type
  9708 ;;  ret_val         1    0        unsigned char 
  9709 ;; Return value:  Size  Location     Type
  9710 ;;                  1    wreg      unsigned char 
  9711 ;; Registers used:
  9712 ;;		wreg, fsr2l, fsr2h, status,2, status,0, cstack
  9713 ;; Tracked objects:
  9714 ;;		On entry : 0/0
  9715 ;;		On exit  : 0/0
  9716 ;;		Unchanged: 0/0
  9717 ;; Data sizes:     COMRAM   BANK0   BANK1   BANK2   BANK3   BANK4   BANK5   BANK6   BANK7   BANK8   BANK9  BANK10  BANK1
      +1  BANK12  BANK13  BANK14  BANK15
  9718 ;;      Params:         3       0       0       0       0       0       0       0       0       0       0       0       
      +0       0       0       0       0
  9719 ;;      Locals:         1       0       0       0       0       0       0       0       0       0       0       0       
      +0       0       0       0       0
  9720 ;;      Temps:          0       0       0       0       0       0       0       0       0       0       0       0       
      +0       0       0       0       0
  9721 ;;      Totals:         4       0       0       0       0       0       0       0       0       0       0       0       
      +0       0       0       0       0
  9722 ;;Total ram usage:        4 bytes
  9723 ;; Hardware stack levels used:    1
  9724 ;; Hardware stack levels required when called:    2
  9725 ;; This function calls:
  9726 ;;		_EUSART_Async_Transmit_Data
  9727 ;; This function is called by:
  9728 ;;		_usart_isr
  9729 ;; This function uses a non-reentrant model
  9730 ;;
  9731                           
  9732                           	psect	text48
  9733  003CE2                     __ptext48:
  9734                           	callstack 0
  9735  003CE2                     _Bluetooth_Send_Data_Non_Blocking:
  9736                           	callstack 17
  9737  003CE2                     
  9738                           ;ECU/Bluetooth/Bluetooth.c: 76:     if((((void*)0) ==_uart_obj ) )
  9739  003CE2  500D               	movf	Bluetooth_Send_Data_Non_Blocking@_uart_obj^0,w,c
  9740  003CE4  100E               	iorwf	(Bluetooth_Send_Data_Non_Blocking@_uart_obj+1)^0,w,c
  9741  003CE6  A4D8               	btfss	status,2,c
  9742  003CE8  EF78  F01E         	goto	i2u534_41
  9743  003CEC  EF7A  F01E         	goto	i2u534_40
  9744  003CF0                     i2u534_41:
  9745  003CF0  EF7C  F01E         	goto	i2l5331
  9746  003CF4                     i2u534_40:
  9747  003CF4                     
  9748                           ;ECU/Bluetooth/Bluetooth.c: 79:     }
  9749  003CF4  EF85  F01E         	goto	i2l32
  9750  003CF8                     i2l5331:
  9751                           
  9752                           ;ECU/Bluetooth/Bluetooth.c: 81:     {;ECU/Bluetooth/Bluetooth.c: 82:         EUSART_Asyn
      +                          c_Transmit_Data(_uart_obj , data);
  9753  003CF8  C00D  F006         	movff	Bluetooth_Send_Data_Non_Blocking@_uart_obj,EUSART_Async_Transmit_Data@_eusart_obj
  9754  003CFC  C00E  F007         	movff	Bluetooth_Send_Data_Non_Blocking@_uart_obj+1,EUSART_Async_Transmit_Data@_eusart_o
      +                          bj+1
  9755  003D00  C00F  F008         	movff	Bluetooth_Send_Data_Non_Blocking@data,EUSART_Async_Transmit_Data@data
  9756  003D04  6A09               	clrf	(EUSART_Async_Transmit_Data@data+1)^0,c
  9757  003D06  ECD3  F017         	call	_EUSART_Async_Transmit_Data	;wreg free
  9758  003D0A                     i2l32:
  9759  003D0A  0012               	return		;funcret
  9760  003D0C                     __end_of_Bluetooth_Send_Data_Non_Blocking:
  9761                           	callstack 0
  9762                           
  9763 ;; *************** function _EUSART_Async_Transmit_Data *****************
  9764 ;; Defined at:
  9765 ;;		line 124 in file "MCAL/EUSART/mcal_EUSART.c"
  9766 ;; Parameters:    Size  Location     Type
  9767 ;;  _eusart_obj     2    5[COMRAM] PTR const struct .
  9768 ;;		 -> _uart_obj(12), 
  9769 ;;  data            2    7[COMRAM] unsigned short 
  9770 ;; Auto vars:     Size  Location     Type
  9771 ;;  ret_val         1    0        unsigned char 
  9772 ;; Return value:  Size  Location     Type
  9773 ;;                  1    wreg      unsigned char 
  9774 ;; Registers used:
  9775 ;;		wreg, fsr2l, fsr2h, status,2, status,0, cstack
  9776 ;; Tracked objects:
  9777 ;;		On entry : 0/0
  9778 ;;		On exit  : 0/0
  9779 ;;		Unchanged: 0/0
  9780 ;; Data sizes:     COMRAM   BANK0   BANK1   BANK2   BANK3   BANK4   BANK5   BANK6   BANK7   BANK8   BANK9  BANK10  BANK1
      +1  BANK12  BANK13  BANK14  BANK15
  9781 ;;      Params:         4       0       0       0       0       0       0       0       0       0       0       0       
      +0       0       0       0       0
  9782 ;;      Locals:         1       0       0       0       0       0       0       0       0       0       0       0       
      +0       0       0       0       0
  9783 ;;      Temps:          2       0       0       0       0       0       0       0       0       0       0       0       
      +0       0       0       0       0
  9784 ;;      Totals:         7       0       0       0       0       0       0       0       0       0       0       0       
      +0       0       0       0       0
  9785 ;;Total ram usage:        7 bytes
  9786 ;; Hardware stack levels used:    1
  9787 ;; Hardware stack levels required when called:    1
  9788 ;; This function calls:
  9789 ;;		i2_calc_parity_even
  9790 ;;		i2_calc_parity_odd
  9791 ;; This function is called by:
  9792 ;;		_Bluetooth_Send_Data_Non_Blocking
  9793 ;;		_EUSART_Async_Transmit_Data_Blocking
  9794 ;; This function uses a non-reentrant model
  9795 ;;
  9796                           
  9797                           	psect	text49
  9798  002FA6                     __ptext49:
  9799                           	callstack 0
  9800  002FA6                     _EUSART_Async_Transmit_Data:
  9801                           	callstack 17
  9802  002FA6                     
  9803                           ;MCAL/EUSART/mcal_EUSART.c: 128:     if(((void*)0) == _eusart_obj)
  9804  002FA6  5006               	movf	EUSART_Async_Transmit_Data@_eusart_obj^0,w,c
  9805  002FA8  1007               	iorwf	(EUSART_Async_Transmit_Data@_eusart_obj+1)^0,w,c
  9806  002FAA  A4D8               	btfss	status,2,c
  9807  002FAC  EFDA  F017         	goto	i2u427_41
  9808  002FB0  EFDC  F017         	goto	i2u427_40
  9809  002FB4                     i2u427_41:
  9810  002FB4  EFDE  F017         	goto	i2l4733
  9811  002FB8                     i2u427_40:
  9812  002FB8                     
  9813                           ;MCAL/EUSART/mcal_EUSART.c: 131:     }
  9814  002FB8  EF44  F018         	goto	i2l331
  9815  002FBC                     i2l4733:
  9816                           
  9817                           ;MCAL/EUSART/mcal_EUSART.c: 133:     {;MCAL/EUSART/mcal_EUSART.c: 135:         if(1 == _
      +                          eusart_obj->tx_config.tx_9th_bit_en)
  9818  002FBC  EE20 F002          	lfsr	2,2
  9819  002FC0  5006               	movf	EUSART_Async_Transmit_Data@_eusart_obj^0,w,c
  9820  002FC2  26D9               	addwf	fsr2l,f,c
  9821  002FC4  5007               	movf	(EUSART_Async_Transmit_Data@_eusart_obj+1)^0,w,c
  9822  002FC6  22DA               	addwfc	fsr2h,f,c
  9823  002FC8  A6DF               	btfss	indf2,3,c
  9824  002FCA  EFE9  F017         	goto	i2u428_41
  9825  002FCE  EFEB  F017         	goto	i2u428_40
  9826  002FD2                     i2u428_41:
  9827  002FD2  EF42  F018         	goto	i2l4747
  9828  002FD6                     i2u428_40:
  9829  002FD6                     
  9830                           ;MCAL/EUSART/mcal_EUSART.c: 136:         {;MCAL/EUSART/mcal_EUSART.c: 139:             i
      +                          f(0 == _eusart_obj->tx_config.uart_tx_9th_bit_role)
  9831  002FD6  EE20 F002          	lfsr	2,2
  9832  002FDA  5006               	movf	EUSART_Async_Transmit_Data@_eusart_obj^0,w,c
  9833  002FDC  26D9               	addwf	fsr2l,f,c
  9834  002FDE  5007               	movf	(EUSART_Async_Transmit_Data@_eusart_obj+1)^0,w,c
  9835  002FE0  22DA               	addwfc	fsr2h,f,c
  9836  002FE2  50DF               	movf	indf2,w,c
  9837  002FE4  0B03               	andlw	3
  9838  002FE6  0900               	iorlw	0
  9839  002FE8  A4D8               	btfss	status,2,c
  9840  002FEA  EFF9  F017         	goto	i2u429_41
  9841  002FEE  EFFB  F017         	goto	i2u429_40
  9842  002FF2                     i2u429_41:
  9843  002FF2  EF0A  F018         	goto	i2l4739
  9844  002FF6                     i2u429_40:
  9845  002FF6                     
  9846                           ;MCAL/EUSART/mcal_EUSART.c: 140:             {;MCAL/EUSART/mcal_EUSART.c: 142:          
      +                                 TXSTAbits.TX9D = (__bit) (data >> 8);
  9847  002FF6  C008  F00A         	movff	EUSART_Async_Transmit_Data@data,??_EUSART_Async_Transmit_Data
  9848  002FFA  C009  F00B         	movff	EUSART_Async_Transmit_Data@data+1,??_EUSART_Async_Transmit_Data+1
  9849  002FFE  C00B  F00A         	movff	??_EUSART_Async_Transmit_Data+1,??_EUSART_Async_Transmit_Data
  9850  003002  6A0B               	clrf	(??_EUSART_Async_Transmit_Data+1)^0,c
  9851  003004  300A               	rrcf	??_EUSART_Async_Transmit_Data^0,w,c
  9852  003006  A0D8               	btfss	status,0,c
  9853  003008  D002               	bra	i2u430_45
  9854  00300A  80AC               	bsf	172,0,c	;volatile
  9855  00300C  D001               	bra	i2u430_47
  9856  00300E                     i2u430_45:
  9857  00300E  90AC               	bcf	172,0,c	;volatile
  9858  003010                     i2u430_47:
  9859                           
  9860                           ;MCAL/EUSART/mcal_EUSART.c: 144:             }
  9861  003010  EF42  F018         	goto	i2l4747
  9862  003014                     i2l4739:
  9863  003014  EE20 F002          	lfsr	2,2
  9864  003018  5006               	movf	EUSART_Async_Transmit_Data@_eusart_obj^0,w,c
  9865  00301A  26D9               	addwf	fsr2l,f,c
  9866  00301C  5007               	movf	(EUSART_Async_Transmit_Data@_eusart_obj+1)^0,w,c
  9867  00301E  22DA               	addwfc	fsr2h,f,c
  9868  003020  50DF               	movf	indf2,w,c
  9869  003022  0B03               	andlw	3
  9870  003024  06E8               	decf	wreg,f,c
  9871  003026  A4D8               	btfss	status,2,c
  9872  003028  EF18  F018         	goto	i2u431_41
  9873  00302C  EF1A  F018         	goto	i2u431_40
  9874  003030                     i2u431_41:
  9875  003030  EF26  F018         	goto	i2l4743
  9876  003034                     i2u431_40:
  9877  003034                     
  9878                           ;MCAL/EUSART/mcal_EUSART.c: 146:             {;MCAL/EUSART/mcal_EUSART.c: 148:          
      +                                 TXSTAbits.TX9D = (__bit) calc_parity_even( (uint8_t) data);
  9879  003034  5008               	movf	EUSART_Async_Transmit_Data@data^0,w,c
  9880  003036  EC40  F01C         	call	i2_calc_parity_even
  9881  00303A  6E0A               	movwf	??_EUSART_Async_Transmit_Data^0,c
  9882  00303C  300A               	rrcf	??_EUSART_Async_Transmit_Data^0,w,c
  9883  00303E  A0D8               	btfss	status,0,c
  9884  003040  D002               	bra	i2u432_45
  9885  003042  80AC               	bsf	172,0,c	;volatile
  9886  003044  D001               	bra	i2u432_47
  9887  003046                     i2u432_45:
  9888  003046  90AC               	bcf	172,0,c	;volatile
  9889  003048                     i2u432_47:
  9890                           
  9891                           ;MCAL/EUSART/mcal_EUSART.c: 150:             }
  9892  003048  EF42  F018         	goto	i2l4747
  9893  00304C                     i2l4743:
  9894  00304C  EE20 F002          	lfsr	2,2
  9895  003050  5006               	movf	EUSART_Async_Transmit_Data@_eusart_obj^0,w,c
  9896  003052  26D9               	addwf	fsr2l,f,c
  9897  003054  5007               	movf	(EUSART_Async_Transmit_Data@_eusart_obj+1)^0,w,c
  9898  003056  22DA               	addwfc	fsr2h,f,c
  9899  003058  50DF               	movf	indf2,w,c
  9900  00305A  0B03               	andlw	3
  9901  00305C  0A02               	xorlw	2
  9902  00305E  A4D8               	btfss	status,2,c
  9903  003060  EF34  F018         	goto	i2u433_41
  9904  003064  EF36  F018         	goto	i2u433_40
  9905  003068                     i2u433_41:
  9906  003068  EF42  F018         	goto	i2l327
  9907  00306C                     i2u433_40:
  9908  00306C                     
  9909                           ;MCAL/EUSART/mcal_EUSART.c: 152:             {;MCAL/EUSART/mcal_EUSART.c: 154:          
      +                                 TXSTAbits.TX9D = (__bit) calc_parity_odd( (uint8_t) data);
  9910  00306C  5008               	movf	EUSART_Async_Transmit_Data@data^0,w,c
  9911  00306E  EC0C  F01C         	call	i2_calc_parity_odd
  9912  003072  6E0A               	movwf	??_EUSART_Async_Transmit_Data^0,c
  9913  003074  300A               	rrcf	??_EUSART_Async_Transmit_Data^0,w,c
  9914  003076  A0D8               	btfss	status,0,c
  9915  003078  D002               	bra	i2u434_45
  9916  00307A  80AC               	bsf	172,0,c	;volatile
  9917  00307C  D001               	bra	i2u434_47
  9918  00307E                     i2u434_45:
  9919  00307E  90AC               	bcf	172,0,c	;volatile
  9920  003080                     i2u434_47:
  9921  003080  EF42  F018         	goto	i2l4747
  9922  003084                     i2l327:
  9923  003084                     i2l4747:
  9924                           
  9925                           ;MCAL/EUSART/mcal_EUSART.c: 160:         TXREG = (uint8)data;
  9926  003084  C008  FFAD         	movff	EUSART_Async_Transmit_Data@data,4013	;volatile
  9927  003088                     i2l331:
  9928  003088  0012               	return		;funcret
  9929  00308A                     __end_of_EUSART_Async_Transmit_Data:
  9930                           	callstack 0
  9931                           
  9932 ;; *************** function i2_calc_parity_odd *****************
  9933 ;; Defined at:
  9934 ;;		line 612 in file "MCAL/EUSART/mcal_EUSART.c"
  9935 ;; Parameters:    Size  Location     Type
  9936 ;;  data            1    wreg     unsigned char 
  9937 ;; Auto vars:     Size  Location     Type
  9938 ;;  data            1    2[COMRAM] unsigned char 
  9939 ;;  l_counter       1    4[COMRAM] unsigned char 
  9940 ;;  number_of_on    1    3[COMRAM] unsigned char 
  9941 ;; Return value:  Size  Location     Type
  9942 ;;                  1    wreg      unsigned char 
  9943 ;; Registers used:
  9944 ;;		wreg, status,2, status,0
  9945 ;; Tracked objects:
  9946 ;;		On entry : 0/0
  9947 ;;		On exit  : 0/0
  9948 ;;		Unchanged: 0/0
  9949 ;; Data sizes:     COMRAM   BANK0   BANK1   BANK2   BANK3   BANK4   BANK5   BANK6   BANK7   BANK8   BANK9  BANK10  BANK1
      +1  BANK12  BANK13  BANK14  BANK15
  9950 ;;      Params:         0       0       0       0       0       0       0       0       0       0       0       0       
      +0       0       0       0       0
  9951 ;;      Locals:         3       0       0       0       0       0       0       0       0       0       0       0       
      +0       0       0       0       0
  9952 ;;      Temps:          2       0       0       0       0       0       0       0       0       0       0       0       
      +0       0       0       0       0
  9953 ;;      Totals:         5       0       0       0       0       0       0       0       0       0       0       0       
      +0       0       0       0       0
  9954 ;;Total ram usage:        5 bytes
  9955 ;; Hardware stack levels used:    1
  9956 ;; This function calls:
  9957 ;;		Nothing
  9958 ;; This function is called by:
  9959 ;;		_EUSART_Async_Transmit_Data
  9960 ;;		i2_EUSART_Async_Read_Data
  9961 ;; This function uses a non-reentrant model
  9962 ;;
  9963                           
  9964                           	psect	text50
  9965  003818                     __ptext50:
  9966                           	callstack 0
  9967  003818                     i2_calc_parity_odd:
  9968                           	callstack 18
  9969                           
  9970                           ;incstack = 0
  9971                           ;i2calc_parity_odd@data stored from wreg
  9972  003818  6E03               	movwf	i2calc_parity_odd@data^0,c
  9973  00381A                     
  9974                           ;MCAL/EUSART/mcal_EUSART.c: 612: static __attribute__((inline)) uint8_t calc_parity_odd(
      +                          uint8_t data);MCAL/EUSART/mcal_EUSART.c: 613: {;MCAL/EUSART/mcal_EUSART.c: 616:     uint
      +                          8_t number_of_ones = 0 ;
  9975  00381A  0E00               	movlw	0
  9976  00381C  6E04               	movwf	i2calc_parity_odd@number_of_ones^0,c
  9977                           
  9978                           ;MCAL/EUSART/mcal_EUSART.c: 617:     uint8_t l_counter = 0 ;
  9979  00381E  0E00               	movlw	0
  9980  003820  6E05               	movwf	i2calc_parity_odd@l_counter^0,c
  9981                           
  9982                           ;MCAL/EUSART/mcal_EUSART.c: 633:     for(l_counter = 0 ; l_counter < 8 ; l_counter++ )
  9983  003822  0E00               	movlw	0
  9984  003824  6E05               	movwf	i2calc_parity_odd@l_counter^0,c
  9985  003826                     i2l4685:
  9986                           
  9987                           ;MCAL/EUSART/mcal_EUSART.c: 634:     {;MCAL/EUSART/mcal_EUSART.c: 635:         if( (data
      +                           & 0x01 << l_counter) != 0 )
  9988  003826  C005  F001         	movff	i2calc_parity_odd@l_counter,??i2_calc_parity_odd
  9989  00382A  0E01               	movlw	1
  9990  00382C  6E02               	movwf	(??i2_calc_parity_odd+1)^0,c
  9991  00382E  2A01               	incf	??i2_calc_parity_odd^0,f,c
  9992  003830  EF1C  F01C         	goto	i2u419_44
  9993  003834                     i2u419_45:
  9994  003834  90D8               	bcf	status,0,c
  9995  003836  3602               	rlcf	(??i2_calc_parity_odd+1)^0,f,c
  9996  003838                     i2u419_44:
  9997  003838  2E01               	decfsz	??i2_calc_parity_odd^0,f,c
  9998  00383A  EF1A  F01C         	goto	i2u419_45
  9999  00383E  5002               	movf	(??i2_calc_parity_odd+1)^0,w,c
 10000  003840  1403               	andwf	i2calc_parity_odd@data^0,w,c
 10001  003842  0900               	iorlw	0
 10002  003844  B4D8               	btfsc	status,2,c
 10003  003846  EF27  F01C         	goto	i2u420_41
 10004  00384A  EF29  F01C         	goto	i2u420_40
 10005  00384E                     i2u420_41:
 10006  00384E  EF2A  F01C         	goto	i2l467
 10007  003852                     i2u420_40:
 10008  003852                     
 10009                           ;MCAL/EUSART/mcal_EUSART.c: 636:         {;MCAL/EUSART/mcal_EUSART.c: 637:             n
      +                          umber_of_ones++ ;
 10010  003852  2A04               	incf	i2calc_parity_odd@number_of_ones^0,f,c
 10011  003854                     i2l467:
 10012                           
 10013                           ;MCAL/EUSART/mcal_EUSART.c: 639:     }
 10014  003854  2A05               	incf	i2calc_parity_odd@l_counter^0,f,c
 10015  003856  0E07               	movlw	7
 10016  003858  6405               	cpfsgt	i2calc_parity_odd@l_counter^0,c
 10017  00385A  EF31  F01C         	goto	i2u421_41
 10018  00385E  EF33  F01C         	goto	i2u421_40
 10019  003862                     i2u421_41:
 10020  003862  EF13  F01C         	goto	i2l4685
 10021  003866                     i2u421_40:
 10022  003866                     
 10023                           ;MCAL/EUSART/mcal_EUSART.c: 642:     number_of_ones++ ;
 10024  003866  2A04               	incf	i2calc_parity_odd@number_of_ones^0,f,c
 10025  003868                     
 10026                           ;MCAL/EUSART/mcal_EUSART.c: 644:     if((number_of_ones % 2) == 0)
 10027  003868  B004               	btfsc	i2calc_parity_odd@number_of_ones^0,0,c
 10028  00386A  EF39  F01C         	goto	i2u422_41
 10029  00386E  EF3B  F01C         	goto	i2u422_40
 10030  003872                     i2u422_41:
 10031  003872  EF3E  F01C         	goto	i2l4699
 10032  003876                     i2u422_40:
 10033  003876                     
 10034                           ;MCAL/EUSART/mcal_EUSART.c: 645:     {;MCAL/EUSART/mcal_EUSART.c: 646:         return 1 
      +                          ;
 10035  003876  0E01               	movlw	1
 10036  003878  EF3F  F01C         	goto	i2l469
 10037  00387C                     i2l4699:
 10038                           
 10039                           ;MCAL/EUSART/mcal_EUSART.c: 648:     return 0 ;
 10040  00387C  0E00               	movlw	0
 10041  00387E                     i2l469:
 10042  00387E  0012               	return		;funcret
 10043  003880                     __end_ofi2_calc_parity_odd:
 10044                           	callstack 0
 10045                           
 10046 ;; *************** function i2_calc_parity_even *****************
 10047 ;; Defined at:
 10048 ;;		line 650 in file "MCAL/EUSART/mcal_EUSART.c"
 10049 ;; Parameters:    Size  Location     Type
 10050 ;;  data            1    wreg     unsigned char 
 10051 ;; Auto vars:     Size  Location     Type
 10052 ;;  data            1    2[COMRAM] unsigned char 
 10053 ;;  l_counter       1    4[COMRAM] unsigned char 
 10054 ;;  number_of_on    1    3[COMRAM] unsigned char 
 10055 ;; Return value:  Size  Location     Type
 10056 ;;                  1    wreg      unsigned char 
 10057 ;; Registers used:
 10058 ;;		wreg, status,2, status,0
 10059 ;; Tracked objects:
 10060 ;;		On entry : 0/0
 10061 ;;		On exit  : 0/0
 10062 ;;		Unchanged: 0/0
 10063 ;; Data sizes:     COMRAM   BANK0   BANK1   BANK2   BANK3   BANK4   BANK5   BANK6   BANK7   BANK8   BANK9  BANK10  BANK1
      +1  BANK12  BANK13  BANK14  BANK15
 10064 ;;      Params:         0       0       0       0       0       0       0       0       0       0       0       0       
      +0       0       0       0       0
 10065 ;;      Locals:         3       0       0       0       0       0       0       0       0       0       0       0       
      +0       0       0       0       0
 10066 ;;      Temps:          2       0       0       0       0       0       0       0       0       0       0       0       
      +0       0       0       0       0
 10067 ;;      Totals:         5       0       0       0       0       0       0       0       0       0       0       0       
      +0       0       0       0       0
 10068 ;;Total ram usage:        5 bytes
 10069 ;; Hardware stack levels used:    1
 10070 ;; This function calls:
 10071 ;;		Nothing
 10072 ;; This function is called by:
 10073 ;;		_EUSART_Async_Transmit_Data
 10074 ;;		i2_EUSART_Async_Read_Data
 10075 ;; This function uses a non-reentrant model
 10076 ;;
 10077                           
 10078                           	psect	text51
 10079  003880                     __ptext51:
 10080                           	callstack 0
 10081  003880                     i2_calc_parity_even:
 10082                           	callstack 18
 10083                           
 10084                           ;incstack = 0
 10085                           ;i2calc_parity_even@data stored from wreg
 10086  003880  6E03               	movwf	i2calc_parity_even@data^0,c
 10087  003882                     
 10088                           ;MCAL/EUSART/mcal_EUSART.c: 650: static __attribute__((inline)) uint8_t calc_parity_even
      +                          (uint8_t data);MCAL/EUSART/mcal_EUSART.c: 651: {;MCAL/EUSART/mcal_EUSART.c: 653:     uin
      +                          t8_t number_of_ones = 0 ;
 10089  003882  0E00               	movlw	0
 10090  003884  6E04               	movwf	i2calc_parity_even@number_of_ones^0,c
 10091                           
 10092                           ;MCAL/EUSART/mcal_EUSART.c: 654:     uint8_t l_counter = 0 ;
 10093  003886  0E00               	movlw	0
 10094  003888  6E05               	movwf	i2calc_parity_even@l_counter^0,c
 10095                           
 10096                           ;MCAL/EUSART/mcal_EUSART.c: 667:     for(l_counter = 0 ; l_counter < 8 ; l_counter++ )
 10097  00388A  0E00               	movlw	0
 10098  00388C  6E05               	movwf	i2calc_parity_even@l_counter^0,c
 10099  00388E                     i2l4709:
 10100                           
 10101                           ;MCAL/EUSART/mcal_EUSART.c: 668:     {;MCAL/EUSART/mcal_EUSART.c: 669:         if( (data
      +                           & 0x01 << l_counter) != 0 )
 10102  00388E  C005  F001         	movff	i2calc_parity_even@l_counter,??i2_calc_parity_even
 10103  003892  0E01               	movlw	1
 10104  003894  6E02               	movwf	(??i2_calc_parity_even+1)^0,c
 10105  003896  2A01               	incf	??i2_calc_parity_even^0,f,c
 10106  003898  EF50  F01C         	goto	i2u423_44
 10107  00389C                     i2u423_45:
 10108  00389C  90D8               	bcf	status,0,c
 10109  00389E  3602               	rlcf	(??i2_calc_parity_even+1)^0,f,c
 10110  0038A0                     i2u423_44:
 10111  0038A0  2E01               	decfsz	??i2_calc_parity_even^0,f,c
 10112  0038A2  EF4E  F01C         	goto	i2u423_45
 10113  0038A6  5002               	movf	(??i2_calc_parity_even+1)^0,w,c
 10114  0038A8  1403               	andwf	i2calc_parity_even@data^0,w,c
 10115  0038AA  0900               	iorlw	0
 10116  0038AC  B4D8               	btfsc	status,2,c
 10117  0038AE  EF5B  F01C         	goto	i2u424_41
 10118  0038B2  EF5D  F01C         	goto	i2u424_40
 10119  0038B6                     i2u424_41:
 10120  0038B6  EF5E  F01C         	goto	i2l474
 10121  0038BA                     i2u424_40:
 10122  0038BA                     
 10123                           ;MCAL/EUSART/mcal_EUSART.c: 670:         {;MCAL/EUSART/mcal_EUSART.c: 671:             n
      +                          umber_of_ones++ ;
 10124  0038BA  2A04               	incf	i2calc_parity_even@number_of_ones^0,f,c
 10125  0038BC                     i2l474:
 10126                           
 10127                           ;MCAL/EUSART/mcal_EUSART.c: 673:     }
 10128  0038BC  2A05               	incf	i2calc_parity_even@l_counter^0,f,c
 10129  0038BE  0E07               	movlw	7
 10130  0038C0  6405               	cpfsgt	i2calc_parity_even@l_counter^0,c
 10131  0038C2  EF65  F01C         	goto	i2u425_41
 10132  0038C6  EF67  F01C         	goto	i2u425_40
 10133  0038CA                     i2u425_41:
 10134  0038CA  EF47  F01C         	goto	i2l4709
 10135  0038CE                     i2u425_40:
 10136  0038CE                     
 10137                           ;MCAL/EUSART/mcal_EUSART.c: 676:     number_of_ones++ ;
 10138  0038CE  2A04               	incf	i2calc_parity_even@number_of_ones^0,f,c
 10139  0038D0                     
 10140                           ;MCAL/EUSART/mcal_EUSART.c: 678:     if((number_of_ones % 2) != 0)
 10141  0038D0  A004               	btfss	i2calc_parity_even@number_of_ones^0,0,c
 10142  0038D2  EF6D  F01C         	goto	i2u426_41
 10143  0038D6  EF6F  F01C         	goto	i2u426_40
 10144  0038DA                     i2u426_41:
 10145  0038DA  EF72  F01C         	goto	i2l4723
 10146  0038DE                     i2u426_40:
 10147  0038DE                     
 10148                           ;MCAL/EUSART/mcal_EUSART.c: 679:     {;MCAL/EUSART/mcal_EUSART.c: 680:         return 1 
      +                          ;
 10149  0038DE  0E01               	movlw	1
 10150  0038E0  EF73  F01C         	goto	i2l476
 10151  0038E4                     i2l4723:
 10152                           
 10153                           ;MCAL/EUSART/mcal_EUSART.c: 682:     return 0 ;
 10154  0038E4  0E00               	movlw	0
 10155  0038E6                     i2l476:
 10156  0038E6  0012               	return		;funcret
 10157  0038E8                     __end_ofi2_calc_parity_even:
 10158                           	callstack 0
 10159                           
 10160                           	psect	text52
 10161  000000                     __ptext52:
 10162                           	callstack 0
 10163  000000                     
 10164                           	psect	rparam
 10165  0000                     
 10166                           	psect	temp
 10167  000056                     btemp:
 10168                           	callstack 0
 10169  000056                     	ds	1
 10170  0000                     int$flags	set	btemp
 10171  0000                     wtemp8	set	btemp+1
 10172  0000                     ttemp5	set	btemp+1
 10173  0000                     ttemp6	set	btemp+4
 10174  0000                     ttemp7	set	btemp+8
 10175                           
 10176                           	psect	idloc
 10177                           
 10178                           ;Config register IDLOC0 @ 0x200000
 10179                           ;	unspecified, using default values
 10180  200000                     	org	2097152
 10181  200000  FF                 	db	255
 10182                           
 10183                           ;Config register IDLOC1 @ 0x200001
 10184                           ;	unspecified, using default values
 10185  200001                     	org	2097153
 10186  200001  FF                 	db	255
 10187                           
 10188                           ;Config register IDLOC2 @ 0x200002
 10189                           ;	unspecified, using default values
 10190  200002                     	org	2097154
 10191  200002  FF                 	db	255
 10192                           
 10193                           ;Config register IDLOC3 @ 0x200003
 10194                           ;	unspecified, using default values
 10195  200003                     	org	2097155
 10196  200003  FF                 	db	255
 10197                           
 10198                           ;Config register IDLOC4 @ 0x200004
 10199                           ;	unspecified, using default values
 10200  200004                     	org	2097156
 10201  200004  FF                 	db	255
 10202                           
 10203                           ;Config register IDLOC5 @ 0x200005
 10204                           ;	unspecified, using default values
 10205  200005                     	org	2097157
 10206  200005  FF                 	db	255
 10207                           
 10208                           ;Config register IDLOC6 @ 0x200006
 10209                           ;	unspecified, using default values
 10210  200006                     	org	2097158
 10211  200006  FF                 	db	255
 10212                           
 10213                           ;Config register IDLOC7 @ 0x200007
 10214                           ;	unspecified, using default values
 10215  200007                     	org	2097159
 10216  200007  FF                 	db	255
 10217                           
 10218                           	psect	config
 10219                           
 10220                           ; Padding undefined space
 10221  300000                     	org	3145728
 10222  300000  FF                 	db	255
 10223                           
 10224                           ;Config register CONFIG1H @ 0x300001
 10225                           ;	Oscillator Selection bits
 10226                           ;	OSC = HS, HS oscillator
 10227                           ;	Fail-Safe Clock Monitor Enable bit
 10228                           ;	FCMEN = OFF, Fail-Safe Clock Monitor disabled
 10229                           ;	Internal/External Oscillator Switchover bit
 10230                           ;	IESO = OFF, Oscillator Switchover mode disabled
 10231  300001                     	org	3145729
 10232  300001  02                 	db	2
 10233                           
 10234                           ;Config register CONFIG2L @ 0x300002
 10235                           ;	Power-up Timer Enable bit
 10236                           ;	PWRT = OFF, PWRT disabled
 10237                           ;	Brown-out Reset Enable bits
 10238                           ;	BOREN = OFF, Brown-out Reset disabled in hardware and software
 10239                           ;	Brown Out Reset Voltage bits
 10240                           ;	BORV = 1, 
 10241  300002                     	org	3145730
 10242  300002  09                 	db	9
 10243                           
 10244                           ;Config register CONFIG2H @ 0x300003
 10245                           ;	Watchdog Timer Enable bit
 10246                           ;	WDT = OFF, WDT disabled (control is placed on the SWDTEN bit)
 10247                           ;	Watchdog Timer Postscale Select bits
 10248                           ;	WDTPS = 32768, 1:32768
 10249  300003                     	org	3145731
 10250  300003  1E                 	db	30
 10251                           
 10252                           ; Padding undefined space
 10253  300004                     	org	3145732
 10254  300004  FF                 	db	255
 10255                           
 10256                           ;Config register CONFIG3H @ 0x300005
 10257                           ;	CCP2 MUX bit
 10258                           ;	CCP2MX = PORTC, CCP2 input/output is multiplexed with RC1
 10259                           ;	PORTB A/D Enable bit
 10260                           ;	PBADEN = OFF, PORTB<4:0> pins are configured as digital I/O on Reset
 10261                           ;	Low-Power Timer1 Oscillator Enable bit
 10262                           ;	LPT1OSC = OFF, Timer1 configured for higher power operation
 10263                           ;	MCLR Pin Enable bit
 10264                           ;	MCLRE = ON, MCLR pin enabled; RE3 input pin disabled
 10265  300005                     	org	3145733
 10266  300005  81                 	db	129
 10267                           
 10268                           ;Config register CONFIG4L @ 0x300006
 10269                           ;	Stack Full/Underflow Reset Enable bit
 10270                           ;	STVREN = ON, Stack full/underflow will cause Reset
 10271                           ;	Single-Supply ICSP Enable bit
 10272                           ;	LVP = OFF, Single-Supply ICSP disabled
 10273                           ;	Extended Instruction Set Enable bit
 10274                           ;	XINST = OFF, Instruction set extension and Indexed Addressing mode disabled (Legacy mo
      +                          de)
 10275                           ;	Background Debugger Enable bit
 10276                           ;	DEBUG = 0x1, unprogrammed default
 10277  300006                     	org	3145734
 10278  300006  81                 	db	129
 10279                           
 10280                           ; Padding undefined space
 10281  300007                     	org	3145735
 10282  300007  FF                 	db	255
 10283                           
 10284                           ;Config register CONFIG5L @ 0x300008
 10285                           ;	Code Protection bit
 10286                           ;	CP0 = OFF, Block 0 (000800-003FFFh) not code-protected
 10287                           ;	Code Protection bit
 10288                           ;	CP1 = OFF, Block 1 (004000-007FFFh) not code-protected
 10289                           ;	Code Protection bit
 10290                           ;	CP2 = OFF, Block 2 (008000-00BFFFh) not code-protected
 10291                           ;	Code Protection bit
 10292                           ;	CP3 = OFF, Block 3 (00C000-00FFFFh) not code-protected
 10293  300008                     	org	3145736
 10294  300008  0F                 	db	15
 10295                           
 10296                           ;Config register CONFIG5H @ 0x300009
 10297                           ;	Boot Block Code Protection bit
 10298                           ;	CPB = OFF, Boot block (000000-0007FFh) not code-protected
 10299                           ;	Data EEPROM Code Protection bit
 10300                           ;	CPD = OFF, Data EEPROM not code-protected
 10301  300009                     	org	3145737
 10302  300009  C0                 	db	192
 10303                           
 10304                           ;Config register CONFIG6L @ 0x30000A
 10305                           ;	Write Protection bit
 10306                           ;	WRT0 = OFF, Block 0 (000800-003FFFh) not write-protected
 10307                           ;	Write Protection bit
 10308                           ;	WRT1 = OFF, Block 1 (004000-007FFFh) not write-protected
 10309                           ;	Write Protection bit
 10310                           ;	WRT2 = OFF, Block 2 (008000-00BFFFh) not write-protected
 10311                           ;	Write Protection bit
 10312                           ;	WRT3 = OFF, Block 3 (00C000-00FFFFh) not write-protected
 10313  30000A                     	org	3145738
 10314  30000A  0F                 	db	15
 10315                           
 10316                           ;Config register CONFIG6H @ 0x30000B
 10317                           ;	Configuration Register Write Protection bit
 10318                           ;	WRTC = OFF, Configuration registers (300000-3000FFh) not write-protected
 10319                           ;	Boot Block Write Protection bit
 10320                           ;	WRTB = OFF, Boot Block (000000-0007FFh) not write-protected
 10321                           ;	Data EEPROM Write Protection bit
 10322                           ;	WRTD = OFF, Data EEPROM not write-protected
 10323  30000B                     	org	3145739
 10324  30000B  E0                 	db	224
 10325                           
 10326                           ;Config register CONFIG7L @ 0x30000C
 10327                           ;	Table Read Protection bit
 10328                           ;	EBTR0 = OFF, Block 0 (000800-003FFFh) not protected from table reads executed in other
      +                           blocks
 10329                           ;	Table Read Protection bit
 10330                           ;	EBTR1 = OFF, Block 1 (004000-007FFFh) not protected from table reads executed in other
      +                           blocks
 10331                           ;	Table Read Protection bit
 10332                           ;	EBTR2 = OFF, Block 2 (008000-00BFFFh) not protected from table reads executed in other
      +                           blocks
 10333                           ;	Table Read Protection bit
 10334                           ;	EBTR3 = OFF, Block 3 (00C000-00FFFFh) not protected from table reads executed in other
      +                           blocks
 10335  30000C                     	org	3145740
 10336  30000C  0F                 	db	15
 10337                           
 10338                           ;Config register CONFIG7H @ 0x30000D
 10339                           ;	Boot Block Table Read Protection bit
 10340                           ;	EBTRB = OFF, Boot Block (000000-0007FFh) not protected from table reads executed in ot
      +                          her blocks
 10341  30000D                     	org	3145741
 10342  30000D  40                 	db	64
 10343                           tosu	equ	0xFFF
 10344                           tosh	equ	0xFFE
 10345                           tosl	equ	0xFFD
 10346                           stkptr	equ	0xFFC
 10347                           pclatu	equ	0xFFB
 10348                           pclath	equ	0xFFA
 10349                           pcl	equ	0xFF9
 10350                           tblptru	equ	0xFF8
 10351                           tblptrh	equ	0xFF7
 10352                           tblptrl	equ	0xFF6
 10353                           tablat	equ	0xFF5
 10354                           prodh	equ	0xFF4
 10355                           prodl	equ	0xFF3
 10356                           indf0	equ	0xFEF
 10357                           postinc0	equ	0xFEE
 10358                           postdec0	equ	0xFED
 10359                           preinc0	equ	0xFEC
 10360                           plusw0	equ	0xFEB
 10361                           fsr0h	equ	0xFEA
 10362                           fsr0l	equ	0xFE9
 10363                           wreg	equ	0xFE8
 10364                           indf1	equ	0xFE7
 10365                           postinc1	equ	0xFE6
 10366                           postdec1	equ	0xFE5
 10367                           preinc1	equ	0xFE4
 10368                           plusw1	equ	0xFE3
 10369                           fsr1h	equ	0xFE2
 10370                           fsr1l	equ	0xFE1
 10371                           bsr	equ	0xFE0
 10372                           indf2	equ	0xFDF
 10373                           postinc2	equ	0xFDE
 10374                           postdec2	equ	0xFDD
 10375                           preinc2	equ	0xFDC
 10376                           plusw2	equ	0xFDB
 10377                           fsr2h	equ	0xFDA
 10378                           fsr2l	equ	0xFD9
 10379                           status	equ	0xFD8

Data Sizes:
    Strings     222
    Constant    0
    Data        55
    BSS         70
    Persistent  0
    Stack       0

Auto Spaces:
    Space          Size  Autos    Used
    COMRAM          126     44      85
    BANK0           128     44     128
    BANK1           256     29      29
    BANK2           256      0       0
    BANK3           256      0       0
    BANK4           256      0       0
    BANK5           256      0       0
    BANK6           256      0       0
    BANK7           256      0       0
    BANK8           256      0       0
    BANK9           256      0       0
    BANK10          256      0       0
    BANK11          256      0       0
    BANK12          256      0       0
    BANK13          256      0       0
    BANK14          256      0       0
    BANK15          128      0       0

Pointer List with Targets:

    _uart_obj.ferr_InterruptHandler	PTR FTN()void  size(2) Largest target is 0
		 -> Absolute function(), 

    _uart_obj.oerr_InterruptHandler	PTR FTN()void  size(2) Largest target is 0
		 -> Absolute function(), 

    _uart_obj.rx_InterruptHandler	PTR FTN()void  size(2) Largest target is 0
		 -> usart_isr(), 

    vfprintf$2	PTR PTR void  size(2) Largest target is 2
		 -> sprintf@ap(COMRAM[2]), 

    vfprintf$1	PTR const unsigned char  size(2) Largest target is 3
		 -> STR_8(CODE[3]), STR_7(CODE[3]), STR_6(CODE[3]), STR_5(CODE[3]), 

    vfprintf$0	PTR struct _IO_FILE size(2) Largest target is 7
		 -> sprintf@f(COMRAM[6]), 

    S3513_IO_FILE$buffer	PTR unsigned char  size(2) Largest target is 6
		 -> convert_uint16_to_string@temp_string(COMRAM[6]), 

    f.buffer	PTR unsigned char  size(2) Largest target is 6
		 -> convert_uint16_to_string@temp_string(COMRAM[6]), 

    _uart_obj.rx_config.ferr_InterruptHandler	PTR FTN()void  size(2) Largest target is 1
		 -> Absolute function(), 

    _uart_obj.rx_config.oerr_InterruptHandler	PTR FTN()void  size(2) Largest target is 1
		 -> Absolute function(), 

    _uart_obj.rx_config.rx_InterruptHandler	PTR FTN()void  size(2) Largest target is 1
		 -> usart_isr(), 

    interrupt_RBx_set_callback@int_obj.Ext_Interrupt_Handler_Low	PTR FTN()void  size(2) Largest target is 0

    interrupt_RBx_set_callback@int_obj.Ext_Interrupt_Handler_High	PTR FTN()void  size(2) Largest target is 0

    interrupt_RBx_set_priority@int_obj.Ext_Interrupt_Handler_Low	PTR FTN()void  size(2) Largest target is 0

    interrupt_RBx_set_priority@int_obj.Ext_Interrupt_Handler_High	PTR FTN()void  size(2) Largest target is 0

    interrupt_RBx_pin_init@int_obj.Ext_Interrupt_Handler_Low	PTR FTN()void  size(2) Largest target is 0

    interrupt_RBx_pin_init@int_obj.Ext_Interrupt_Handler_High	PTR FTN()void  size(2) Largest target is 0

    interrupt_RBx_disable@int_obj.Ext_Interrupt_Handler_Low	PTR FTN()void  size(2) Largest target is 0

    interrupt_RBx_disable@int_obj.Ext_Interrupt_Handler_High	PTR FTN()void  size(2) Largest target is 0

    S2493$Ext_Interrupt_Handler_Low	PTR FTN()void  size(2) Largest target is 0

    interrupt_RBx_enable@int_obj.Ext_Interrupt_Handler_Low	PTR FTN()void  size(2) Largest target is 0

    S2493$Ext_Interrupt_Handler_High	PTR FTN()void  size(2) Largest target is 0

    interrupt_RBx_enable@int_obj.Ext_Interrupt_Handler_High	PTR FTN()void  size(2) Largest target is 0

    interrupt_INTx_set_callback@int_obj.Ext_Interrupt_Handler	PTR FTN()void  size(2) Largest target is 0

    interrupt_INTx_clear_flag@int_obj.Ext_Interrupt_Handler	PTR FTN()void  size(2) Largest target is 0

    interrupt_INTx_enable@int_obj.Ext_Interrupt_Handler	PTR FTN()void  size(2) Largest target is 0

    interrupt_INTx_disable@int_obj.Ext_Interrupt_Handler	PTR FTN()void  size(2) Largest target is 0

    interrupt_INTx_set_priority@int_obj.Ext_Interrupt_Handler	PTR FTN()void  size(2) Largest target is 0

    interrupt_INTx_set_edge@int_obj.Ext_Interrupt_Handler	PTR FTN()void  size(2) Largest target is 0

    S2446$Ext_Interrupt_Handler	PTR FTN()void  size(2) Largest target is 0

    interrupt_INTx_pin_init@int_obj.Ext_Interrupt_Handler	PTR FTN()void  size(2) Largest target is 0

    RB7_InterruptHandler_LOW	PTR FTN()void  size(2) Largest target is 1
		 -> Absolute function(), 

    RB7_InterruptHandler_HIGH	PTR FTN()void  size(2) Largest target is 1
		 -> Absolute function(), 

    RB6_InterruptHandler_LOW	PTR FTN()void  size(2) Largest target is 1
		 -> Absolute function(), 

    RB6_InterruptHandler_HIGH	PTR FTN()void  size(2) Largest target is 1
		 -> Absolute function(), 

    RB5_InterruptHandler_LOW	PTR FTN()void  size(2) Largest target is 1
		 -> Absolute function(), 

    RB5_InterruptHandler_HIGH	PTR FTN()void  size(2) Largest target is 1
		 -> Absolute function(), 

    RB4_InterruptHandler_LOW	PTR FTN()void  size(2) Largest target is 1
		 -> Absolute function(), 

    RB4_InterruptHandler_HIGH	PTR FTN()void  size(2) Largest target is 1
		 -> Absolute function(), 

    INT2_InterruptHandler	PTR FTN()void  size(2) Largest target is 1
		 -> Absolute function(), 

    INT1_InterruptHandler	PTR FTN()void  size(2) Largest target is 1
		 -> Absolute function(), 

    INT0_InterruptHandler	PTR FTN()void  size(2) Largest target is 1
		 -> Absolute function(), 

    I2C_Report_Receive_Overflow	PTR FTN()void  size(2) Largest target is 1
		 -> Absolute function(), 

    I2C_Interrupt_configuration@i2c_obj.I2C_Report_Receive_Overflow	PTR FTN()void  size(2) Largest target is 0

    I2C_Interrupt_configuration@i2c_obj.I2C_DefaultInterruptHandler	PTR FTN()void  size(2) Largest target is 0

    I2C_Interrupt_configuration@i2c_obj.I2C_Report_Write_Collision	PTR FTN()void  size(2) Largest target is 0

    I2C_Slave_Mode_Clock_Configurations@i2c_obj.I2C_Report_Receive_Overflow	PTR FTN()void  size(2) Largest target is 0

    I2C_Slave_Mode_Clock_Configurations@i2c_obj.I2C_DefaultInterruptHandler	PTR FTN()void  size(2) Largest target is 0

    I2C_Slave_Mode_Clock_Configurations@i2c_obj.I2C_Report_Write_Collision	PTR FTN()void  size(2) Largest target is 0

    I2C_Master_Mode_Clock_Configurations@i2c_obj.I2C_Report_Receive_Overflow	PTR FTN()void  size(2) Largest target is 0

    I2C_Master_Mode_Clock_Configurations@i2c_obj.I2C_DefaultInterruptHandler	PTR FTN()void  size(2) Largest target is 0

    I2C_Master_Mode_Clock_Configurations@i2c_obj.I2C_Report_Write_Collision	PTR FTN()void  size(2) Largest target is 0

    I2C_Report_Write_Collision	PTR FTN()void  size(2) Largest target is 1
		 -> Absolute function(), 

    I2C_DefaultInterruptHandler	PTR FTN()void  size(2) Largest target is 1
		 -> Absolute function(), 

    S453$I2C_Report_Receive_Overflow	PTR FTN()void  size(2) Largest target is 0

    MSSP_I2C_Init@i2c_obj.I2C_Report_Receive_Overflow	PTR FTN()void  size(2) Largest target is 0

    S453$I2C_DefaultInterruptHandler	PTR FTN()void  size(2) Largest target is 0

    MSSP_I2C_Init@i2c_obj.I2C_DefaultInterruptHandler	PTR FTN()void  size(2) Largest target is 0

    S453$I2C_Report_Write_Collision	PTR FTN()void  size(2) Largest target is 0

    MSSP_I2C_Init@i2c_obj.I2C_Report_Write_Collision	PTR FTN()void  size(2) Largest target is 0

    GPIO_Pin_Initialize@_pin_config	PTR const struct . size(2) Largest target is 6
		 -> selector(COMRAM[1]), pind2(COMRAM[1]), pind1(COMRAM[1]), lcd1.lcd_data_pins(COMRAM[4]), 
		 -> lcd1(COMRAM[6]), 

    GPIO_Pin_Toggle_Logic@_pin_config	PTR const struct . size(2) Largest target is 1
		 -> pind2(COMRAM[1]), pind1(COMRAM[1]), 

    GPIO_Pin_Write_Logic@_pin_config	PTR const struct . size(2) Largest target is 6
		 -> selector(COMRAM[1]), pind2(COMRAM[1]), pind1(COMRAM[1]), lcd1.lcd_data_pins(COMRAM[4]), 
		 -> lcd1(COMRAM[6]), 

    GPIO_Pin_Direction_Initialize@_pin_config	PTR const struct . size(2) Largest target is 6
		 -> selector(COMRAM[1]), pind2(COMRAM[1]), pind1(COMRAM[1]), lcd1.lcd_data_pins(COMRAM[4]), 
		 -> lcd1(COMRAM[6]), 

    port_registers	PTR volatile unsigned char [5] size(2) Largest target is 1
		 -> PORTE(SFR[1]), PORTD(SFR[1]), PORTC(SFR[1]), PORTB(SFR[1]), 
		 -> PORTA(SFR[1]), 

    lat_registers	PTR volatile unsigned char [5] size(2) Largest target is 1
		 -> LATE(SFR[1]), LATD(SFR[1]), LATC(SFR[1]), LATB(SFR[1]), 
		 -> LATA(SFR[1]), 

    tris_registers	PTR volatile unsigned char [5] size(2) Largest target is 1
		 -> TRISE(SFR[1]), TRISD(SFR[1]), TRISC(SFR[1]), TRISB(SFR[1]), 
		 -> TRISA(SFR[1]), 

    async_config_baud_rate_gen@_eusart_obj.rx_config.ferr_InterruptHandler	PTR FTN()void  size(2) Largest target is 1
		 -> Absolute function(), 

    async_config_baud_rate_gen@_eusart_obj.rx_config.oerr_InterruptHandler	PTR FTN()void  size(2) Largest target is 1
		 -> Absolute function(), 

    async_config_baud_rate_gen@_eusart_obj.rx_config.rx_InterruptHandler	PTR FTN()void  size(2) Largest target is 1
		 -> usart_isr(), 

    async_config_baud_rate_gen@_eusart_obj	PTR const struct . size(2) Largest target is 12
		 -> _uart_obj(BANK0[12]), 

    Rx_config_interrupt@_rx_obj.ferr_InterruptHandler	PTR FTN()void  size(2) Largest target is 1
		 -> Absolute function(), 

    Rx_config_interrupt@_rx_obj.oerr_InterruptHandler	PTR FTN()void  size(2) Largest target is 1
		 -> Absolute function(), 

    Rx_config_interrupt@_rx_obj.rx_InterruptHandler	PTR FTN()void  size(2) Largest target is 1
		 -> usart_isr(), 

    eusart_Rx_InterruptHandler	PTR FTN()void  size(2) Largest target is 1
		 -> usart_isr(), Absolute function(), 

    Rx_config_interrupt@_rx_obj	PTR const struct . size(2) Largest target is 12
		 -> _uart_obj(BANK0[12]), 

    async_Rx_config@_rx_obj.ferr_InterruptHandler	PTR FTN()void  size(2) Largest target is 1
		 -> Absolute function(), 

    async_Rx_config@_rx_obj.oerr_InterruptHandler	PTR FTN()void  size(2) Largest target is 1
		 -> Absolute function(), 

    async_Rx_config@_rx_obj.rx_InterruptHandler	PTR FTN()void  size(2) Largest target is 1
		 -> usart_isr(), 

    async_Rx_config@_rx_obj	PTR const struct . size(2) Largest target is 12
		 -> _uart_obj(BANK0[12]), 

    async_Tx_config@_tx_obj	PTR const struct . size(2) Largest target is 12
		 -> _uart_obj(BANK0[12]), 

    EUSART_Async_Read_Data_Blocking@data	PTR unsigned short  size(2) Largest target is 13
		 -> longtude(BANK0[13]), latitude(BANK0[13]), gpstemp(COMRAM[1]), 

    EUSART_Async_Read_Data_Blocking@_eusart_obj	PTR const struct . size(2) Largest target is 12
		 -> _uart_obj(BANK0[12]), 

    eusart_frameerr_CallBack	PTR FTN()void  size(2) Largest target is 1
		 -> Absolute function(), 

    eusart_overrunerr_CallBack	PTR FTN()void  size(2) Largest target is 1
		 -> Absolute function(), 

    EUSART_Async_Read_Data@_eusart_obj.rx_config.ferr_InterruptHandler	PTR FTN()void  size(2) Largest target is 1
		 -> Absolute function(), 

    EUSART_Async_Read_Data@_eusart_obj.rx_config.oerr_InterruptHandler	PTR FTN()void  size(2) Largest target is 1
		 -> Absolute function(), 

    EUSART_Async_Read_Data@_eusart_obj.rx_config.rx_InterruptHandler	PTR FTN()void  size(2) Largest target is 1
		 -> usart_isr(), 

    EUSART_Async_Read_Data@data	PTR unsigned short  size(2) Largest target is 13
		 -> longtude(BANK0[13]), latitude(BANK0[13]), gpstemp(COMRAM[1]), datarecive(COMRAM[1]), 

    EUSART_Async_Read_Data@_eusart_obj	PTR const struct . size(2) Largest target is 12
		 -> _uart_obj(BANK0[12]), 

    EUSART_Async_Transmit_Data@_eusart_obj.rx_config.ferr_InterruptHandler	PTR FTN()void  size(2) Largest target is 1
		 -> Absolute function(), 

    EUSART_Async_Transmit_Data@_eusart_obj.rx_config.oerr_InterruptHandler	PTR FTN()void  size(2) Largest target is 1
		 -> Absolute function(), 

    EUSART_Async_Transmit_Data@_eusart_obj.rx_config.rx_InterruptHandler	PTR FTN()void  size(2) Largest target is 1
		 -> usart_isr(), 

    EUSART_Async_Transmit_Data@_eusart_obj	PTR const struct . size(2) Largest target is 12
		 -> _uart_obj(BANK0[12]), 

    EUSART_Async_Init@_eusart_obj.rx_config.ferr_InterruptHandler	PTR FTN()void  size(2) Largest target is 1
		 -> Absolute function(), 

    EUSART_Async_Init@_eusart_obj.rx_config.oerr_InterruptHandler	PTR FTN()void  size(2) Largest target is 1
		 -> Absolute function(), 

    EUSART_Async_Init@_eusart_obj.rx_config.rx_InterruptHandler	PTR FTN()void  size(2) Largest target is 1
		 -> usart_isr(), 

    EUSART_Async_Init@_eusart_obj	PTR const struct . size(2) Largest target is 12
		 -> _uart_obj(BANK0[12]), 

    lcd_4bits_set_courser@lcd	PTR const struct . size(2) Largest target is 6
		 -> lcd1(COMRAM[6]), 

    lcd_send_4bits@lcd	PTR const struct . size(2) Largest target is 6
		 -> lcd1(COMRAM[6]), 

    lcd_4bits_send_enable_signal@lcd	PTR const struct . size(2) Largest target is 6
		 -> lcd1(COMRAM[6]), 

    sp__memset	PTR void  size(2) Largest target is 0

    lcd_4bit_send_string_data_pos@str	PTR unsigned char  size(2) Largest target is 16
		 -> STR_35(CODE[15]), STR_34(CODE[15]), longtude(BANK0[13]), latitude(BANK0[13]), 
		 -> STR_33(CODE[13]), STR_32(CODE[15]), STR_31(CODE[4]), STR_30(CODE[15]), 
		 -> STR_29(CODE[13]), STR_28(CODE[15]), STR_27(CODE[16]), STR_26(CODE[15]), 
		 -> STR_25(CODE[10]), STR_24(CODE[15]), STR_23(CODE[15]), STR_22(CODE[15]), 
		 -> STR_21(CODE[12]), STR_20(CODE[15]), STR_19(CODE[11]), STR_18(CODE[15]), 
		 -> STR_17(CODE[15]), STR_16(CODE[15]), STR_15(CODE[10]), STR_14(CODE[15]), 
		 -> STR_13(CODE[14]), STR_12(CODE[15]), STR_11(CODE[9]), STR_10(CODE[15]), 
		 -> STR_9(CODE[4]), 

    lcd_4bit_send_string_data_pos@lcd	PTR const struct . size(2) Largest target is 6
		 -> lcd1(COMRAM[6]), 

    lcd_4bit_send_char_data_pos@lcd	PTR const struct . size(2) Largest target is 6
		 -> lcd1(COMRAM[6]), 

    lcd_4bit_send_char_data@lcd	PTR const struct . size(2) Largest target is 6
		 -> lcd1(COMRAM[6]), 

    lcd_4bit_send_command@lcd	PTR const struct . size(2) Largest target is 6
		 -> lcd1(COMRAM[6]), 

    lcd_4bit_initialize@lcd	PTR const struct . size(2) Largest target is 6
		 -> lcd1(COMRAM[6]), 

    Bluetooth_Send_Data_Non_Blocking@_uart_obj	PTR const struct . size(2) Largest target is 12
		 -> _uart_obj(BANK0[12]), 

    S32$ferr_InterruptHandler	PTR FTN()void  size(2) Largest target is 1
		 -> Absolute function(), 

    Bluetooth_Init@_uart_obj.rx_config.ferr_InterruptHandler	PTR FTN()void  size(2) Largest target is 1
		 -> Absolute function(), 

    S32$oerr_InterruptHandler	PTR FTN()void  size(2) Largest target is 1
		 -> Absolute function(), 

    Bluetooth_Init@_uart_obj.rx_config.oerr_InterruptHandler	PTR FTN()void  size(2) Largest target is 1
		 -> Absolute function(), 

    S32$rx_InterruptHandler	PTR FTN()void  size(2) Largest target is 1
		 -> usart_isr(), 

    Bluetooth_Init@_uart_obj.rx_config.rx_InterruptHandler	PTR FTN()void  size(2) Largest target is 1
		 -> usart_isr(), 


Critical Paths under _main in COMRAM

    _main->_GPIO_Pin_Toggle_Logic
    _GPIO_Pin_Initialize->_GPIO_Pin_Direction_Initialize
    _GPIO_Pin_Initialize->_GPIO_Pin_Write_Logic
    _EUSART_Async_Init->_async_Tx_config
    _async_config_baud_rate_gen->___fltol
    _async_Rx_config->_Rx_config_interrupt
    _GPS_Service->_EUSART_Async_Read_Data_Blocking
    _GPS_Service->_GPIO_Pin_Write_Logic
    _lcd_4bit_send_command->_GPIO_Pin_Write_Logic
    _lcd_4bit_send_char_data->_GPIO_Pin_Write_Logic
    _lcd_send_4bits->_GPIO_Pin_Write_Logic
    _lcd_4bits_send_enable_signal->_GPIO_Pin_Write_Logic
    _EUSART_Async_Read_Data->_calc_parity_even
    _EUSART_Async_Read_Data->_calc_parity_odd

Critical Paths under _InterruptManagerLow in COMRAM

    _InterruptManagerLow->_RB4_ISR
    _InterruptManagerLow->_RB5_ISR
    _InterruptManagerLow->_RB6_ISR
    _InterruptManagerLow->_RB7_ISR

Critical Paths under _InterruptManagerHigh in COMRAM

    _usart_isr->_lcd_4bit_send_char_data_pos
    i2_EUSART_Async_Read_Data->i2_calc_parity_even
    i2_EUSART_Async_Read_Data->i2_calc_parity_odd
    _lcd_4bit_send_char_data_pos->i2_lcd_4bits_set_courser
    i2_lcd_4bits_set_courser->i2_lcd_4bit_send_command
    i2_lcd_4bit_send_command->i2_lcd_send_4bits
    i2_lcd_4bit_send_char_data->i2_lcd_send_4bits
    i2_lcd_send_4bits->i2_GPIO_Pin_Write_Logic
    i2_lcd_4bits_send_enable_signal->i2_GPIO_Pin_Write_Logic
    _Bluetooth_Send_Data_Non_Blocking->_EUSART_Async_Transmit_Data
    _EUSART_Async_Transmit_Data->i2_calc_parity_even
    _EUSART_Async_Transmit_Data->i2_calc_parity_odd

Critical Paths under _main in BANK0

    _application_intialize->_EUSART_Async_Init
    _lcd_4bit_initialize->_lcd_4bit_send_command
    _GPIO_Pin_Initialize->_GPIO_Pin_Write_Logic
    _async_config_baud_rate_gen->___fladd
    ___fldiv->___xxtofl
    ___fladd->___fldiv
    _GPS_Service->_lcd_4bit_send_string_data_pos
    _lcd_4bit_send_string_data_pos->_lcd_4bits_set_courser
    _lcd_4bits_set_courser->_lcd_4bit_send_command
    _lcd_4bit_send_command->_lcd_send_4bits
    _lcd_4bit_send_char_data->_lcd_send_4bits
    _lcd_send_4bits->_GPIO_Pin_Write_Logic
    _lcd_4bits_send_enable_signal->_GPIO_Pin_Write_Logic
    _EUSART_Async_Read_Data_Blocking->_EUSART_Async_Read_Data
    _EUSART_Async_Read_Data->_calc_parity_even
    _EUSART_Async_Read_Data->_calc_parity_odd

Critical Paths under _InterruptManagerLow in BANK0

    None.

Critical Paths under _InterruptManagerHigh in BANK0

    None.

Critical Paths under _main in BANK1

    _application_intialize->_EUSART_Async_Init
    _EUSART_Async_Init->_async_config_baud_rate_gen
    _async_config_baud_rate_gen->___fladd

Critical Paths under _InterruptManagerLow in BANK1

    None.

Critical Paths under _InterruptManagerHigh in BANK1

    None.

Critical Paths under _main in BANK2

    None.

Critical Paths under _InterruptManagerLow in BANK2

    None.

Critical Paths under _InterruptManagerHigh in BANK2

    None.

Critical Paths under _main in BANK3

    None.

Critical Paths under _InterruptManagerLow in BANK3

    None.

Critical Paths under _InterruptManagerHigh in BANK3

    None.

Critical Paths under _main in BANK4

    None.

Critical Paths under _InterruptManagerLow in BANK4

    None.

Critical Paths under _InterruptManagerHigh in BANK4

    None.

Critical Paths under _main in BANK5

    None.

Critical Paths under _InterruptManagerLow in BANK5

    None.

Critical Paths under _InterruptManagerHigh in BANK5

    None.

Critical Paths under _main in BANK6

    None.

Critical Paths under _InterruptManagerLow in BANK6

    None.

Critical Paths under _InterruptManagerHigh in BANK6

    None.

Critical Paths under _main in BANK7

    None.

Critical Paths under _InterruptManagerLow in BANK7

    None.

Critical Paths under _InterruptManagerHigh in BANK7

    None.

Critical Paths under _main in BANK8

    None.

Critical Paths under _InterruptManagerLow in BANK8

    None.

Critical Paths under _InterruptManagerHigh in BANK8

    None.

Critical Paths under _main in BANK9

    None.

Critical Paths under _InterruptManagerLow in BANK9

    None.

Critical Paths under _InterruptManagerHigh in BANK9

    None.

Critical Paths under _main in BANK10

    None.

Critical Paths under _InterruptManagerLow in BANK10

    None.

Critical Paths under _InterruptManagerHigh in BANK10

    None.

Critical Paths under _main in BANK11

    None.

Critical Paths under _InterruptManagerLow in BANK11

    None.

Critical Paths under _InterruptManagerHigh in BANK11

    None.

Critical Paths under _main in BANK12

    None.

Critical Paths under _InterruptManagerLow in BANK12

    None.

Critical Paths under _InterruptManagerHigh in BANK12

    None.

Critical Paths under _main in BANK13

    None.

Critical Paths under _InterruptManagerLow in BANK13

    None.

Critical Paths under _InterruptManagerHigh in BANK13

    None.

Critical Paths under _main in BANK14

    None.

Critical Paths under _InterruptManagerLow in BANK14

    None.

Critical Paths under _InterruptManagerHigh in BANK14

    None.

Critical Paths under _main in BANK15

    None.

Critical Paths under _InterruptManagerLow in BANK15

    None.

Critical Paths under _InterruptManagerHigh in BANK15

    None.

Call Graph Tables:

 ---------------------------------------------------------------------------------
 (Depth) Function   	        Calls       Base Space   Used Autos Params    Refs
 ---------------------------------------------------------------------------------
 (0) _main                                                 2     2      0  117102
                                             27 BANK1      2     2      0
              _GPIO_Pin_Toggle_Logic
                        _GPS_Service
              _application_intialize
      _lcd_4bit_send_string_data_pos
 ---------------------------------------------------------------------------------
 (1) _application_intialize                                0     0      0   34817
                  _EUSART_Async_Init
                _GPIO_Pin_Initialize
                _lcd_4bit_initialize
 ---------------------------------------------------------------------------------
 (2) _lcd_4bit_initialize                                  6     4      2   19612
                                             15 BANK0      6     4      2
                _GPIO_Pin_Initialize
              _lcd_4bit_send_command
 ---------------------------------------------------------------------------------
 (3) _GPIO_Pin_Initialize                                  3     1      2    4731
                                              7 BANK0      3     1      2
      _GPIO_Pin_Direction_Initialize
               _GPIO_Pin_Write_Logic
 ---------------------------------------------------------------------------------
 (4) _GPIO_Pin_Direction_Initialize                        9     7      2     437
                                             41 COMRAM     3     1      2
                                              0 BANK0      6     6      0
 ---------------------------------------------------------------------------------
 (2) _EUSART_Async_Init                                    3     1      2   10474
                                             43 BANK0      1     1      0
                                             25 BANK1      2     0      2
                    _async_Rx_config
                    _async_Tx_config
         _async_config_baud_rate_gen
 ---------------------------------------------------------------------------------
 (3) _async_config_baud_rate_gen                          13    11      2    9147
                                             12 BANK1     13    11      2
                            ___fladd
                            ___fldiv
                            ___fltol
                           ___xxtofl
 ---------------------------------------------------------------------------------
 (4) ___xxtofl                                            14    10      4     896
                                              0 BANK0     14    10      4
 ---------------------------------------------------------------------------------
 (4) ___fltol                                             10     6      4     697
                                             41 COMRAM     2     2      0
                                              0 BANK0      8     4      4
 ---------------------------------------------------------------------------------
 (4) ___fldiv                                             25    17      8    2963
                                             14 BANK0     25    17      8
                           ___xxtofl (ARG)
 ---------------------------------------------------------------------------------
 (4) ___fladd                                             16     8      8    4062
                                             39 BANK0      4     4      0
                                              0 BANK1     12     4      8
                            ___fldiv (ARG)
                           ___xxtofl (ARG)
 ---------------------------------------------------------------------------------
 (3) _async_Tx_config                                      3     1      2     282
                                             41 COMRAM     3     1      2
 ---------------------------------------------------------------------------------
 (3) _async_Rx_config                                      3     1      2     629
                                              0 BANK0      3     1      2
                _Rx_config_interrupt
 ---------------------------------------------------------------------------------
 (4) _Rx_config_interrupt                                  3     1      2     313
                                             41 COMRAM     3     1      2
 ---------------------------------------------------------------------------------
 (1) _GPS_Service                                          3     3      0   43989
                                             29 BANK0      3     3      0
    _EUSART_Async_Read_Data_Blocking
               _GPIO_Pin_Write_Logic
      _lcd_4bit_send_string_data_pos
 ---------------------------------------------------------------------------------
 (1) _lcd_4bit_send_string_data_pos                        7     1      6   38045
                                             22 BANK0      7     1      6
            _lcd_4bit_send_char_data
              _lcd_4bits_set_courser
 ---------------------------------------------------------------------------------
 (2) _lcd_4bits_set_courser                                7     3      4   14998
                                             15 BANK0      7     3      4
              _lcd_4bit_send_command
 ---------------------------------------------------------------------------------
 (3) _lcd_4bit_send_command                                4     1      3   14237
                                             11 BANK0      4     1      3
               _GPIO_Pin_Write_Logic
       _lcd_4bits_send_enable_signal
                     _lcd_send_4bits
 ---------------------------------------------------------------------------------
 (2) _lcd_4bit_send_char_data                              4     1      3   12343
                                             11 BANK0      4     1      3
               _GPIO_Pin_Write_Logic
       _lcd_4bits_send_enable_signal
                     _lcd_send_4bits
 ---------------------------------------------------------------------------------
 (4) _lcd_send_4bits                                       4     1      3    4329
                                              7 BANK0      4     1      3
               _GPIO_Pin_Write_Logic
 ---------------------------------------------------------------------------------
 (4) _lcd_4bits_send_enable_signal                         3     1      2    3783
                                              7 BANK0      3     1      2
               _GPIO_Pin_Write_Logic
 ---------------------------------------------------------------------------------
 (5) _GPIO_Pin_Write_Logic                                10     7      3    3317
                                             41 COMRAM     3     0      3
                                              0 BANK0      7     7      0
 ---------------------------------------------------------------------------------
 (2) _EUSART_Async_Read_Data_Blocking                      5     1      4    2559
                                             43 COMRAM     1     1      0
                                             18 BANK0      4     0      4
             _EUSART_Async_Read_Data
 ---------------------------------------------------------------------------------
 (3) _EUSART_Async_Read_Data                              15    11      4    1522
                                              3 BANK0     15    11      4
                   _calc_parity_even
                    _calc_parity_odd
 ---------------------------------------------------------------------------------
 (4) _calc_parity_odd                                      5     5      0     173
                                             41 COMRAM     2     2      0
                                              0 BANK0      3     3      0
 ---------------------------------------------------------------------------------
 (4) _calc_parity_even                                     5     5      0     173
                                             41 COMRAM     2     2      0
                                              0 BANK0      3     3      0
 ---------------------------------------------------------------------------------
 (1) _GPIO_Pin_Toggle_Logic                                8     6      2     251
                                             41 COMRAM     3     1      2
                                              0 BANK0      5     5      0
 ---------------------------------------------------------------------------------
 Estimated maximum stack depth 5
 ---------------------------------------------------------------------------------
 (Depth) Function   	        Calls       Base Space   Used Autos Params    Refs
 ---------------------------------------------------------------------------------
 (7) _InterruptManagerLow                                  3     3      0     120
                                             38 COMRAM     3     3      0
                           _INT1_ISR
                            _RB4_ISR
                            _RB5_ISR
                            _RB6_ISR
                            _RB7_ISR
 ---------------------------------------------------------------------------------
 (8) _RB7_ISR                                              1     1      0      30
                                             37 COMRAM     1     1      0
 ---------------------------------------------------------------------------------
 (8) _RB6_ISR                                              1     1      0      30
                                             37 COMRAM     1     1      0
 ---------------------------------------------------------------------------------
 (8) _RB5_ISR                                              1     1      0      30
                                             37 COMRAM     1     1      0
 ---------------------------------------------------------------------------------
 (8) _RB4_ISR                                              1     1      0      30
                                             37 COMRAM     1     1      0
 ---------------------------------------------------------------------------------
 (8) _INT1_ISR                                             0     0      0       0
 ---------------------------------------------------------------------------------
 Estimated maximum stack depth 8
 ---------------------------------------------------------------------------------
 (Depth) Function   	        Calls       Base Space   Used Autos Params    Refs
 ---------------------------------------------------------------------------------
 (9) _InterruptManagerHigh                                 6     6      0    8275
                                             31 COMRAM     6     6      0
                      _EUSART_Rx_ISR
                      _EUSART_Tx_ISR
                           _INT0_ISR
                           _INT2_ISR
 ---------------------------------------------------------------------------------
 (10) _INT2_ISR                                            0     0      0       0
 ---------------------------------------------------------------------------------
 (10) _INT0_ISR                                            0     0      0       0
 ---------------------------------------------------------------------------------
 (10) _EUSART_Tx_ISR                                       0     0      0       0
 ---------------------------------------------------------------------------------
 (10) _EUSART_Rx_ISR                                       0     0      0    8275
                   Absolute function *
                          _usart_isr *
 ---------------------------------------------------------------------------------
 (11) _usart_isr                                           0     0      0    8275
   _Bluetooth_Send_Data_Non_Blocking
        _lcd_4bit_send_char_data_pos
           i2_EUSART_Async_Read_Data
            i2_GPIO_Pin_Toggle_Logic
 ---------------------------------------------------------------------------------
 (12) i2_GPIO_Pin_Toggle_Logic                             8     6      2     100
                                              0 COMRAM     8     6      2
 ---------------------------------------------------------------------------------
 (12) i2_EUSART_Async_Read_Data                           15    11      4     768
                                              5 COMRAM    15    11      4
                 i2_calc_parity_even
                  i2_calc_parity_odd
 ---------------------------------------------------------------------------------
 (12) _lcd_4bit_send_char_data_pos                         6     1      5    6439
                                             25 COMRAM     6     1      5
          i2_lcd_4bit_send_char_data
            i2_lcd_4bits_set_courser
 ---------------------------------------------------------------------------------
 (13) i2_lcd_4bits_set_courser                             7     3      4    3077
                                             18 COMRAM     7     3      4
            i2_lcd_4bit_send_command
 ---------------------------------------------------------------------------------
 (14) i2_lcd_4bit_send_command                             4     1      3    2770
                                             14 COMRAM     4     1      3
             i2_GPIO_Pin_Write_Logic
     i2_lcd_4bits_send_enable_signal
                   i2_lcd_send_4bits
 ---------------------------------------------------------------------------------
 (13) i2_lcd_4bit_send_char_data                           4     1      3    2614
                                             14 COMRAM     4     1      3
             i2_GPIO_Pin_Write_Logic
     i2_lcd_4bits_send_enable_signal
                   i2_lcd_send_4bits
 ---------------------------------------------------------------------------------
 (15) i2_lcd_send_4bits                                    4     1      3    1009
                                             10 COMRAM     4     1      3
             i2_GPIO_Pin_Write_Logic
 ---------------------------------------------------------------------------------
 (15) i2_lcd_4bits_send_enable_signal                      3     1      2     773
                                             10 COMRAM     3     1      2
             i2_GPIO_Pin_Write_Logic
 ---------------------------------------------------------------------------------
 (16) i2_GPIO_Pin_Write_Logic                             10     7      3     595
                                              0 COMRAM    10     7      3
 ---------------------------------------------------------------------------------
 (12) _Bluetooth_Send_Data_Non_Blocking                    4     1      3     968
                                             12 COMRAM     4     1      3
         _EUSART_Async_Transmit_Data
 ---------------------------------------------------------------------------------
 (13) _EUSART_Async_Transmit_Data                          7     3      4     742
                                              5 COMRAM     7     3      4
                 i2_calc_parity_even
                  i2_calc_parity_odd
 ---------------------------------------------------------------------------------
 (13) i2_calc_parity_odd                                   5     5      0     116
                                              0 COMRAM     5     5      0
 ---------------------------------------------------------------------------------
 (13) i2_calc_parity_even                                  5     5      0     116
                                              0 COMRAM     5     5      0
 ---------------------------------------------------------------------------------
 (11) Absolute function(Fake)                              0     0      0       0
 ---------------------------------------------------------------------------------
 Estimated maximum stack depth 16
 ---------------------------------------------------------------------------------

 Call Graph Graphs:

 _main (ROOT)
   _GPIO_Pin_Toggle_Logic
   _GPS_Service
     _EUSART_Async_Read_Data_Blocking
       _EUSART_Async_Read_Data
         _calc_parity_even
         _calc_parity_odd
     _GPIO_Pin_Write_Logic
     _lcd_4bit_send_string_data_pos
       _lcd_4bit_send_char_data
         _GPIO_Pin_Write_Logic
         _lcd_4bits_send_enable_signal
           _GPIO_Pin_Write_Logic
         _lcd_send_4bits
           _GPIO_Pin_Write_Logic
       _lcd_4bits_set_courser
         _lcd_4bit_send_command
           _GPIO_Pin_Write_Logic
           _lcd_4bits_send_enable_signal
             _GPIO_Pin_Write_Logic
           _lcd_send_4bits
             _GPIO_Pin_Write_Logic
   _application_intialize
     _EUSART_Async_Init
       _async_Rx_config
         _Rx_config_interrupt
       _async_Tx_config
       _async_config_baud_rate_gen
         ___fladd
           ___fldiv (ARG)
             ___xxtofl (ARG)
           ___xxtofl (ARG)
         ___fldiv
           ___xxtofl (ARG)
         ___fltol
         ___xxtofl
     _GPIO_Pin_Initialize
       _GPIO_Pin_Direction_Initialize
       _GPIO_Pin_Write_Logic
     _lcd_4bit_initialize
       _GPIO_Pin_Initialize
         _GPIO_Pin_Direction_Initialize
         _GPIO_Pin_Write_Logic
       _lcd_4bit_send_command
         _GPIO_Pin_Write_Logic
         _lcd_4bits_send_enable_signal
           _GPIO_Pin_Write_Logic
         _lcd_send_4bits
           _GPIO_Pin_Write_Logic
   _lcd_4bit_send_string_data_pos
     _lcd_4bit_send_char_data
       _GPIO_Pin_Write_Logic
       _lcd_4bits_send_enable_signal
         _GPIO_Pin_Write_Logic
       _lcd_send_4bits
         _GPIO_Pin_Write_Logic
     _lcd_4bits_set_courser
       _lcd_4bit_send_command
         _GPIO_Pin_Write_Logic
         _lcd_4bits_send_enable_signal
           _GPIO_Pin_Write_Logic
         _lcd_send_4bits
           _GPIO_Pin_Write_Logic

 _InterruptManagerLow (ROOT)
   _INT1_ISR
   _RB4_ISR
   _RB5_ISR
   _RB6_ISR
   _RB7_ISR

 _InterruptManagerHigh (ROOT)
   _EUSART_Rx_ISR
     Absolute function(Fake) *
     _usart_isr *
       _Bluetooth_Send_Data_Non_Blocking
         _EUSART_Async_Transmit_Data
           i2_calc_parity_even
           i2_calc_parity_odd
       _lcd_4bit_send_char_data_pos
         i2_lcd_4bit_send_char_data
           i2_GPIO_Pin_Write_Logic
           i2_lcd_4bits_send_enable_signal
             i2_GPIO_Pin_Write_Logic
           i2_lcd_send_4bits
             i2_GPIO_Pin_Write_Logic
         i2_lcd_4bits_set_courser
           i2_lcd_4bit_send_command
             i2_GPIO_Pin_Write_Logic
             i2_lcd_4bits_send_enable_signal
               i2_GPIO_Pin_Write_Logic
             i2_lcd_send_4bits
               i2_GPIO_Pin_Write_Logic
       i2_EUSART_Async_Read_Data
         i2_calc_parity_even
         i2_calc_parity_odd
       i2_GPIO_Pin_Toggle_Logic
   _EUSART_Tx_ISR
   _INT0_ISR
   _INT2_ISR

 Address spaces:
Name               Size   Autos  Total    Cost      Usage
BIGRAM             F7F      0       0      37        0.0%
EEDATA             400      0       0       0        0.0%
BITBANK14          100      0       0      32        0.0%
BANK14             100      0       0      33        0.0%
BITBANK13          100      0       0      30        0.0%
BANK13             100      0       0      31        0.0%
BITBANK12          100      0       0      28        0.0%
BANK12             100      0       0      29        0.0%
BITBANK11          100      0       0      26        0.0%
BANK11             100      0       0      27        0.0%
BITBANK10          100      0       0      24        0.0%
BANK10             100      0       0      25        0.0%
BITBANK9           100      0       0      22        0.0%
BANK9              100      0       0      23        0.0%
BITBANK8           100      0       0      20        0.0%
BANK8              100      0       0      21        0.0%
BITBANK7           100      0       0      18        0.0%
BANK7              100      0       0      19        0.0%
BITBANK6           100      0       0      16        0.0%
BANK6              100      0       0      17        0.0%
BITBANK5           100      0       0      14        0.0%
BANK5              100      0       0      15        0.0%
BITBANK4           100      0       0      12        0.0%
BANK4              100      0       0      13        0.0%
BITBANK3           100      0       0      10        0.0%
BANK3              100      0       0      11        0.0%
BITBANK2           100      0       0       8        0.0%
BANK2              100      0       0       9        0.0%
BITBANK1           100      0       0       6        0.0%
BANK1              100     1D      1D       7       11.3%
BITBANK15           80      0       0      35        0.0%
BANK15              80      0       0      36        0.0%
BITBANK0            80      0       0       4        0.0%
BANK0               80     2C      80       5      100.0%
BITCOMRAM           7E      0       0       0        0.0%
COMRAM              7E     2C      55       1       67.5%
BITSFR               0      0       0     200        0.0%
SFR                  0      0       0     200        0.0%
STACK                0      0       0       2        0.0%
NULL                 0      0       0       0        0.0%
ABS                  0      0      F2      34        0.0%
DATA                 0      0      F2       3        0.0%
CODE                 0      0       0       0        0.0%


Microchip Technology PIC18 Macro Assembler V2.30 build 20200825195618 
Symbol Table                                                                                   Mon Nov 07 18:20:06 2022

                              ___fldiv@aexp 00A6                                ___fldiv@bexp 00A5  
                                         _i 0046                                ___fldiv@sign 009E  
                           ?_lcd_send_4bits 0087            lcd_4bit_send_command@ERRORSTATUS 008E  
                               _SSPSTATbits 000FC7                                          l82 365C  
                                        l77 2B30                                          l87 39B2  
                                        bsr 000FE0                       ??_InterruptManagerLow 0027  
                i2lcd_4bit_send_command@lcd 000F          __end_of_async_config_baud_rate_gen 1D62  
                _async_config_baud_rate_gen 19A0                                         l112 334A  
                                       l400 373A                                         l313 3900  
                                       l315 394C                                         l228 31EC  
                                       l420 347A                                         l334 2130  
                                       l430 3112                                         l423 347C  
                                       l433 3138                                         l417 3458  
                                       l194 3B74                                         l450 33EC  
                                       l347 22EC                                         l531 29F6  
                                       l444 336A                                         l436 313A  
                                       l460 1C0E                                         l550 2C5E  
                                       l462 1D60                                         l199 34FE  
                                       l447 33E8                                         l368 2308  
                                       l456 19D4                                         l369 230C  
                                       l562 35EC                                         l474 37EC  
                                       l394 36F8                                         l458 1A92  
                                       l467 377E                                         l459 1B50  
                                       l476 3816                                         l469 37A8  
                                       l399 3736                                         l567 3B28  
      __end_of_lcd_4bits_send_enable_signal 3B76       __size_of_lcd_4bits_send_enable_signal 004C  
          ??i2_lcd_4bits_send_enable_signal 000D             ?i2_lcd_4bits_send_enable_signal 000B  
              _lcd_4bits_send_enable_signal 3B2A                            _calc_parity_even 37AA  
                    ??_InterruptManagerHigh 0020                                         _gps 004A  
                 _RB5_InterruptHandler_HIGH 0037            lcd_4bit_send_char_data_pos@colum 001D  
  GPIO_Pin_Direction_Initialize@ERRORSTATUS 002C                                         prod 000FF3  
                                       tosl 000FFD                                         wreg 000FE8  
                                _TXSTA1bits 000FAC                      ??_GPIO_Pin_Write_Logic 0080  
                           __end_of_RB4_ISR 3D74                             __end_of_RB5_ISR 3D5A  
                           __end_of_RB6_ISR 3D40                             __end_of_RB7_ISR 3D26  
              i2lcd_4bits_set_courser@colum 0016                                ___fltol@exp1 002B  
                                      l1270 26F8                                        l1249 3C06  
                                      l1258 2632                                        l1801 12D6  
                                      l1810 15D6                                        l1802 12C2  
                                      l1570 2FA4                                        l1803 1288  
                                      l1818 1416                                        l1827 14EC  
                                      l1931 28B0                                        l1828 14D8  
                                      l1860 1F20                                        l1942 2848  
                                      l1855 20FC                                        l1935 27EC  
                                      l1928 2754                                        l7001 15C4  
                                      l1857 1F5C                                        l1866 1FA2  
                                      l7003 15C6                                        l7011 1D7E  
                                      l1868 201A                                        l1869 2008  
                                      l7101 1FB2                                        l7021 1DB2  
                                      l7013 1D80                                        l7103 1FC0  
                                      l7031 1DE4                                        l7015 1D90  
                                      l7023 1DBA                                        l7007 1D62  
                                      l7113 202A                                        l7121 2072  
                                      l7105 1FC4                                        l7041 1E18  
                                      l7033 1DE6                                        l7025 1DCA  
                                      l7017 1DA0                                        l7009 1D70  
                                      l7201 278E                                        l8001 1606  
                                      l7131 20DC                                        l7123 208C  
                                      l7115 2036                                        l7107 1FD2  
                                      l7051 1E5E                                        l7035 1DF6  
                                      l7043 1E20                                        l7027 1DD0  
                                      l7019 1DB0                                        l7211 27E2  
                                      l7203 2796                                        l8011 1724  
                                      l8003 1624                                        l7133 20EA  
                                      l7125 20A2                                        l7117 2044  
                                      l7109 2000                                        l7061 1E86  
                                      l7053 1E62                                        l7045 1E30  
                                      l7037 1E06                                        l7029 1DD6  
                                      l7221 2858                                        l7213 281E  
                                      l7205 27A2                                        l7301 3AF6  
                                      l8021 1864                                        l8013 1764  
                                      l8005 1664                                        l7311 3962  
                                      l7135 20F0                                        l7127 20BC  
                                      l7119 206E                                        l7071 1ED4  
                                      l7047 1E46                                        l7039 1E16  
                                      l7151 2ECA                                        l7231 28A0  
                                      l7223 285C                                        l7215 282A  
                                      l7207 27D4                                        l7303 3B26  
                                      l8023 18A4                                        l8015 17A4  
                                      l8007 16A4                                        l7241 212C  
                                      l7313 3966                                        l7321 3150  
                                      l7401 345E                                        l7137 20F2  
                                      l7129 20D8                                        l7081 1F1E  
                                      l7073 1EE4                                        l7065 1E9A  
                                      l7049 1E56                                        l7057 1E76  
                                      l7161 2F18                                        l7153 2EF4  
                                      l7145 2E9E                                        l7225 2880  
                                      l7217 2838                                        l7209 27D6  
                                      l8201 1CF4                                        l8025 18E8  
                                      l8017 17E4                                        l8009 16E4  
                                      l7251 21AC                                        l7243 213E  
                                      l7235 20FE                                        l7307 394E  
                                      l8203 31C6                                        l7331 319C  
                                      l7323 3154                                        l7411 3090  
                                      l7403 3474                                        l7091 1F6C  
                                      l7083 1F2A                                        l7075 1EEC  
                                      l7067 1EB4                                        l7059 1E86  
                                      l7171 2F44                                        l7155 2EF6  
                                      l7147 2EB6                                        l7227 2890  
                                      l7219 2856                                        l8019 1824  
                                      l7253 21C0                                        l7261 21F0  
                                      l7245 2158                                        l7237 2108  
                                      l8205 2C46                                        l7309 394E  
                                      l6701 360A                                        l7325 315A  
                                      l7317 313C                                        l7421 30D6  
                                      l7413 30A2                                        l7405 347A  
                                      l7093 1F82                                        l7085 1F48  
                                      l7077 1EFC                                        l7069 1EC4  
                                      l7181 2F74                                        l7157 2F06  
                                      l7229 289E                                        l7341 19A0  
                                      l7501 2AC4                                        l8029 1928  
                                      l7271 2240                                        l7263 2210  
                                      l7255 21CC                                        l7247 2172  
                                      l7239 211A                                        l6703 3658  
                                      l7327 3170                                        l7335 31B2  
                                      l7319 313C                                        l7431 3132  
                                      l7423 30F0                                        l7415 30AA  
                                      l7095 1F88                                        l7087 1F4A  
                                      l7079 1F10                                        l7183 2F84  
                                      l7167 2F30                                        l7159 2F0A  
                                      l7191 2710                                        l7351 1A32  
                                      l7343 19A6                                        l7511 2B1E  
                                      l7503 2AD6                                        l6721 3800  
                                      l6713 37BC                                        l7281 22BC  
                                      l7273 225C                                        l7265 2224  
                                      l7257 21D4                                        l7249 218C  
                                      l7329 3186                                        l7521 32C4  
                                      l7425 30F6                                        l7417 30C4  
                                      l7433 3138                                        l7409 308A  
                                      l7097 1F92                                        l7089 1F5A  
                                      l7185 2F94                                        l7177 2F58  
                                      l7169 2F3A                                        l7193 271E  
                                      l7361 1C12                                        l7353 1A96  
                                      l7345 19B8                                        l7441 38FC  
                                      l7505 2AE8                                        l6723 380E  
                                      l6715 37EA                                        l6707 37AE  
                                      l6731 3740                                        l7283 22C4  
                                      l7267 2230                                        l7275 227C  
                                      l7259 21DC                                        l7291 22EC  
                                      l6651 2B4A                                        l7523 32C8  
                                      l7515 329E                                        l7427 3110  
                                      l7419 30C6                                        l6811 10FE  
                                      l7099 1FA0                                        l7179 2F64  
                                      l7195 2764                                        l7363 1C6C  
                                      l7355 1AF0                                        l7371 1D1A  
                                      l7347 19C0                                        l7451 394A  
                                      l7443 3902                                        l7507 2AFA  
                                      l6717 37EE                                        l6741 3780  
                                      l7293 22FA                                        l7285 22CC  
                                      l7277 229C                                        l7269 2238  
                                      l7461 36F4                                        l6661 2C32  
                                      l6653 2B68                                        l7525 32E0  
                                      l7517 329E                                        l7429 3118  
                                      l6901 12B6                                        l6813 110E  
                                      l6821 1138                                        l6805 10E0  
                                      l7197 277A                                        l7189 26FE  
                                      l7365 1CCC                                        l7357 1B54  
                                      l7349 19D8                                        l7373 1D5C  
                                      l7445 3912                                        l7437 38E8  
                                      l7509 2B0C                                        l7623 357A  
                                      l6727 3814                                        l6719 37FE  
                                      l6751 37A6                                        l6743 3790  
                                      l7279 22B0                                        l7463 3706  
                                      l7455 36CE                                        l6655 2B70  
                                      l6663 2C5C                                        l6647 2B32  
                                      l6671 347E                                        l7527 3312  
                                      l7519 32B2                                        l7391 3422  
                                      l7383 33EE                                        l6911 1308  
                                      l6903 12C0                                        l6831 1168  
                                      l6823 1148                                        l6815 111E  
                                      l6807 10EE                                        l7359 1BAE  
                                      l7447 3914                                        l7439 38E8  
                                      l7295 3ADA                                        l7471 29F8  
                                      l7625 357A                                        l6745 3792  
                                      l6737 374E                                        l7465 371A  
                                      l7457 36CE                                        l6657 2BD4  
                                      l6649 2B38                                        l6681 3B2A  
                                      l6673 347E                                        l7529 3318  
                                      l7641 251E                                        l6761 336C  
                                      l7393 3424                                        l7385 33F2  
                                      l6921 1344                                        l6913 1318  
                                      l6905 12E4                                        l6841 11A8  
                                      l6833 1176                                        l6825 114E  
                                      l6817 112E                                        l6809 10FC  
                                      l7369 1CD4                                        l7449 392C  
                                      l7297 3ADA                                        l7473 2A0C  
                                      l7633 3BC0                                        l7627 358C  
                                      l6747 37A0                                        l6739 377C  
                                      l7467 3728                                        l7459 36E2  
                                      l6691 3B5E                                        l6683 3B2A  
                                      l6675 3492                                        l7651 255E  
                                      l7643 2520                                        l6771 33C0  
                                      l6763 337C                                        l6755 334C  
                                      l7395 343A                                        l7387 3404  
                                      l6931 1390                                        l6923 1352  
                                      l6915 1326                                        l6907 12F4  
                                      l6851 11E2                                        l6843 11AA  
                                      l6835 1178                                        l6827 1160  
                                      l6819 1130                                        l7299 3AEE  
                                      l7491 2A64                                        l7475 2A10  
                                      l7635 3BEA                                        l7629 3590  
                                      l6685 3B3E                                        l6677 3496  
                                      l7661 259C                                        l7653 2572  
                                      l7645 2534                                        l6773 33C8  
                                      l6765 3390                                        l6757 3350  
                                      l7397 3440                                        l7389 340C  
                                      l6941 142C                                        l6933 13E2  
                                      l6925 1354                                        l6917 1334  
                                      l6861 11F6                                        l6853 11E6  
                                      l6837 1188                                        l6845 11B2  
                                      l6829 1162                                        l6781 28B2  
                                      l7493 2A76                                        l7485 2A34  
                                      l7477 2A10                                        l7469 29F8  
                                      l7637 3BF8                                        l8197 193E  
                                      l6687 3B42                                        l6695 35EE  
                                      l7671 25EE                                        l7663 25B6  
                                      l7655 2584                                        l7647 2548  
                                      l7639 2518                                        l6775 33E2  
                                      l6767 33A4                                        l6759 3362  
                                      l7399 3456                                        l6951 1468  
                                      l6943 143C                                        l6935 13E4  
                                      l6927 135E                                        l6919 1340  
                                      l6871 120A                                        l6863 11FA  
                                      l6855 11EA                                        l6847 11C2  
                                      l6839 1198                                        l8199 29DE  
                                      l6791 2954                                        l6783 28B6  
                                      l7495 2A88                                        l7487 2A50  
                                      l7479 2A1C                                        l6689 3B56  
                                      l6697 35EE                                        l7673 25F2  
                                      l7665 25B8                                        l7657 2586  
                                      l7681 2644                                        l6769 33A6  
                                      l6777 33EA                                        l6961 1494  
                                      l6953 146A                                        l6937 13F4  
                                      l6929 1364                                        l6881 121E  
                                      l6873 120E                                        l6865 11FE  
                                      l6857 11EE                                        l6849 11D4  
                                      l6785 28C8                                        l7497 2AAC  
                                      l7489 2A54                                        l6699 3602  
                                      l7683 2656                                        l7675 260C  
                                      l7667 25D6                                        l7659 2598  
                                      l6971 14CE                                        l6955 1478  
                                      l6947 1450                                        l6963 1496  
                                      l6939 1404                                        l6891 1280  
                                      l6875 1212                                        l6867 1202  
                                      l6859 11F2                                        l6883 1222  
                                      l6795 29B2                                        l6787 28E8  
                                      l7499 2AB2                                        l7685 26CC  
                                      l7677 260E                                        l7669 25DC  
                                      l6981 1554                                        l6957 1480  
                                      l6949 145A                                        l6965 14A4  
                                      l6893 1296                                        l6885 1226  
                                      l6877 1216                                        l6869 1206  
                                      l6789 28F0                                        l6797 29F4  
                                      l7687 26DC                                        l7679 262C  
                                      l6991 159A                                        l6975 14FC  
                                      l6983 1556                                        l6967 14A8  
                                      l6959 1484                                        l6895 12A2  
                                      l6887 1252                                        l6879 121A  
                                      l7689 26F6                                        l6993 15A8  
                                      l6985 1566                                        l6977 1508  
                                      l6969 14B6                                        l6897 12A6  
                                      l6889 1270                                        l6995 15AE  
                                      l6987 1576                                        l6979 1516  
                                      l6899 12B4                                        l6997 15B0  
                                      l6989 1596                                        l6999 15B6  
                                      l7995 15D8                                        l7997 15DC  
                                      l7999 15FA                                        STR_1 1014  
                                      STR_2 10B4                                        STR_3 1071  
                                      STR_4 1001                                        STR_5 10DC  
                                      STR_9 10D4                                        _LATA 000F89  
                                      _LATB 000F8A                                        _LATC 000F8B  
                                      _LATD 000F8C                                        _LATE 000F8D  
                                      u7000 2B4A                                        u7001 2B46  
                                      u7010 2B68                                        u7011 2B64  
                                      u7100 380E                                        u7101 380A  
                                      u7120 377C                                        u7024 2B8C  
                                      u7040 3492                                        u8000 2856  
                                      u7121 3778                                        u7025 2B88  
                                      u7041 348E                                        u8001 2852  
                                      u7130 3790                                        u7114 3760  
                                      u7034 2BF0                                        u7050 3B3E  
                                      u8010 2890                                        u7131 378C  
                                      u7115 375C                                        u7035 2BEC  
                                      u7051 3B3A                                        u8011 288C  
                                      u7140 37A0                                        u8100 2210  
                                      u7060 3602                                        u7300 1198  
                                      u8020 289E                                        u7220 29CA  
                                      u7204 290C                                        u7141 379C  
                                      u8101 220C                                        u7061 35FE  
                                      u7301 1194                                        u8021 289A  
                                      u7221 29C4                                        u7205 2908  
                                      u8110 2224                                        u8030 211A  
                                      u7150 3362                                        u7310 11D4  
                                      u7230 29CC                                        u7214 2970  
                                      u8111 2220                                        u8031 2116  
                                      u7151 335E                                        u7311 11D0  
                                      u7215 296C                                        i2l32 3D0A  
                                      u7080 37EA                                        u8120 225C  
                                      u8040 212C                                        u8200 3150  
                                      u7160 33C0                                        u7400 12F4  
                                      u7320 11E2                                        u7240 10FC  
                                      u7081 37E6                                        u8121 2258  
                                      u8041 2128                                        u8201 314C  
                                      u7161 33BC                                        u7401 12F0  
                                      u7321 11DE                                        u7241 10F8  
                                      u7090 37FE                                        u7074 37CE  
                                      u8130 229C                                        u8050 213E  
                                      u7170 33E2                                        u7410 1326  
                                      u7330 1252                                        u7250 110E  
                                      u8210 19B8                                        u7091 37FA  
                                      u7075 37CA                                        u8131 2298  
                                      u8051 213A                                        u7171 33DE  
                                      u7411 1322                                        u7331 124E  
                                      u7251 110A                                        u8211 19B4  
                                      u8140 22B0                                        u8060 2158  
                                      u8300 3110                                        u8220 3404  
                                      u7500 1494                                        u7420 1334  
                                      u7340 126C                                        u7260 111E  
                                      u7180 28C8                                        u8141 22AC  
                                      u8061 2154                                        u8301 310C  
                                      u8221 3400                                        u7501 1490  
                                      u7421 1330                                        u7341 1266  
                                      u7261 111A                                        u7181 28C4  
                                      u8150 22E8                                        u8070 218C  
                                      u8310 3132                                        u8230 3422  
                                      u7510 14A4                                        u7430 1352  
                                      u7350 126E                                        u7270 1160  
                                      u7190 28E8                                        u8151 22E4  
                                      u8071 2188                                        u8311 312E  
                                      u8231 341E                                        u7511 14A0  
                                      u7431 134E                                        u7271 115C  
                                      u7191 28E4                                        u9007 2AAE  
                                      u8160 22FA                                        u8080 21AC  
                                      u8400 32B2                                        u8240 343A  
                                      u7600 1596                                        u7520 14B6  
                                      u7440 1390                                        u7360 1296  
                                      u7280 1176                                        u8320 38FC  
                                      u8161 22F6                                        u8081 21A8  
                                      u8401 32AE                                        u9017 26E8  
                                      u8241 3436                                        u7601 1592  
                                      u7521 14B2                                        u7441 138C  
                                      u7361 1292                                        u7281 1172  
                                      u8321 38F8                                        i2l82 3A76  
                                      u8170 2308                                        u8090 21C0  
                                      u8330 36E2                                        u8410 32C4  
                                      u8250 3456                                        u7610 15A8  
                                      u7530 14CE                                        u7450 13F4  
                                      u7370 12B4                                        u7290 1188  
                                      u8171 2304                                        u8091 21BC  
                                      u8331 36DE                                        u9027 3B58  
                                      u8411 32C0                                        u8251 3452  
                                      u7611 15A4                                        u7531 14CA  
                                      u7451 13F0                                        u7371 12B0  
                                      u7291 1184                                        i2l92 3C8A  
                                      u8340 36F4                                        u8420 330A  
                                      u8260 3474                                        u7620 15C4  
                                      u7540 14E8                                        u7460 142C  
                                      u7380 12D6                                        u7700 1E86  
                                      u8180 3AEE                                        u8341 36F0  
                                      u8261 3470                                        u7621 15C0  
                                      u7541 14E4                                        u7461 1428  
                                      u7381 12D2                                        u7701 1E82  
                                      u8181 3AEA                                        u8350 3706  
                                      u8190 3962                                        u8430 333A  
                                      u8270 30A2                                        u7550 14FC  
                                      u7470 143C                                        u7390 12E4  
                                      u7710 1EFC                                        u7630 1D7E  
                                      i2l87 3AD8                                        u8351 3702  
                                      u8191 395E                                        u8271 309E  
                                      u7551 14F8                                        u7471 1438  
                                      u7391 12E0                                        u7711 1EF8  
                                      u7631 1D7A                                        u8360 3728  
                                      u8440 334A                                        u8600 2598  
                                      u8280 30C4                                        u7560 1516  
                                      u7480 1468                                        u7800 2016  
                                      u7720 1F1E                                        u7640 1D90  
                                      u8361 3724                                        u8441 3346  
                                      u8601 2594                                        u8281 30C0  
                                      u7561 1512                                        u7481 1464  
                                      u7801 2012                                        u7721 1F1A  
                                      u7641 1D8C                                        u8370 3736  
                                      u8610 25D6                                        u8290 30F0  
                                      u7570 1554                                        u7490 1478  
                                      u7810 202A                                        u7730 1F48  
                                      u7650 1DA0                                        u8371 3732  
                                      u8427 3300                                        u8611 25D2  
                                      u8291 30EC                                        u7571 1550  
                                      u7491 1474                                        u7811 2026  
                                      u7731 1F44                                        u7651 1D9C  
                                      u8620 25EE                                        u7580 1566  
                                      u7820 2044                                        u7740 1F6C  
                                      u7660 1DE4                                        u7900 2F54  
                                      u8380 2A0C                                        u8437 3330  
                                      u8621 25EA                                        u7581 1562  
                                      u7821 2040                                        u7741 1F68  
                                      u7661 1DE0                                        u7901 2F50  
                                      u8381 2A08                                        u8630 262C  
                                      u7590 1576                                        u7830 208C  
                                      u7750 1F82                                        u7670 1DF6  
                                      u7910 2F74                                        u8390 2A64  
                                      u8631 2628                                        u7591 1572  
                                      u7831 2088                                        u7751 1F7E  
                                      u7671 1DF2                                        u7911 2F70  
                                      u8391 2A60                                        u8560 358C  
                                      u8640 2644                                        u7840 20BC  
                                      u7760 1FA0                                        u7680 1E06  
                                      u7920 2F84                                        u8561 3588  
                                      u8641 2640                                        u7841 20B8  
                                      u7761 1F9C                                        u7681 1E02  
                                      u7921 2F80                                        u8650 2656  
                                      u7850 20EA                                        u7770 1FC0  
                                      u7690 1E46                                        u7930 2710  
                                      u8651 2652                                        u7851 20E6  
                                      u7771 1FBC                                        u7691 1E42  
                                      u7931 270C                                        u8580 255A  
                                      u7780 1FD2                                        u7860 2EB6  
                                      u7940 271E                                        u8581 2556  
                                      u7781 1FCE                                        u7861 2EB2  
                                      u7941 271A                                        u8574 35AE  
                                      u8590 2584                                        u7790 2000  
                                      u7870 2EEA                                        u7950 277A  
                                      u8575 35AA                                        u8591 2580  
                                      u7791 1FFC                                        u7951 2776  
                                      u7880 2F18                                        u7960 27D0  
                                      u7881 2F14                                        u7961 27CC  
                                      u7890 2F2C                                        u7970 281A  
                                      u7891 2F28                                        u7875 2EE0  
                                      u7971 2816                                        u7980 2838  
                                      u7981 2834                                        u7990 2848  
                                      u7991 2844                                        _RX9D 007D58  
                                      u8977 1612                                        u8987 2A6C  
                                      u8997 2A90                     ??_application_intialize 002D  
          __end_ofi2_EUSART_Async_Read_Data 2518                    _RB4_InterruptHandler_LOW 0039  
                                      _lcd1 004D                                        _blue 0049  
                                      _main 15D8                    _RB7_InterruptHandler_LOW 002D  
                                      fsr0h 000FEA                                        indf0 000FEF  
                                      fsr2h 000FDA                                        fsr0l 000FE9  
                                      indf2 000FDF                                        fsr1l 000FE1  
                                      fsr2l 000FD9                                        btemp 0056  
                                      prodh 000FF4                                        prodl 000FF3  
                                      start 0276            GPIO_Pin_Toggle_Logic@_pin_config 002A  
        i2GPIO_Pin_Toggle_Logic@_pin_config 0001                             ___fldiv@new_exp 009F  
                   ?_EUSART_Async_Read_Data 0083        Bluetooth_Send_Data_Non_Blocking@data 000F  
                              ___param_bank 000000                                fp__usart_isr 0000  
          __size_of_lcd_4bit_send_char_data 0066            __size_ofi2_lcd_4bit_send_command 0062  
                     _lcd_4bit_send_command 35EE                            __end_of_INT0_ISR 3D8E  
                          __end_of_INT1_ISR 3D86                            __end_of_INT2_ISR 3D8A  
                __end_ofi2_calc_parity_even 38E8                               ___fltol@sign1 002A  
                           __end_of___fladd 15D8                                       ?_main 0001  
                           __end_of___fldiv 20FE                                       STR_10 1035  
                                     STR_11 10CB                                       STR_20 1035  
                                     STR_12 1035                                       STR_21 10A8  
                                     STR_13 1080                                       STR_30 1035  
                                     STR_22 1035                                       STR_14 1035  
                                     STR_15 1084                                       STR_31 10D8  
                                     STR_23 1053                                       STR_32 1035  
                                     STR_24 1035                                       STR_16 1035  
                                     STR_25 1058                                       STR_33 109B  
                                     STR_17 1062                                       STR_26 1035  
                                     STR_18 1035                                       STR_34 1044  
                                     STR_35 1044                                       STR_19 10C0  
                                     STR_27 1025                                       STR_28 1035  
                                     STR_29 108E                             __end_of___fltol 2FA6  
                                     i2l331 3088                                       i2l228 329C  
                                     i2l334 233E                                       i2l327 3084  
                                     i1l841 0106                                       i2l194 3C4E  
                                     i1l922 3D84                                       i2l347 24F6  
                                     i1l851 0246                                       i1l843 0146  
                                     i1l835 0046                                       i1l853 0256  
                                     i1l845 0186                                       i1l837 0086  
                                     i2l550 2D86                                       i2l199 3578  
                                     i1l935 3D72                                       i1l847 01C6  
                                     i1l839 00C6                                       i2l368 2512  
                                     i1l944 3D58                                       i1l856 0266  
                                     i2l369 2516                                       i1l953 3D3E  
                                     i1l849 0206                                       i2l474 38BC  
                                     i2l562 36CC                                       i2l810 2DC2  
                                     i1l962 3D24                                       i2l467 3854  
                                     i2l483 3CB6                                       i2l476 38E6  
                                     i2l820 2E22                                       i2l812 2DE2  
                                     i2l469 387E                                       i2l822 2E42  
                                     i2l814 2DF2                                       i2l479 3D8E  
                                     i2l824 2E62                                       i2l816 2E02  
                                     i2l826 2E72                                       i2l818 2E12  
                                     i2l829 2E82                                       i2l918 3D8C  
                                     i2l926 3D88                                       _RCREG 000FAE  
                                     _SPBRG 000FAF                                       _PORTA 000F80  
                                     _PORTB 000F81                                       _PORTC 000F82  
                                     _PORTD 000F83                                       _PORTE 000F84  
                             _EUSART_Rx_ISR 3C8C                                       _TRISA 000F92  
                                     _TRISB 000F93                                       _TRISC 000F94  
                                     _TRISD 000F95                                       _TRISE 000F96  
                             _EUSART_Tx_ISR 3D8E                                       _TXREG 000FAD  
             ?_lcd_4bits_send_enable_signal 0087     async_config_baud_rate_gen@Baudrate_temp 0111  
                            GPS_Service@key 009F                                       _flags 004C  
                                     _pind1 0054                                       _pind2 0055  
                    ?_lcd_4bits_set_courser 008F                                       pclath 000FFA  
                              ?_GPS_Service 0001                                       tablat 000FF5  
                lcd_4bits_set_courser@colum 0092                    __size_of_calc_parity_odd 006E  
                  __size_of_async_Rx_config 00B2       __end_of_lcd_4bit_send_string_data_pos 334C  
    __size_of_lcd_4bit_send_string_data_pos 00AE               _lcd_4bit_send_string_data_pos 329E  
                                     ttemp5 0057                                       ttemp6 005A  
                                     ttemp7 005E                                       status 000FD8  
                                     wtemp8 0057              __end_of_EUSART_Async_Read_Data 230E  
                  __size_of_async_Tx_config 0090       async_config_baud_rate_gen@_eusart_obj 010C  
               _I2C_DefaultInterruptHandler 00B6                             __initialization 39B4  
                       _Rx_config_interrupt 334C                                __end_of_main 19A0  
                _eusart_Rx_InterruptHandler 0043              __size_of_GPIO_Pin_Toggle_Logic 0074  
                       i2lcd_send_4bits@lcd 000B               __end_of_GPIO_Pin_Toggle_Logic 35EE  
                             _lat_registers 00E0                                      ??_main 011B  
                             __activetblptr 000003                              ?_EUSART_Rx_ISR 0001  
                            ?_EUSART_Tx_ISR 0001                                   ??_RB4_ISR 0026  
                                 ??_RB5_ISR 0026                                   ??_RB6_ISR 0026  
                                 ??_RB7_ISR 0026                       RB5_ISR@Handler_Select 0026  
                      ?_Rx_config_interrupt 002A                     i2_lcd_4bits_set_courser 31EE  
                                    i1l4101 0100                                      i1l3231 3D82  
                                    i1l4111 0140                                      i1l4103 0114  
                                    i1l3241 3D72                                      i1l4121 0180  
                                    i1l4113 0154                                      i1l4105 0122  
                                    i1l3235 3D5C                                      i1l3251 3D58  
                                    i1l4131 01C0                                      i1l4123 0194  
                                    i1l4115 0162                                      i1l4107 0130  
                                    i1l3237 3D5E                                      i1l3245 3D42  
                                    i1l3261 3D3E                                      i1l4141 0200  
                                    i1l4133 01D4                                      i1l4125 01A2  
                                    i1l4117 0170                                      i1l4109 013E  
                                    i1l3247 3D44                                      i1l3255 3D28  
                                    i1l3271 3D24                                      i1l4151 0240  
                                    i1l4143 0214                                      i1l4135 01E2  
                                    i1l4127 01B0                                      i1l4119 017E  
                                    i1l4071 0042                                      i1l3257 3D2A  
                                    i1l3265 3D0E                                      i1l4153 0254  
                                    i1l4145 0222                                      i1l4137 01F0  
                                    i1l4129 01BE                                      i1l4081 0080  
                                    i1l4073 0054                                      i1l3267 3D10  
                                    i1l4147 0230                                      i1l4139 01FE  
                                    i1l4091 00C0                                      i1l4083 0094  
                                    i1l4075 0062                                      i1l4067 0026  
                                    i1l4157 0264                                      i1l4149 023E  
                                    i1l4093 00D4                                      i1l4085 00A2  
                                    i1l4077 0070                                      i1l4069 0034  
                                    i1l4095 00E2                                      i1l4087 00B0  
                                    i1l4079 007E                                      i1l4097 00F0  
                                    i1l4089 00BE                                      i1l4099 00FE  
                                    i2l1252 3BBE                                      i2l3223 3D8A  
                                    i2l3227 3D86                                      i2l5301 31EE  
                                    i2l5311 3220                                      i2l5303 31EE  
                                    i2l5313 3236                                      i2l5305 3200  
                                    i2l5331 3CF8                                      i2l5315 324C  
                                    i2l5307 3204                                      i2l5325 3CE2  
                                    i2l4621 3C08                                      i2l5309 320A  
                                    i2l5421 3C62                                      i2l4711 38BA  
                                    i2l4703 3882                                      i2l5327 3CE2  
                                    i2l4631 3C3A                                      i2l4623 3C08  
                                    i2l5319 3262                                      i2l5423 3C66  
                                    i2l4713 38BE                                      i2l5329 3CF4  
                                    i2l4625 3C1A                                      i2l4641 3516  
                                    i2l5417 3C50                                      i2l6401 2E10  
                                    i2l4723 38E4                                      i2l4715 38CE  
                                    i2l4731 2FB8                                      i2l4627 3C1E  
                                    i2l4635 3500                                      i2l5291 3A78  
                                    i2l5419 3C50                                      i2l5603 24F6  
                                    i2l5611 3670                                      i2l6411 2E3E  
                                    i2l4717 38D0                                      i2l4709 388E  
                                    i2l4741 3034                                      i2l4733 2FBC  
                                    i2l4581 2C9C                                      i2l4573 2C60  
                                    i2l4629 3C32                                      i2l4637 3500  
                                    i2l5293 3A78                                      i2l5605 2504  
                                    i2l5613 3674                                      i2l6421 2E80  
                                    i2l6413 2E50                                      i2l6405 2E20  
                                    i2l4719 38DE                                      i2l4743 304C  
                                    i2l4735 2FD6                                      i2l4727 2FA6  
                                    i2l4583 2CFE                                      i2l4575 2C64  
                                    i2l4639 3512                                      i2l5295 3A8A  
                                    i2l4671 3A16                                      i2l5551 2328  
                                    i2l5607 365E                                      i2l6415 2E5E  
                                    i2l4745 306C                                      i2l4737 2FF6  
                                    i2l4729 2FA6                                      i2l4577 2C76  
                                    i2l5297 3A8E                                      i2l4673 3A28  
                                    i2l5561 239A                                      i2l5553 233A  
                                    i2l5609 365E                                      i2l6417 2E70  
                                    i2l6409 2E30                                      i2l4691 3866  
                                    i2l4739 3014                                      i2l4747 3084  
                                    i2l4587 2D5A                                      i2l4579 2C94  
                                    i2l4675 3A2C                                      i2l5571 23EA  
                                    i2l5563 23BA                                      i2l5555 234C  
                                    i2l5547 230E                                      i2l4693 3868  
                                    i2l4685 3826                                      i2l4589 2D84  
                                    i2l4669 3A16                                      i2l5581 2446  
                                    i2l5565 23CE                                      i2l5573 23FE  
                                    i2l5557 2366                                      i2l5549 2316  
                                    i2l5821 3C9E                                      i2l4695 3876  
                                    i2l4687 3852                                      i2l4679 381A  
                                    i2l8207 3276                                      i2l5591 24BC  
                                    i2l5583 244E                                      i2l5575 241E  
                                    i2l5567 23DA                                      i2l5559 2380  
                                    i2l5751 3B76                                      i2l6391 2DDE  
                                    i2l6383 2DA2                                      i2l4689 3856  
                                    i2l8209 2D6E                                      i2l5593 24C8  
                                    i2l5585 2468                                      i2l5577 2432  
                                    i2l5569 23E2                                      i2l5753 3B9A  
                                    i2l6393 2DF0                                      i2l6385 2DB0  
                                    i2l4699 387C                                      i2l5595 24D0  
                                    i2l5579 243E                                      i2l5587 2488  
                                    i2l5755 3BB2                                      i2l5819 3C8C  
                                    i2l6387 2DBE                                      i2l5597 24D8  
                                    i2l5589 24A8                                      i2l6397 2E00  
                                    i2l6389 2DD0                                      _SPBRGH 000FB0  
                                    _SSPADD 000FC8                                      _SSPBUF 000FC9  
                         i2_calc_parity_odd 3818                    calc_parity_odd@l_counter 0082  
                          __end_of___xxtofl 28B2                    ?i2_GPIO_Pin_Toggle_Logic 0001  
        lcd_4bit_send_string_data_pos@colum 0099                          ?i2_calc_parity_odd 0001  
                  i2_EUSART_Async_Read_Data 230E                      ?_lcd_4bit_send_command 008B  
           ??_GPIO_Pin_Direction_Initialize 0080                                   ??___fladd 00A7  
                                 ??___fldiv 0096                    ??i2_GPIO_Pin_Write_Logic 0004  
                                 ??___fltol 0084                 __end_of_GPIO_Pin_Initialize 3B2A  
                       ??i2_calc_parity_odd 0001                                      clear_0 39FA  
                                    clear_1 3A06                 ?_EUSART_Async_Transmit_Data 0006  
                         ?i2_lcd_send_4bits 000B                                __pdataCOMRAM 0049  
                              __mediumconst 0000                          ??i2_lcd_send_4bits 000E  
     EUSART_Async_Transmit_Data@_eusart_obj 0006                                      tblptrh 000FF7  
                     ??_Rx_config_interrupt 002C                                      tblptrl 000FF6  
                                    tblptru 000FF8                   __end_ofi2_calc_parity_odd 3880  
                              ___xxtofl@arg 008A                                ___xxtofl@exp 0089  
                              ___xxtofl@val 0080                __size_of_lcd_4bit_initialize 013A  
                                __accesstop 0080                     __end_of__initialization 3A0C  
  __end_of_Bluetooth_Send_Data_Non_Blocking 3D0C   __size_of_Bluetooth_Send_Data_Non_Blocking 002A  
        ??_Bluetooth_Send_Data_Non_Blocking 0010           ?_Bluetooth_Send_Data_Non_Blocking 000D  
          _Bluetooth_Send_Data_Non_Blocking 3CE2                                   ?_INT0_ISR 0001  
                                 ?_INT1_ISR 0001                                   ?_INT2_ISR 0001  
                             ___rparam_used 000001                    __end_of_calc_parity_even 3818  
                                ___fltol@f1 0080                            ??_lcd_send_4bits 002D  
                _I2C_Report_Write_Collision 00B2                  ?i2_lcd_4bit_send_char_data 000F  
                   _lcd_4bit_send_char_data 394E              ?_lcd_4bit_send_string_data_pos 0096  
                   i2_lcd_4bit_send_command 3A16                           ??_calc_parity_odd 002A  
                            __pcstackCOMRAM 0001                           ??_async_Rx_config 002D  
                              __pidataBANK0 3CB8                           ??_async_Tx_config 002C  
               i2GPIO_Pin_Write_Logic@logic 0003                             ??_EUSART_Rx_ISR 0020  
EUSART_Async_Read_Data_Blocking@_eusart_obj 0092                             ??_EUSART_Tx_ISR 0001  
                  lcd_4bit_send_command@lcd 008B                 ?_async_config_baud_rate_gen 010C  
                 ??i2_lcd_4bits_set_courser 0017                   calc_parity_even@l_counter 0082  
              ?_lcd_4bit_send_char_data_pos 001A             __end_ofi2_GPIO_Pin_Toggle_Logic 36CE  
                                __pbssBANK0 00AC                       _INT0_InterruptHandler 0041  
                                ??_INT0_ISR 0001                                  ??_INT1_ISR 0026  
                                ??_INT2_ISR 0001           i2lcd_4bits_send_enable_signal@lcd 000B  
           lcd_4bits_send_enable_signal@lcd 0087              __size_of_application_intialize 0048  
             __end_of_application_intialize 3C08                        __size_of_GPS_Service 01E2  
                  _eusart_frameerr_CallBack 00B8                                  _datarecive 0048  
               __end_of_InterruptManagerLow 0276                        calc_parity_even@data 0080  
         __end_ofi2_lcd_4bit_send_char_data 3ADA          lcd_4bit_initialize@pin_lcd_counter 0093  
           __size_ofi2_GPIO_Pin_Write_Logic 0128       __end_of_GPIO_Pin_Direction_Initialize 29F8  
    __size_of_GPIO_Pin_Direction_Initialize 0146               _GPIO_Pin_Direction_Initialize 28B2  
                                   _RB4_ISR 3D5A                                     _RB5_ISR 3D40  
                                   _RB6_ISR 3D26                                     _RB7_ISR 3D0C  
                                 ?___xxtofl 0080                   _RB6_InterruptHandler_HIGH 0033  
                   ??_lcd_4bits_set_courser 0093               __size_of_InterruptManagerHigh 2E96  
                        i2_calc_parity_even 3880               __size_of_GPIO_Pin_Write_Logic 012E  
                __size_ofi2_calc_parity_odd 0068              EUSART_Async_Transmit_Data@data 0008  
                        __size_of_usart_isr 004A                              _tris_registers 00EA  
                  _RB6_InterruptHandler_LOW 0031                   ??_lcd_4bit_send_char_data 002D  
                 ??i2_lcd_4bit_send_command 0012                         ?i2_calc_parity_even 0001  
                                   __Hparam 0000                  _eusart_overrunerr_CallBack 00BA  
                                   __Lparam 0000                                     ___fladd 10E0  
                                   ___fldiv 1D62                                     ___fltol 2E9E  
                              __psmallconst 1000                                     __pcinit 39B4  
                                   __ramtop 1000                                     __ptext0 15D8  
                                   __ptext1 3BC0                                     __ptext2 29F8  
                                   __ptext3 3ADA                                     __ptext4 28B2  
                                   __ptext5 38E8                                     __ptext6 19A0  
                                   __ptext7 26FA                                     __ptext8 2E9E  
                                   __ptext9 1D62                i2lcd_4bit_send_char_data@lcd 000F  
                      ??i2_calc_parity_even 0001                                     _counter 0045  
                                ??___xxtofl 0084                                     _gpstemp 0047  
                         _EUSART_Async_Init 38E8                          ?_EUSART_Async_Init 0119  
                    i2_GPIO_Pin_Write_Logic 2C60                  ??i2_EUSART_Async_Read_Data 000A  
                            __pintcode_body 2D88                        end_of_initialization 3A0C  
                         lcd_send_4bits@lcd 0087            i2calc_parity_even@number_of_ones 0004  
            calc_parity_even@number_of_ones 0081                                     int_func 2D88  
                       ??_EUSART_Async_Init 002D                     ??_lcd_4bit_send_command 002D  
         async_config_baud_rate_gen@ret_val 0110                       i2calc_parity_odd@data 0003  
              i2EUSART_Async_Read_Data@data 0008                                   _RCSTAbits 000FAB  
                                   postdec1 000FE5                                     postdec2 000FDD  
      __size_of_lcd_4bit_send_char_data_pos 003C                                     postinc0 000FEE  
                                   postinc2 000FDE                         _lcd_4bit_initialize 29F8  
                         __end_of_usart_isr 3BC0            __size_ofi2_GPIO_Pin_Toggle_Logic 0070  
           __end_of_lcd_4bit_send_char_data 39B4                       _INT1_InterruptHandler 003F  
                                 _PORTBbits 000F81                       _GPIO_Pin_Toggle_Logic 357A  
                 __end_of_EUSART_Async_Init 394E                                 ___fladd@grs 010B  
                lcd_4bit_send_char_data@lcd 008B              ?_GPIO_Pin_Direction_Initialize 002A  
                             ___xxtofl@sign 0088                                   _TRISBbits 000F93  
                                 _TRISCbits 000F94                       RB4_ISR@Handler_Select 0026  
                     RB7_ISR@Handler_Select 0026                                 ___fldiv@grs 00A1  
                               ___fldiv@rem 009A         EUSART_Async_Read_Data_Blocking@data 0094  
                           _calc_parity_odd 373C                             _async_Rx_config 308A  
           lcd_4bit_send_char_data_pos@data 001E                        ?_lcd_4bit_initialize 008F  
                 __size_ofi2_lcd_send_4bits 007A                             _async_Tx_config 33EE  
                                 _TXSTAbits 000FAC                           ?_calc_parity_even 0001  
                         __size_of_INT0_ISR 0004                           __size_of_INT1_ISR 0004  
                         __size_of_INT2_ISR 0004                 ??i2_lcd_4bit_send_char_data 0012  
                EUSART_Async_Read_Data@data 0085                          ??_calc_parity_even 002A  
                    async_Rx_config@_rx_obj 0080               convert_uint16_to_string@F3189 00AC  
                               _BAUDCONbits 000FB8                               __pidataCOMRAM 3D74  
               __end_of_Rx_config_interrupt 33EE                      async_Rx_config@ret_val 0082  
              __size_of_GPIO_Pin_Initialize 0050                    EUSART_Async_Init@ret_val 00AB  
                       start_initialization 39B4         i2EUSART_Async_Read_Data@_eusart_obj 0006  
         EUSART_Async_Read_Data@_eusart_obj 0083                  i2lcd_4bits_set_courser@lcd 0013  
                i2lcd_4bits_set_courser@row 0015             GPIO_Pin_Write_Logic@_pin_config 002A  
         i2GPIO_Pin_Write_Logic@_pin_config 0001                    ??_EUSART_Async_Read_Data 0087  
                     ??_lcd_4bit_initialize 0091              GPIO_Pin_Initialize@_pin_config 0087  
                               __pdataBANK0 00D6                      ?_GPIO_Pin_Toggle_Logic 002A  
              lcd_4bit_send_command@command 008D                       __end_of_EUSART_Rx_ISR 3CB8  
                                 ___fladd@a 0104                                   ___fladd@b 0100  
                __size_of_EUSART_Async_Init 0066                       __end_of_EUSART_Tx_ISR 3D90  
                                 ___fldiv@a 0092                                   ___fldiv@b 008E  
                                  ?_RB4_ISR 0001                                    ?_RB5_ISR 0001  
                                  ?_RB6_ISR 0001                                    ?_RB7_ISR 0001  
                               __pbssCOMRAM 002D                     __end_of_calc_parity_odd 37AA  
                 i2_lcd_4bit_send_char_data 3A78                     __end_of_async_Rx_config 313C  
                             __pcstackBANK0 0080                               __pcstackBANK1 0100  
             i2_EUSART_Async_Read_Data$1243 000D               i2_EUSART_Async_Read_Data$1244 000F  
             i2_EUSART_Async_Read_Data$1245 0011                           __size_of___xxtofl 01B8  
            __size_of_lcd_4bits_set_courser 00B2                     __end_of_async_Tx_config 347E  
             __end_of_lcd_4bits_set_courser 31EE                               ??_GPS_Service 009D  
              i2lcd_send_4bits@data_command 000D                       _INT2_InterruptHandler 003D  
            ??_lcd_4bits_send_enable_signal 002D                         calc_parity_odd@data 0080  
              __end_of_InterruptManagerHigh 2E9E                       _application_intialize 3BC0  
                                 __pintcode 0008                __end_of_GPIO_Pin_Write_Logic 2C60  
                                  ?___fladd 0100                                    ?___fldiv 008E  
                                 __uart_obj 00F4           i2GPIO_Pin_Write_Logic@ERRORSTATUS 000A  
           GPIO_Pin_Write_Logic@ERRORSTATUS 0086                                    ?___fltol 0080  
                Rx_config_interrupt@_rx_obj 002A                     i2_GPIO_Pin_Toggle_Logic 365E  
                               __pintcodelo 0018                __size_of_InterruptManagerLow 025E  
                   __size_of_lcd_send_4bits 0082                    ?i2_lcd_4bits_set_courser 0013  
                               __smallconst 1000                   _RB4_InterruptHandler_HIGH 003B  
                Rx_config_interrupt@ret_val 002C                     ?i2_GPIO_Pin_Write_Logic 0001  
                 _RB7_InterruptHandler_HIGH 002F         i2EUSART_Async_Read_Data@l_temp_data 0013  
         EUSART_Async_Read_Data@l_temp_data 0090                      async_Tx_config@_tx_obj 002A  
            GPIO_Pin_Initialize@ERRORSTATUS 0089             __size_of_EUSART_Async_Read_Data 0210  
                  _RB5_InterruptHandler_LOW 0035                                    _INT0_ISR 3D8A  
                                  _INT1_ISR 3D82                                    _INT2_ISR 3D86  
                          i2_lcd_send_4bits 3500                      async_Tx_config@ret_val 002C  
                lcd_send_4bits@data_command 0089                                    _IPR1bits 000F9F  
                                  _IPR2bits 000FA2                                    _PIE1bits 000F9D  
                                  _PIE2bits 000FA0                                    i1u210_20 3D20  
                                  i1u210_21 3D1C      __end_ofi2_lcd_4bits_send_enable_signal 3C50  
   __size_ofi2_lcd_4bits_send_enable_signal 0048              i2_lcd_4bits_send_enable_signal 3C08  
                                  i1u207_20 3D6E                                    i1u207_21 3D6A  
                                  i1u208_20 3D54                                    i1u208_21 3D50  
            __size_of_lcd_4bit_send_command 0070                                    i1u209_20 3D3A  
                                  i1u209_21 3D36                                    i1u340_20 0094  
                                  i1u340_21 0090                                    i1u341_20 00A2  
                                  i1u341_21 009E                                    i1u350_20 0130  
                                  i1u342_20 00B0                                    i1u334_20 0034  
                                  i1u350_21 012C                                    i1u342_21 00AC  
                                  i1u334_21 0030                                    i1u351_20 013E  
                                  i1u343_20 00BE                                    i1u335_20 0042  
                                  i1u351_21 013A                                    i1u343_21 00BA  
                                  i1u335_21 003E                                    i1u360_20 01D4  
                                  i1u352_20 0154                                    i1u344_20 00D4  
                                  i1u336_20 0054                                    i1u360_21 01D0  
                                  i1u352_21 0150                                    i1u344_21 00D0  
                                  i1u336_21 0050                                    i1u361_20 01E2  
                                  i1u353_20 0162                                    i1u345_20 00E2  
                                  i1u337_20 0062                                    i1u361_21 01DE  
                                  i1u353_21 015E                                    i1u345_21 00DE  
                                  i1u337_21 005E                                    i1u362_20 01F0  
                                  i1u354_20 0170                                    i1u346_20 00F0  
                                  i1u338_20 0070                                    i1u362_21 01EC  
                                  i1u354_21 016C                                    i1u346_21 00EC  
                                  i1u338_21 006C                                    i1u363_20 01FE  
                                  i1u355_20 017E                                    i1u347_20 00FE  
                                  i1u339_20 007E                                    i1u363_21 01FA  
                                  i1u355_21 017A                                    i1u347_21 00FA  
                                  i1u339_21 007A                         __end_of_GPS_Service 26FA  
                                  i1u364_20 0214                                    i1u356_20 0194  
                                  i1u348_20 0114                                    i1u364_21 0210  
                                  i1u356_21 0190                                    i1u348_21 0110  
             __end_of_lcd_4bit_send_command 365E                                    i1u365_20 0222  
                                  i1u357_20 01A2                                    i1u349_20 0122  
                                  i1u365_21 021E                                    i1u357_21 019E  
                                  i1u349_21 011E                                    i1u366_20 0230  
                                  i1u358_20 01B0                                    i1u366_21 022C  
                                  i1u358_21 01AC                                    i1u367_20 023E  
                                  i1u359_20 01BE                                    i1u367_21 023A  
                                  i1u359_21 01BA                                    i1u368_20 0254  
                                  i1u368_21 0250                                    i1u369_20 0264  
                                  i1u369_21 0260                                    i2u420_40 3852  
                                  i2u420_41 384E                                    i2u421_40 3866  
                                  i2u421_41 3862                                    i2u422_40 3876  
                                  i2u406_40 2C76                                    i2u414_40 3C1A  
                                  i2u422_41 3872                                    i2u406_41 2C72  
                                  i2u414_41 3C16                                    i2u430_45 300E  
                                  i2u430_47 3010                                    i2u431_40 3034  
                                  i2u407_40 2C94                                    i2u415_40 3512  
                                  i2u431_41 3030                                    i2u407_41 2C90  
                                  i2u415_41 350E                                    i2u423_44 38A0  
                                  i2u423_45 389C                                    i2u424_40 38BA  
                                  i2u424_41 38B6                                    i2u408_44 2CB8  
                                  i2u432_45 3046                                    i2u408_45 2CB4  
                                  i2u432_47 3048                                    i2u425_40 38CE  
                                  i2u433_40 306C                                    i2u425_41 38CA  
                                  i2u433_41 3068                                    _PIR1bits 000F9E  
                                  i2u409_44 2D1A                                    i2u409_45 2D16  
                                  i2u426_40 38DE                                    i2u418_40 3A28  
                                  i2u426_41 38DA                                    i2u418_41 3A24  
                                  i2u434_45 307E                                    i2u434_47 3080  
                                  i2u427_40 2FB8                                    i2u427_41 2FB4  
                                  _PIR2bits 000FA1                                    i2u419_44 3838  
                                  i2u419_45 3834                                    i2u428_40 2FD6  
                                  i2u532_40 3A8A                                    i2u428_41 2FD2  
                                  i2u532_41 3A86                                    i2u429_40 2FF6  
                                  i2u533_40 3200                                    i2u429_41 2FF2  
                                  i2u533_41 31FC                                    i2u534_40 3CF4  
                                  i2u534_41 3CF0                                    i2u552_40 3C62  
                                  i2u608_40 3C9E                                    i2u552_41 3C5E  
                                  i2u608_41 3C9A                                    i2u570_40 23BA  
                                  i2u609_48 3CA4                                    i2u570_41 23B6  
                                  i2u609_49 3CB6                                    i2u571_40 23CE  
                                  i2u571_41 23CA                                    i2u572_40 241E  
                                  i2u580_40 3670                                    i2u572_41 241A  
                                  i2u580_41 366C                                    i2u573_40 2432  
                                  i2u565_40 2328                                    i2u573_41 242E  
                                  i2u565_41 2324                                    i2u581_44 3690  
                                  i2u581_45 368C                                    i2u574_40 2468  
                                  i2u566_40 233A                                    i2u574_41 2464  
                                  i2u566_41 2336                                    i2u575_40 24A8  
                                  i2u567_40 234C                                    i2u575_41 24A4  
                                  i2u567_41 2348                                    i2u903_47 3C34  
                                  i2u576_40 24BC                                    i2u568_40 2366  
                                  i2u576_41 24B8                                    i2u568_41 2362  
                                  i2u577_40 24F2                                    i2u569_40 239A  
                                  i2u577_41 24EE                                    i2u569_41 2396  
                                  i2u578_40 2504                                    i2u690_40 2E10  
                                  i2u578_41 2500                                    i2u690_41 2E0C  
                                  i2u579_40 2512                                    i2u691_40 2E20  
                                  i2u579_41 250E                                    i2u691_41 2E1C  
                                  i2u692_40 2E30                                    i2u684_40 2DB0  
                                  i2u692_41 2E2C                                    i2u684_41 2DAC  
                                  i2u693_40 2E3E                                    i2u685_40 2DBE  
                                  i2u693_41 2E3A                                    i2u685_41 2DBA  
                                  i2u694_40 2E50                                    i2u686_40 2DD0  
                                  i2u694_41 2E4C                                    i2u686_41 2DCC  
                                  i2u695_40 2E5E                                    i2u687_40 2DDE  
                                  i2u695_41 2E5A                                    i2u687_41 2DDA  
                                  i2u696_40 2E70                                    i2u688_40 2DF0  
                                  i2u696_41 2E6C                                    i2u688_41 2DEC  
                                  i2u697_40 2E80                                    i2u689_40 2E00  
                                  i2u697_41 2E7C                                    i2u689_41 2DFC  
                                  _RCONbits 000FD0                 _I2C_Report_Receive_Overflow 00B4  
              ??_EUSART_Async_Transmit_Data 000A              __end_ofi2_GPIO_Pin_Write_Logic 2D88  
            lcd_4bit_send_char_data_pos@lcd 001A                 __size_ofi2_calc_parity_even 0068  
            lcd_4bit_send_char_data_pos@row 001C                                   _usart_isr 3B76  
                          ?_calc_parity_odd 0001                            __size_of_RB4_ISR 001A  
                          __size_of_RB5_ISR 001A                            __size_of_RB6_ISR 001A  
                          ?_async_Rx_config 0080                            __size_of_RB7_ISR 001A  
               i2calc_parity_even@l_counter 0005         __end_of_lcd_4bit_send_char_data_pos 3C8C  
               _lcd_4bit_send_char_data_pos 3C50                            ?_async_Tx_config 002A  
                               _INTCON2bits 000FF1                                 _INTCON3bits 000FF0  
                  ?_lcd_4bit_send_char_data 008B                                   copy_data0 39C8  
                                 copy_data1 39E8                    ?i2_lcd_4bit_send_command 000F  
               _EUSART_Async_Read_Data$1243 008A                 _EUSART_Async_Read_Data$1244 008C  
               _EUSART_Async_Read_Data$1245 008E               ??_lcd_4bit_send_char_data_pos 001F  
                    ?_application_intialize 0001                         _GPIO_Pin_Initialize 3ADA  
                                  __Hrparam 0000            lcd_4bit_send_string_data_pos@lcd 0096  
          lcd_4bit_send_string_data_pos@row 0098         __size_of_EUSART_Async_Transmit_Data 00E4  
          lcd_4bit_send_string_data_pos@str 009A                                    __Lrparam 0000  
                 ??i2_GPIO_Pin_Toggle_Logic 0003           __size_ofi2_EUSART_Async_Read_Data 020A  
           __end_ofi2_lcd_4bits_set_courser 329E                   ?i2_EUSART_Async_Read_Data 0006  
                    _EUSART_Async_Read_Data 20FE                            __size_of___fladd 04F8  
                          __size_of___fldiv 039C                            __size_of___fltol 0108  
                 GPIO_Pin_Write_Logic@logic 002C                ??_async_config_baud_rate_gen 010E  
                 __size_of_calc_parity_even 006E                        ?_GPIO_Pin_Initialize 0087  
                                  ___xxtofl 26FA                                  ?_usart_isr 0001  
                                  _datasend 004B                       RB6_ISR@Handler_Select 0026  
                      _InterruptManagerHigh 0008                    lcd_4bits_set_courser@lcd 008F  
           _async_config_baud_rate_gen$3860 0115                    lcd_4bits_set_courser@row 0091  
                                  __ptext10 10E0                                    __ptext11 33EE  
                                  __ptext20 3B2A                                    __ptext12 308A  
                                  __ptext21 2B32                                    __ptext13 334C  
                                  __ptext30 3D40                                    __ptext22 36CE  
                                  __ptext14 2518                                    __ptext31 3D5A  
                                  __ptext23 20FE                                    __ptext15 329E  
                                  __ptext40 230E                                    __ptext32 3D82  
                                  __ptext24 373C                                    __ptext16 313C  
                                  __ptext41 3C50                                    __ptext25 37AA  
                                  __ptext17 35EE                                    __ptext50 3818  
                                  __ptext42 31EE                                    __ptext34 3D86  
                                  __ptext26 357A                                    __ptext18 394E  
                                  __ptext51 3880                                    __ptext43 3A16  
                                  __ptext35 3D8A                                    __ptext19 347E  
                                  __ptext52 0000                                    __ptext44 3A78  
                                  __ptext36 3D8E                                    __ptext28 3D0C  
                                  __ptext45 3500                                    __ptext37 3C8C  
                                  __ptext29 3D26                                    __ptext46 3C08  
                                  __ptext38 3B76                                    __ptext47 2C60  
                                  __ptext39 365E                                    __ptext48 3CE2  
                                  __ptext49 2FA6   Bluetooth_Send_Data_Non_Blocking@_uart_obj 000D  
             i2lcd_4bit_send_char_data@data 0011                        _GPIO_Pin_Write_Logic 2B32  
                               _GPS_Service 2518          __size_ofi2_lcd_4bit_send_char_data 0062  
                                  _latitude 00C9                               __size_of_main 03C8  
                                  _longtude 00BC                                    _selector 0053  
       __size_of_async_config_baud_rate_gen 03C2     __end_of_EUSART_Async_Read_Data_Blocking 373C  
  __size_of_EUSART_Async_Read_Data_Blocking 006E           ??_EUSART_Async_Read_Data_Blocking 002C  
          ?_EUSART_Async_Read_Data_Blocking 0092             _EUSART_Async_Read_Data_Blocking 36CE  
                   ??_GPIO_Pin_Toggle_Logic 0080                                    int$flags 0056  
                            _lcd_send_4bits 347E                       ??_GPIO_Pin_Initialize 002D  
                                _INTCONbits 000FF2             i2calc_parity_odd@number_of_ones 0004  
             calc_parity_odd@number_of_ones 0081                 __end_of_lcd_4bit_initialize 2B32  
           __end_ofi2_lcd_4bit_send_command 3A78                       ?_InterruptManagerHigh 0001  
              __size_of_Rx_config_interrupt 00A2                       ?_GPIO_Pin_Write_Logic 002A  
                                  intlevel1 0000                                    intlevel2 0000  
            i2lcd_4bit_send_command@command 0011                         _InterruptManagerLow 0018  
                i2calc_parity_odd@l_counter 0005    GPIO_Pin_Direction_Initialize@_pin_config 002A  
                                _RCSTA1bits 000FAB                      i2calc_parity_even@data 0003  
                    __end_of_lcd_send_4bits 3500          __end_of_EUSART_Async_Transmit_Data 308A  
                _EUSART_Async_Transmit_Data 2FA6                        ?_InterruptManagerLow 0001  
                  __end_ofi2_lcd_send_4bits 357A                              _port_registers 00D6  
                               ??_usart_isr 0020                                 _SSPCON1bits 000FC6  
                               _SSPCON2bits 000FC5             ??_lcd_4bit_send_string_data_pos 002D  
                             ___fladd@signs 0108            __size_ofi2_lcd_4bits_set_courser 00B0  
                     _lcd_4bits_set_courser 313C                                ___fladd@aexp 0109  
                              ___fladd@bexp 010A                EUSART_Async_Init@_eusart_obj 0119  
               lcd_4bit_send_char_data@data 008D                      __size_of_EUSART_Rx_ISR 002C  
                    __size_of_EUSART_Tx_ISR 0002                      lcd_4bit_initialize@lcd 008F  
