

Microchip MPLAB XC8 Assembler V2.36 build 20220127204148 
                                                                                               Fri Apr 07 16:23:52 2023

Microchip MPLAB XC8 C Compiler v2.36 (Free license) build 20220127204148 Og1 
     1                           	processor	18F46K20
     2                           	fnconf	rparam,??,?,0
     3                           	pagewidth 120
     4                           	opt	flic
     5                           	psect	idataCOMRAM,global,class=CODE,delta=1,noexec
     6                           	psect	idataBANK0,global,class=CODE,delta=1,noexec
     7                           	psect	smallconst,global,reloc=2,class=SMALLCONST,delta=1,noexec
     8                           	psect	cinit,global,reloc=2,class=CODE,delta=1
     9                           	psect	bssCOMRAM,global,class=COMRAM,space=1,delta=1,lowdata,noexec
    10                           	psect	dataCOMRAM,global,class=COMRAM,space=1,delta=1,lowdata,noexec
    11                           	psect	bssBANK0,global,class=BANK0,space=1,delta=1,lowdata,noexec
    12                           	psect	dataBANK0,global,class=BANK0,space=1,delta=1,lowdata,noexec
    13                           	psect	cstackBANK0,global,class=BANK0,space=1,delta=1,lowdata,noexec
    14                           	psect	cstackCOMRAM,global,class=COMRAM,space=1,delta=1,lowdata,noexec
    15                           	psect	text0,global,reloc=2,class=CODE,delta=1
    16                           	psect	text1,global,reloc=2,class=CODE,delta=1
    17                           	psect	text2,global,reloc=2,class=CODE,delta=1
    18                           	psect	text3,global,reloc=2,class=CODE,delta=1
    19                           	psect	text4,global,reloc=2,class=CODE,delta=1
    20                           	psect	text5,global,reloc=2,class=CODE,delta=1
    21                           	psect	text6,global,reloc=2,class=CODE,delta=1
    22                           	psect	text7,global,reloc=2,class=CODE,delta=1
    23                           	psect	text8,global,reloc=2,class=CODE,delta=1
    24                           	psect	text9,global,reloc=2,class=CODE,delta=1
    25                           	psect	text10,global,reloc=2,class=CODE,delta=1
    26                           	psect	text11,global,reloc=2,class=CODE,delta=1
    27                           	psect	text12,global,reloc=2,class=CODE,delta=1
    28                           	psect	text13,global,reloc=2,class=CODE,delta=1
    29                           	psect	text14,global,reloc=2,class=CODE,delta=1
    30                           	psect	text15,global,reloc=2,class=CODE,delta=1
    31                           	psect	text16,global,reloc=2,class=CODE,delta=1
    32                           	psect	text17,global,reloc=2,class=CODE,delta=1
    33                           	psect	text18,global,reloc=2,class=CODE,delta=1
    34                           	psect	text19,global,reloc=2,class=CODE,delta=1
    35                           	psect	text20,global,reloc=2,class=CODE,delta=1
    36                           	psect	text21,global,reloc=2,class=CODE,delta=1
    37                           	psect	text22,global,reloc=2,class=CODE,delta=1
    38                           	psect	text23,global,reloc=2,class=CODE,delta=1,group=1
    39                           	psect	text24,global,reloc=2,class=CODE,delta=1
    40                           	psect	text25,global,reloc=2,class=CODE,delta=1
    41                           	psect	text26,global,reloc=2,class=CODE,delta=1
    42                           	psect	text27,global,reloc=2,class=CODE,delta=1
    43                           	psect	text28,global,reloc=2,class=CODE,delta=1
    44                           	psect	text29,global,reloc=2,class=CODE,delta=1
    45                           	psect	text30,global,reloc=2,class=CODE,delta=1,group=1
    46                           	psect	text31,global,reloc=2,class=CODE,delta=1,group=1
    47                           	psect	text32,global,reloc=2,class=CODE,delta=1,group=1
    48                           	psect	text33,global,reloc=2,class=CODE,delta=1,group=1
    49                           	psect	text34,global,reloc=2,class=CODE,delta=1
    50                           	psect	text35,global,reloc=2,class=CODE,delta=1
    51                           	psect	text36,global,reloc=2,class=CODE,delta=1
    52                           	psect	intcodelo,global,reloc=2,class=CODE,delta=1
    53                           	psect	text38,global,reloc=2,class=CODE,delta=1
    54                           	psect	text39,global,reloc=2,class=CODE,delta=1
    55                           	psect	text40,global,reloc=2,class=CODE,delta=1
    56                           	psect	text41,global,reloc=2,class=CODE,delta=1
    57                           	psect	text42,global,reloc=2,class=CODE,delta=1
    58                           	psect	text43,global,reloc=2,class=CODE,delta=1
    59                           	psect	intcode,global,reloc=2,class=CODE,delta=1
    60                           	psect	intcode_body,global,reloc=2,class=CODE,delta=1
    61                           	psect	text45,global,reloc=2,class=CODE,delta=1
    62                           	psect	text46,global,reloc=2,class=CODE,delta=1
    63                           	psect	text47,global,reloc=2,class=CODE,delta=1
    64                           	psect	intsave_regs,global,class=BIGRAM,space=1,delta=1,noexec
    65                           	psect	rparam,global,class=COMRAM,space=1,delta=1,noexec
    66                           	psect	temp,global,ovrld,common,class=COMRAM,space=1,delta=1
    67                           	psect	idloc,global,abs,ovrld,class=IDLOC,space=5,delta=1,noexec
    68                           	psect	config,global,abs,ovrld,class=CONFIG,space=4,delta=1,noexec
    69  0000                     
    70                           ; Version 2.20
    71                           ; Generated 05/05/2020 GMT
    72                           ; 
    73                           ; Copyright © 2020, Microchip Technology Inc. and its subsidiaries ("Microchip")
    74                           ; All rights reserved.
    75                           ; 
    76                           ; This software is developed by Microchip Technology Inc. and its subsidiaries ("Microch
      +                          ip").
    77                           ; 
    78                           ; Redistribution and use in source and binary forms, with or without modification, are
    79                           ; permitted provided that the following conditions are met:
    80                           ; 
    81                           ;     1. Redistributions of source code must retain the above copyright notice, this lis
      +                          t of
    82                           ;        conditions and the following disclaimer.
    83                           ; 
    84                           ;     2. Redistributions in binary form must reproduce the above copyright notice, this 
      +                          list
    85                           ;        of conditions and the following disclaimer in the documentation and/or other
    86                           ;        materials provided with the distribution.
    87                           ; 
    88                           ;     3. Microchip's name may not be used to endorse or promote products derived from th
      +                          is
    89                           ;        software without specific prior written permission.
    90                           ; 
    91                           ; THIS SOFTWARE IS PROVIDED BY MICROCHIP "AS IS" AND ANY EXPRESS OR IMPLIED WARRANTIES,
    92                           ; INCLUDING, BUT NOT LIMITED TO, THE IMPLIED WARRANTIES OF MERCHANTABILITY AND FITNESS F
      +                          OR
    93                           ; PURPOSE ARE DISCLAIMED.  IN NO EVENT SHALL MICROCHIP BE LIABLE FOR ANY DIRECT, INDIREC
      +                          T,
    94                           ; INCIDENTAL, SPECIAL, EXEMPLARY, OR CONSEQUENTIAL DAMAGES (INCLUDING BUT NOT LIMITED TO
    95                           ; PROCUREMENT OF SUBSTITUTE GOODS OR SERVICES; LOSS OF USE, DATA OR PROFITS; OR BUSINESS
    96                           ; INTERRUPTION) HOWSOEVER CAUSED AND ON ANY THEORY OF LIABILITY, WHETHER IN CONTRACT, ST
      +                          RICT
    97                           ; LIABILITY, OR TORT (INCLUDING NEGLIGENCE OR OTHERWISE) ARISING IN ANY WAY OUT OF THE U
      +                          SE OF
    98                           ; THIS SOFTWARE, EVEN IF ADVISED OF THE POSSIBILITY OF SUCH DAMAGE.
    99                           ; 
   100                           ; 
   101                           ; Code-generator required, PIC18F46K20 Definitions
   102                           ; 
   103                           ; SFR Addresses
   104  0000                     
   105                           	psect	idataCOMRAM
   106  00349E                     __pidataCOMRAM:
   107                           	callstack 0
   108                           
   109                           ;initializer for _W2_W4_W6_Motor_Control@robot_navigation$F4504
   110  00349E  19                 	db	25
   111                           
   112                           ;initializer for _W1_W3_W5_Motor_Control@robot_navigation$F4498
   113  00349F  18                 	db	24
   114                           
   115                           ;initializer for _flags
   116  0034A0  0F                 	db	15
   117                           
   118                           	psect	idataBANK0
   119  00329A                     __pidataBANK0:
   120                           	callstack 0
   121                           
   122                           ;initializer for _port_registers
   123  00329A  80                 	db	128
   124  00329B  0F                 	db	15
   125  00329C  81                 	db	129
   126  00329D  0F                 	db	15
   127  00329E  82                 	db	130
   128  00329F  0F                 	db	15
   129  0032A0  83                 	db	131
   130  0032A1  0F                 	db	15
   131  0032A2  84                 	db	132
   132  0032A3  0F                 	db	15
   133                           
   134                           ;initializer for _lat_registers
   135  0032A4  89                 	db	137
   136  0032A5  0F                 	db	15
   137  0032A6  8A                 	db	138
   138  0032A7  0F                 	db	15
   139  0032A8  8B                 	db	139
   140  0032A9  0F                 	db	15
   141  0032AA  8C                 	db	140
   142  0032AB  0F                 	db	15
   143  0032AC  8D                 	db	141
   144  0032AD  0F                 	db	15
   145                           
   146                           ;initializer for _tris_registers
   147  0032AE  92                 	db	146
   148  0032AF  0F                 	db	15
   149  0032B0  93                 	db	147
   150  0032B1  0F                 	db	15
   151  0032B2  94                 	db	148
   152  0032B3  0F                 	db	15
   153  0032B4  95                 	db	149
   154  0032B5  0F                 	db	15
   155  0032B6  96                 	db	150
   156  0032B7  0F                 	db	15
   157                           
   158                           ;initializer for _CCP2_Obj
   159  0032B8  01                 	db	1
   160  0032B9  02                 	db	2
   161  0032BA  00                 	db	0
   162  0032BB  11                 	db	17
   163  0032BC  00                 	db	0
   164  0032BD  01F4               	dw	500
   165  0032BF  0000               	dw	0
   166  0032C1  F9                 	db	249
   167  0032C2  00                 	db	0
   168  0032C3  0F                 	db	15
   169                           
   170                           ;initializer for _CCP1_Obj
   171  0032C4  00                 	db	0
   172  0032C5  02                 	db	2
   173  0032C6  00                 	db	0
   174  0032C7  12                 	db	18
   175  0032C8  00                 	db	0
   176  0032C9  01F4               	dw	500
   177  0032CB  0000               	dw	0
   178  0032CD  F9                 	db	249
   179  0032CE  00                 	db	0
   180  0032CF  0F                 	db	15
   181                           
   182                           ;initializer for _i2c_obj
   183  0032D0  86A0               	dw	34464
   184  0032D2  0001               	dw	1
   185  0032D4  08                 	db	8
   186  0032D5  00                 	db	0
   187  0032D6  03                 	db	3
   188                           
   189                           ;initializer for _servo_driver_obj
   190  0032D7  80                 	db	128
   191  0032D8  79                 	db	121
   192  0032D9  21                 	db	33
   193  0032DA  04                 	db	4
   194                           
   195                           ;initializer for _pinc0
   196  0032DB  11                 	db	17
   197                           
   198                           ;initializer for _W2_W4_W6_Motor_Control
   199  0032DC  19                 	db	25
   200                           
   201                           ;initializer for _W1_W3_W5_Motor_Control
   202  0032DD  18                 	db	24
   203  0000                     _TMR2	set	4044
   204  0000                     _T2CONbits	set	4042
   205  0000                     _TMR1L	set	4046
   206  0000                     _TMR1H	set	4047
   207  0000                     _T1CONbits	set	4045
   208  0000                     _INTCON2bits	set	4081
   209  0000                     _SSPBUF	set	4041
   210  0000                     _SSPSTATbits	set	4039
   211  0000                     _SSPADD	set	4040
   212  0000                     _SSPCON2bits	set	4037
   213  0000                     _SSPCON1bits	set	4038
   214  0000                     _SPBRGH	set	4016
   215  0000                     _SPBRG	set	4015
   216  0000                     _RCONbits	set	4048
   217  0000                     _RCREG	set	4014
   218  0000                     _TXREG	set	4013
   219  0000                     _TRISCbits	set	3988
   220  0000                     _TXSTA1bits	set	4012
   221  0000                     _PR2	set	4043
   222  0000                     _ADCON1bits	set	4033
   223  0000                     _ADRESL	set	4035
   224  0000                     _ADRESH	set	4036
   225  0000                     _TRISD	set	3989
   226  0000                     _TRISB	set	3987
   227  0000                     _TRISE	set	3990
   228  0000                     _PORTDbits	set	3971
   229  0000                     _LATDbits	set	3980
   230  0000                     _TRISDbits	set	3989
   231  0000                     _TRISBbits	set	3987
   232  0000                     _PORTBbits	set	3969
   233  0000                     _RCSTA1bits	set	4011
   234  0000                     _TXSTAbits	set	4012
   235  0000                     _TRISC	set	3988
   236  0000                     _RX9D	set	32088
   237  0000                     _ADCON2bits	set	4032
   238  0000                     _ADCON0bits	set	4034
   239  0000                     _PORTA	set	3968
   240  0000                     _LATA	set	3977
   241  0000                     _TRISA	set	3986
   242  0000                     _PIE1bits	set	3997
   243  0000                     _RCSTAbits	set	4011
   244  0000                     _T3CONbits	set	4017
   245  0000                     _CCP2CONbits	set	4026
   246  0000                     _CCP1CONbits	set	4029
   247  0000                     _CCPR1L	set	4030
   248  0000                     _CCPR2L	set	4027
   249  0000                     _BAUDCONbits	set	4024
   250  0000                     _PIR2bits	set	4001
   251  0000                     _PIE2bits	set	4000
   252  0000                     _IPR1bits	set	3999
   253  0000                     _PIR1bits	set	3998
   254  0000                     _WDTCONbits	set	4049
   255  0000                     _T0CONbits	set	4053
   256  0000                     _INTCON3bits	set	4080
   257  0000                     _INTCONbits	set	4082
   258  0000                     _LATE	set	3981
   259  0000                     _LATD	set	3980
   260  0000                     _LATC	set	3979
   261  0000                     _LATB	set	3978
   262  0000                     _PORTE	set	3972
   263  0000                     _PORTD	set	3971
   264  0000                     _PORTC	set	3970
   265  0000                     _PORTB	set	3969
   266  0000                     _TMR0H	set	4055
   267  0000                     _TMR0L	set	4054
   268                           
   269                           	psect	smallconst
   270  001000                     __psmallconst:
   271                           	callstack 0
   272  001000  00                 	db	0
   273  001001  41                 	db	65	;'A'
   274  001002  54                 	db	84	;'T'
   275  001003  2B                 	db	43
   276  001004  55                 	db	85	;'U'
   277  001005  41                 	db	65	;'A'
   278  001006  52                 	db	82	;'R'
   279  001007  54                 	db	84	;'T'
   280  001008  3A                 	db	58	;':'
   281  001009  39                 	db	57	;'9'
   282  00100A  36                 	db	54	;'6'
   283  00100B  30                 	db	48	;'0'
   284  00100C  30                 	db	48	;'0'
   285  00100D  2C                 	db	44
   286  00100E  30                 	db	48	;'0'
   287  00100F  2C                 	db	44
   288  001010  30                 	db	48	;'0'
   289  001011  0D                 	db	13
   290  001012  0A                 	db	10
   291  001013  00                 	db	0
   292  001014  41                 	db	65	;'A'
   293  001015  54                 	db	84	;'T'
   294  001016  2B                 	db	43
   295  001017  52                 	db	82	;'R'
   296  001018  4E                 	db	78	;'N'
   297  001019  41                 	db	65	;'A'
   298  00101A  4D                 	db	77	;'M'
   299  00101B  45                 	db	69	;'E'
   300  00101C  3A                 	db	58	;':'
   301  00101D  52                 	db	82	;'R'
   302  00101E  6F                 	db	111	;'o'
   303  00101F  62                 	db	98	;'b'
   304  001020  6F                 	db	111	;'o'
   305  001021  74                 	db	116	;'t'
   306  001022  0D                 	db	13
   307  001023  0A                 	db	10
   308  001024  00                 	db	0
   309  001025  41                 	db	65	;'A'
   310  001026  54                 	db	84	;'T'
   311  001027  2B                 	db	43
   312  001028  50                 	db	80	;'P'
   313  001029  53                 	db	83	;'S'
   314  00102A  57                 	db	87	;'W'
   315  00102B  44                 	db	68	;'D'
   316  00102C  3A                 	db	58	;':'
   317  00102D  31                 	db	49	;'1'
   318  00102E  32                 	db	50	;'2'
   319  00102F  33                 	db	51	;'3'
   320  001030  34                 	db	52	;'4'
   321  001031  0D                 	db	13
   322  001032  0A                 	db	10
   323  001033  00                 	db	0
   324  001034  41                 	db	65	;'A'
   325  001035  54                 	db	84	;'T'
   326  001036  2B                 	db	43
   327  001037  52                 	db	82	;'R'
   328  001038  4F                 	db	79	;'O'
   329  001039  4C                 	db	76	;'L'
   330  00103A  45                 	db	69	;'E'
   331  00103B  3A                 	db	58	;':'
   332  00103C  30                 	db	48	;'0'
   333  00103D  0D                 	db	13
   334  00103E  0A                 	db	10
   335  00103F  00                 	db	0
   336  001040                     STR_9:
   337  001040  25                 	db	37
   338  001041  66                 	db	102	;'f'
   339  001042  00                 	db	0
   340  001043                     STR_5:
   341  001043  25                 	db	37
   342  001044  69                 	db	105	;'i'
   343  001045  00                 	db	0
   344  001046  00                 	db	0	; dummy byte at the end
   345  0000                     
   346                           ; #config settings
   347                           
   348                           	psect	cinit
   349  0031FA                     __pcinit:
   350                           	callstack 0
   351  0031FA                     start_initialization:
   352                           	callstack 0
   353  0031FA                     __initialization:
   354                           	callstack 0
   355                           
   356                           ; Initialize objects allocated to BANK0 (68 bytes)
   357                           ; load TBLPTR registers with __pidataBANK0
   358  0031FA  0E9A               	movlw	low __pidataBANK0
   359  0031FC  6EF6               	movwf	tblptrl,c
   360  0031FE  0E32               	movlw	high __pidataBANK0
   361  003200  6EF7               	movwf	tblptrh,c
   362  003202  0E00               	movlw	low (__pidataBANK0 shr (0+16))
   363  003204  6EF8               	movwf	tblptru,c
   364  003206  EE00  F060         	lfsr	0,__pdataBANK0
   365  00320A  EE10 F044          	lfsr	1,68
   366  00320E                     copy_data0:
   367  00320E  0009               	tblrd		*+
   368  003210  CFF5 FFEE          	movff	tablat,postinc0
   369  003214  50E5               	movf	postdec1,w,c
   370  003216  50E1               	movf	fsr1l,w,c
   371  003218  E1FA               	bnz	copy_data0
   372                           
   373                           ; Initialize objects allocated to COMRAM (3 bytes)
   374                           ; load TBLPTR registers with __pidataCOMRAM
   375  00321A  0E9E               	movlw	low __pidataCOMRAM
   376  00321C  6EF6               	movwf	tblptrl,c
   377  00321E  0E34               	movlw	high __pidataCOMRAM
   378  003220  6EF7               	movwf	tblptrh,c
   379  003222  0E00               	movlw	low (__pidataCOMRAM shr (0+16))
   380  003224  6EF8               	movwf	tblptru,c
   381  003226  0009               	tblrd		*+	;fetch initializer
   382  003228  CFF5 F057          	movff	tablat,__pdataCOMRAM
   383  00322C  0009               	tblrd		*+	;fetch initializer
   384  00322E  CFF5 F058          	movff	tablat,__pdataCOMRAM+1
   385  003232  0009               	tblrd		*+	;fetch initializer
   386  003234  CFF5 F059          	movff	tablat,__pdataCOMRAM+2
   387                           
   388                           ; Clear objects allocated to BANK0 (60 bytes)
   389  003238  EE00  F0A4         	lfsr	0,__pbssBANK0
   390  00323C  0E3C               	movlw	60
   391  00323E                     clear_0:
   392  00323E  6AEE               	clrf	postinc0,c
   393  003240  06E8               	decf	wreg,f,c
   394  003242  E1FD               	bnz	clear_0
   395                           
   396                           ; Clear objects allocated to COMRAM (1 bytes)
   397  003244  6A5A               	clrf	__pbssCOMRAM& (0+255),c
   398  003246                     end_of_initialization:
   399                           	callstack 0
   400  003246                     __end_of__initialization:
   401                           	callstack 0
   402  003246  905B               	bcf	int$flags,0,c	;clear compiler interrupt flag (level 1)
   403  003248  925B               	bcf	int$flags,1,c	;clear compiler interrupt flag (level 2)
   404  00324A  0100               	movlb	0
   405  00324C  EF40  F00F         	goto	_main	;jump to C main() function
   406                           
   407                           	psect	bssCOMRAM
   408  00005A                     __pbssCOMRAM:
   409                           	callstack 0
   410  00005A                     _Timer2_PreLoaded_Value_Store:
   411                           	callstack 0
   412  00005A                     	ds	1
   413                           
   414                           	psect	dataCOMRAM
   415  000057                     __pdataCOMRAM:
   416                           	callstack 0
   417  000057                     	ds	1
   418  000058                     	ds	1
   419  000059                     _flags:
   420                           	callstack 0
   421  000059                     	ds	1
   422                           
   423                           	psect	bssBANK0
   424  0000A4                     __pbssBANK0:
   425                           	callstack 0
   426  0000A4                     	ds	9
   427  0000AD                     	ds	6
   428  0000B3                     _string:
   429                           	callstack 0
   430  0000B3                     	ds	4
   431  0000B7                     _Timer1_Interrupt_Handler:
   432                           	callstack 0
   433  0000B7                     	ds	2
   434  0000B9                     _Timer1_PreLoaded_Value_Store:
   435                           	callstack 0
   436  0000B9                     	ds	2
   437  0000BB                     _preloaded_val:
   438                           	callstack 0
   439  0000BB                     	ds	2
   440  0000BD                     _RB7_InterruptHandler_LOW:
   441                           	callstack 0
   442  0000BD                     	ds	2
   443  0000BF                     _RB7_InterruptHandler_HIGH:
   444                           	callstack 0
   445  0000BF                     	ds	2
   446  0000C1                     _RB6_InterruptHandler_LOW:
   447                           	callstack 0
   448  0000C1                     	ds	2
   449  0000C3                     _RB6_InterruptHandler_HIGH:
   450                           	callstack 0
   451  0000C3                     	ds	2
   452  0000C5                     _RB5_InterruptHandler_LOW:
   453                           	callstack 0
   454  0000C5                     	ds	2
   455  0000C7                     _RB5_InterruptHandler_HIGH:
   456                           	callstack 0
   457  0000C7                     	ds	2
   458  0000C9                     _RB4_InterruptHandler_LOW:
   459                           	callstack 0
   460  0000C9                     	ds	2
   461  0000CB                     _RB4_InterruptHandler_HIGH:
   462                           	callstack 0
   463  0000CB                     	ds	2
   464  0000CD                     _INT2_InterruptHandler:
   465                           	callstack 0
   466  0000CD                     	ds	2
   467  0000CF                     _INT1_InterruptHandler:
   468                           	callstack 0
   469  0000CF                     	ds	2
   470  0000D1                     _INT0_InterruptHandler:
   471                           	callstack 0
   472  0000D1                     	ds	2
   473  0000D3                     	ds	2
   474  0000D5                     	ds	2
   475  0000D7                     	ds	2
   476  0000D9                     _eusart_frameerr_CallBack:
   477                           	callstack 0
   478  0000D9                     	ds	2
   479  0000DB                     _eusart_overrunerr_CallBack:
   480                           	callstack 0
   481  0000DB                     	ds	2
   482  0000DD                     _eusart_Rx_InterruptHandler:
   483                           	callstack 0
   484  0000DD                     	ds	2
   485  0000DF                     _Movement_State:
   486                           	callstack 0
   487  0000DF                     	ds	1
   488                           
   489                           	psect	dataBANK0
   490  000060                     __pdataBANK0:
   491                           	callstack 0
   492  000060                     _port_registers:
   493                           	callstack 0
   494  000060                     	ds	10
   495  00006A                     _lat_registers:
   496                           	callstack 0
   497  00006A                     	ds	10
   498  000074                     _tris_registers:
   499                           	callstack 0
   500  000074                     	ds	10
   501  00007E                     _CCP2_Obj:
   502                           	callstack 0
   503  00007E                     	ds	12
   504  00008A                     _CCP1_Obj:
   505                           	callstack 0
   506  00008A                     	ds	12
   507  000096                     _i2c_obj:
   508                           	callstack 0
   509  000096                     	ds	7
   510  00009D                     _servo_driver_obj:
   511                           	callstack 0
   512  00009D                     	ds	4
   513  0000A1                     _pinc0:
   514                           	callstack 0
   515  0000A1                     	ds	1
   516  0000A2                     _W2_W4_W6_Motor_Control:
   517                           	callstack 0
   518  0000A2                     	ds	1
   519  0000A3                     _W1_W3_W5_Motor_Control:
   520                           	callstack 0
   521  0000A3                     	ds	1
   522                           
   523                           	psect	cstackBANK0
   524  0000E0                     __pcstackBANK0:
   525                           	callstack 0
   526  0000E0                     ?___fltol:
   527                           	callstack 0
   528  0000E0                     ___fltol@f1:
   529                           	callstack 0
   530                           
   531                           ; 4 bytes @ 0x0
   532  0000E0                     	ds	4
   533  0000E4                     ??___fltol:
   534                           
   535                           ; 1 bytes @ 0x4
   536  0000E4                     	ds	4
   537  0000E8                     Servo_SetAngle@i2c_obj:
   538                           	callstack 0
   539  0000E8                     CCP_PWM_Set_Duty@_ccp_obj:
   540                           	callstack 0
   541  0000E8                     I2C_Master_Mode_Clock_Configurations@i2c_obj:
   542                           	callstack 0
   543                           
   544                           ; 2 bytes @ 0x8
   545  0000E8                     	ds	2
   546  0000EA                     ??_I2C_Master_Mode_Clock_Configurations:
   547  0000EA                     CCP_PWM_Set_Duty@_duty:
   548                           	callstack 0
   549  0000EA                     Servo_SetAngle@servo_driver_obj:
   550                           	callstack 0
   551                           
   552                           ; 2 bytes @ 0xA
   553  0000EA                     	ds	1
   554  0000EB                     ??_CCP_PWM_Set_Duty:
   555  0000EB                     MSSP_I2C_Init@i2c_obj:
   556                           	callstack 0
   557                           
   558                           ; 2 bytes @ 0xB
   559  0000EB                     	ds	1
   560  0000EC                     Servo_SetAngle@servo_no:
   561                           	callstack 0
   562                           
   563                           ; 1 bytes @ 0xC
   564  0000EC                     	ds	1
   565  0000ED                     Servo_SetAngle@angle:
   566                           	callstack 0
   567  0000ED                     ServoDriver_Init@i2c_obj:
   568                           	callstack 0
   569  0000ED                     _CCP_PWM_Set_Duty$5542:
   570                           	callstack 0
   571                           
   572                           ; 4 bytes @ 0xD
   573  0000ED                     	ds	1
   574  0000EE                     Servo_SetAngle@angle_in_reg:
   575                           	callstack 0
   576                           
   577                           ; 2 bytes @ 0xE
   578  0000EE                     	ds	1
   579  0000EF                     ServoDriver_Init@servo_driver_obj:
   580                           	callstack 0
   581                           
   582                           ; 2 bytes @ 0xF
   583  0000EF                     	ds	1
   584  0000F0                     Servo_SetAngle@reg_addrees:
   585                           	callstack 0
   586                           
   587                           ; 1 bytes @ 0x10
   588  0000F0                     	ds	1
   589  0000F1                     CCP_PWM_Set_Duty@l_duty_temp:
   590                           	callstack 0
   591                           
   592                           ; 2 bytes @ 0x11
   593  0000F1                     	ds	2
   594  0000F3                     ??_main:
   595                           
   596                           ; 1 bytes @ 0x13
   597  0000F3                     	ds	2
   598                           
   599                           	psect	cstackCOMRAM
   600  000001                     __pcstackCOMRAM:
   601                           	callstack 0
   602  000001                     RB4_ISR@Handler_Select:
   603                           	callstack 0
   604  000001                     RB5_ISR@Handler_Select:
   605                           	callstack 0
   606  000001                     RB6_ISR@Handler_Select:
   607                           	callstack 0
   608  000001                     RB7_ISR@Handler_Select:
   609                           	callstack 0
   610                           
   611                           ; 1 bytes @ 0x0
   612  000001                     	ds	1
   613  000002                     ??_InterruptManagerLow:
   614                           
   615                           ; 1 bytes @ 0x1
   616  000002                     	ds	3
   617  000005                     ?___xxtofl:
   618                           	callstack 0
   619  000005                     CCP_PWM_Start@_ccp_obj:
   620                           	callstack 0
   621  000005                     CCP_Interrupt_Config@_ccp_obj:
   622                           	callstack 0
   623  000005                     CCP_Mode_Timer_Select@_ccp_obj:
   624                           	callstack 0
   625  000005                     GPIO_Pin_Direction_Initialize@_pin_config:
   626                           	callstack 0
   627  000005                     GPIO_Pin_Write_Logic@_pin_config:
   628                           	callstack 0
   629  000005                     GPIO_Pin_Toggle_Logic@_pin_config:
   630                           	callstack 0
   631  000005                     MSSP_I2C_Master_Send_Start@i2c_obj:
   632                           	callstack 0
   633  000005                     MSSP_I2C_Master_Send_Stop@i2c_obj:
   634                           	callstack 0
   635  000005                     MSSP_I2C_Master_Write_Blocking@i2c_obj:
   636                           	callstack 0
   637  000005                     I2C_Slave_Mode_Clock_Configurations@i2c_obj:
   638                           	callstack 0
   639  000005                     Timer2_Init@_timer2:
   640                           	callstack 0
   641  000005                     ___xxtofl@val:
   642                           	callstack 0
   643                           
   644                           ; 4 bytes @ 0x4
   645  000005                     	ds	2
   646  000007                     ??_GPIO_Pin_Direction_Initialize:
   647  000007                     ??_Timer2_Init:
   648  000007                     ??_I2C_Slave_Mode_Clock_Configurations:
   649  000007                     ??_GPIO_Pin_Toggle_Logic:
   650  000007                     GPIO_Pin_Write_Logic@logic:
   651                           	callstack 0
   652  000007                     MSSP_I2C_Master_Write_Blocking@i2c_data:
   653                           	callstack 0
   654                           
   655                           ; 1 bytes @ 0x6
   656  000007                     	ds	1
   657  000008                     ??_GPIO_Pin_Write_Logic:
   658  000008                     CCP_PWM_Mode_Config@_ccp_obj:
   659                           	callstack 0
   660  000008                     CCP_Capture_Mode_Config@_ccp_obj:
   661                           	callstack 0
   662  000008                     CCP_Compare_Mode_Config@_ccp_obj:
   663                           	callstack 0
   664  000008                     MSSP_I2C_Master_Write_Blocking@_ack:
   665                           	callstack 0
   666                           
   667                           ; 2 bytes @ 0x7
   668  000008                     	ds	1
   669  000009                     ??___xxtofl:
   670                           
   671                           ; 1 bytes @ 0x8
   672  000009                     	ds	1
   673  00000A                     ??_CCP_Capture_Mode_Config:
   674  00000A                     ??_CCP_Compare_Mode_Config:
   675  00000A                     PCA_Write_Reg@i2c_obj:
   676                           	callstack 0
   677                           
   678                           ; 2 bytes @ 0x9
   679  00000A                     	ds	2
   680  00000C                     PCA_Write_Reg@slave_address:
   681                           	callstack 0
   682  00000C                     CCP_Capture_Mode_Config@ret:
   683                           	callstack 0
   684  00000C                     CCP_Compare_Mode_Config@ret:
   685                           	callstack 0
   686                           
   687                           ; 1 bytes @ 0xB
   688  00000C                     	ds	1
   689  00000D                     PCA_Write_Reg@reg_address:
   690                           	callstack 0
   691  00000D                     GPIO_Pin_Direction_Initialize@ERRORSTATUS:
   692                           	callstack 0
   693  00000D                     ___xxtofl@sign:
   694                           	callstack 0
   695                           
   696                           ; 1 bytes @ 0xC
   697  00000D                     	ds	1
   698  00000E                     PCA_Write_Reg@data:
   699                           	callstack 0
   700  00000E                     GPIO_Pin_Write_Logic@ERRORSTATUS:
   701                           	callstack 0
   702  00000E                     ___xxtofl@exp:
   703                           	callstack 0
   704                           
   705                           ; 1 bytes @ 0xD
   706  00000E                     	ds	1
   707  00000F                     PCA_Write_Reg@ack:
   708                           	callstack 0
   709  00000F                     ECU_DC_Motor_Run_Left@dc_motor:
   710                           	callstack 0
   711  00000F                     ECU_DC_Motor_Run_Right@dc_motor:
   712                           	callstack 0
   713  00000F                     GPIO_Pin_Initialize@_pin_config:
   714                           	callstack 0
   715  00000F                     ___xxtofl@arg:
   716                           	callstack 0
   717                           
   718                           ; 4 bytes @ 0xE
   719  00000F                     	ds	2
   720  000011                     GPIO_Pin_Initialize@ERRORSTATUS:
   721                           	callstack 0
   722                           
   723                           ; 1 bytes @ 0x10
   724  000011                     	ds	1
   725  000012                     ECU_DC_Motor_Init@dc_motor:
   726                           	callstack 0
   727  000012                     CCP_Init@_ccp_obj:
   728                           	callstack 0
   729                           
   730                           ; 2 bytes @ 0x11
   731  000012                     	ds	1
   732  000013                     ?___fldiv:
   733                           	callstack 0
   734  000013                     ___fldiv@b:
   735                           	callstack 0
   736                           
   737                           ; 4 bytes @ 0x12
   738  000013                     	ds	1
   739  000014                     
   740                           ; 1 bytes @ 0x13
   741  000014                     	ds	3
   742  000017                     ___fldiv@a:
   743                           	callstack 0
   744                           
   745                           ; 4 bytes @ 0x16
   746  000017                     	ds	4
   747  00001B                     ??___fldiv:
   748                           
   749                           ; 1 bytes @ 0x1A
   750  00001B                     	ds	4
   751  00001F                     ___fldiv@rem:
   752                           	callstack 0
   753                           
   754                           ; 4 bytes @ 0x1E
   755  00001F                     	ds	4
   756  000023                     ___fldiv@sign:
   757                           	callstack 0
   758                           
   759                           ; 1 bytes @ 0x22
   760  000023                     	ds	1
   761  000024                     ___fldiv@new_exp:
   762                           	callstack 0
   763                           
   764                           ; 2 bytes @ 0x23
   765  000024                     	ds	2
   766  000026                     ___fldiv@grs:
   767                           	callstack 0
   768                           
   769                           ; 4 bytes @ 0x25
   770  000026                     	ds	4
   771  00002A                     ___fldiv@bexp:
   772                           	callstack 0
   773                           
   774                           ; 1 bytes @ 0x29
   775  00002A                     	ds	1
   776  00002B                     ___fldiv@aexp:
   777                           	callstack 0
   778                           
   779                           ; 1 bytes @ 0x2A
   780  00002B                     	ds	1
   781  00002C                     ?___flmul:
   782                           	callstack 0
   783  00002C                     ___flmul@b:
   784                           	callstack 0
   785                           
   786                           ; 4 bytes @ 0x2B
   787  00002C                     	ds	4
   788  000030                     ___flmul@a:
   789                           	callstack 0
   790                           
   791                           ; 4 bytes @ 0x2F
   792  000030                     	ds	4
   793  000034                     ??___flmul:
   794                           
   795                           ; 1 bytes @ 0x33
   796  000034                     	ds	4
   797  000038                     ___flmul@sign:
   798                           	callstack 0
   799                           
   800                           ; 1 bytes @ 0x37
   801  000038                     	ds	1
   802  000039                     ___flmul@grs:
   803                           	callstack 0
   804                           
   805                           ; 4 bytes @ 0x38
   806  000039                     	ds	4
   807  00003D                     ___flmul@aexp:
   808                           	callstack 0
   809                           
   810                           ; 1 bytes @ 0x3C
   811  00003D                     	ds	1
   812  00003E                     ___flmul@bexp:
   813                           	callstack 0
   814                           
   815                           ; 1 bytes @ 0x3D
   816  00003E                     	ds	1
   817  00003F                     ___flmul@prod:
   818                           	callstack 0
   819                           
   820                           ; 4 bytes @ 0x3E
   821  00003F                     	ds	4
   822  000043                     ___flmul@temp:
   823                           	callstack 0
   824                           
   825                           ; 2 bytes @ 0x42
   826  000043                     	ds	2
   827  000045                     ?___fladd:
   828                           	callstack 0
   829  000045                     ___fladd@b:
   830                           	callstack 0
   831                           
   832                           ; 4 bytes @ 0x44
   833  000045                     	ds	4
   834  000049                     ___fladd@a:
   835                           	callstack 0
   836                           
   837                           ; 4 bytes @ 0x48
   838  000049                     	ds	4
   839  00004D                     ??___fladd:
   840                           
   841                           ; 1 bytes @ 0x4C
   842  00004D                     	ds	4
   843  000051                     ___fladd@signs:
   844                           	callstack 0
   845                           
   846                           ; 1 bytes @ 0x50
   847  000051                     	ds	1
   848  000052                     ___fladd@aexp:
   849                           	callstack 0
   850                           
   851                           ; 1 bytes @ 0x51
   852  000052                     	ds	1
   853  000053                     ___fladd@bexp:
   854                           	callstack 0
   855                           
   856                           ; 1 bytes @ 0x52
   857  000053                     	ds	1
   858  000054                     ___fladd@grs:
   859                           	callstack 0
   860                           
   861                           ; 1 bytes @ 0x53
   862  000054                     	ds	1
   863  000055                     ___fltol@sign1:
   864                           	callstack 0
   865                           
   866                           ; 1 bytes @ 0x54
   867  000055                     	ds	1
   868  000056                     ___fltol@exp1:
   869                           	callstack 0
   870                           
   871                           ; 1 bytes @ 0x55
   872  000056                     	ds	1
   873  000057                     
   874                           ; 1 bytes @ 0x56
   875 ;;
   876 ;;Main: autosize = 0, tempsize = 2, incstack = 0, save=0
   877 ;;
   878 ;; *************** function _main *****************
   879 ;; Defined at:
   880 ;;		line 19 in file "application.c"
   881 ;; Parameters:    Size  Location     Type
   882 ;;		None
   883 ;; Auto vars:     Size  Location     Type
   884 ;;		None
   885 ;; Return value:  Size  Location     Type
   886 ;;                  2  1797[None  ] int 
   887 ;; Registers used:
   888 ;;		wreg, fsr2l, fsr2h, status,2, status,0, prodl, prodh, cstack
   889 ;; Tracked objects:
   890 ;;		On entry : 0/0
   891 ;;		On exit  : 0/0
   892 ;;		Unchanged: 0/0
   893 ;; Data sizes:     COMRAM   BANK0   BANK1   BANK2   BANK3   BANK4   BANK5   BANK6   BANK7   BANK8   BANK9  BANK10  BANK1
      +1  BANK12  BANK13  BANK14  BANK15
   894 ;;      Params:         0       0       0       0       0       0       0       0       0       0       0       0       
      +0       0       0       0       0
   895 ;;      Locals:         0       0       0       0       0       0       0       0       0       0       0       0       
      +0       0       0       0       0
   896 ;;      Temps:          0       2       0       0       0       0       0       0       0       0       0       0       
      +0       0       0       0       0
   897 ;;      Totals:         0       2       0       0       0       0       0       0       0       0       0       0       
      +0       0       0       0       0
   898 ;;Total ram usage:        2 bytes
   899 ;; Hardware stack levels required when called: 10
   900 ;; This function calls:
   901 ;;		_CCP_PWM_Set_Duty
   902 ;;		_GPIO_Pin_Toggle_Logic
   903 ;;		_Robot_Move_Backward
   904 ;;		_Robot_Move_Forward
   905 ;;		_Robot_Steer_Stop
   906 ;;		_application_intialize
   907 ;; This function is called by:
   908 ;;		Startup code after reset
   909 ;; This function uses a non-reentrant model
   910 ;;
   911                           
   912                           	psect	text0
   913  001E80                     __ptext0:
   914                           	callstack 0
   915  001E80                     _main:
   916                           	callstack 21
   917  001E80                     
   918                           ;application.c: 21:     application_intialize();
   919  001E80  EC41  F01A         	call	_application_intialize	;wreg free
   920                           
   921                           ;application.c: 22:     GPIO_Pin_Toggle_Logic(&pinc0);
   922  001E84  0EA1               	movlw	low _pinc0
   923  001E86  6E05               	movwf	GPIO_Pin_Toggle_Logic@_pin_config^0,c
   924  001E88  0E00               	movlw	high _pinc0
   925  001E8A  6E06               	movwf	(GPIO_Pin_Toggle_Logic@_pin_config+1)^0,c
   926  001E8C  ECF9  F017         	call	_GPIO_Pin_Toggle_Logic	;wreg free
   927  001E90                     l1798:
   928                           
   929                           ;application.c: 24:     {;application.c: 25:       GPIO_Pin_Toggle_Logic(&pinc0);
   930  001E90  0EA1               	movlw	low _pinc0
   931  001E92  6E05               	movwf	GPIO_Pin_Toggle_Logic@_pin_config^0,c
   932  001E94  0E00               	movlw	high _pinc0
   933  001E96  6E06               	movwf	(GPIO_Pin_Toggle_Logic@_pin_config+1)^0,c
   934  001E98  ECF9  F017         	call	_GPIO_Pin_Toggle_Logic	;wreg free
   935                           
   936                           ;application.c: 27:       Robot_Steer_Stop();
   937  001E9C  ECE8  F019         	call	_Robot_Steer_Stop	;wreg free
   938  001EA0                     
   939                           ;application.c: 28:       _delay((unsigned long)((1000)*(8000000/4000.0)));
   940  001EA0  0E0B               	movlw	11
   941  001EA2  0100               	movlb	0	; () banked
   942  001EA4  6FF4               	movwf	(??_main+1)& (0+255),b
   943  001EA6  0E26               	movlw	38
   944  001EA8  6FF3               	movwf	??_main& (0+255),b
   945  001EAA  0E5D               	movlw	93
   946  001EAC                     u8407:
   947  001EAC  2EE8               	decfsz	wreg,f,c
   948  001EAE  D7FE               	bra	u8407
   949  001EB0  2FF3               	decfsz	??_main& (0+255),f,b
   950  001EB2  D7FC               	bra	u8407
   951  001EB4  2FF4               	decfsz	(??_main+1)& (0+255),f,b
   952  001EB6  D7FA               	bra	u8407
   953  001EB8  F000 F000          	nop2	
   954  001EBC                     
   955                           ;application.c: 29:       Robot_Move_Forward();
   956  001EBC  ECBA  F015         	call	_Robot_Move_Forward	;wreg free
   957                           
   958                           ;application.c: 30:       _delay((unsigned long)((1000)*(8000000/4000.0)));
   959  001EC0  0E0B               	movlw	11
   960  001EC2  0100               	movlb	0	; () banked
   961  001EC4  6FF4               	movwf	(??_main+1)& (0+255),b
   962  001EC6  0E26               	movlw	38
   963  001EC8  6FF3               	movwf	??_main& (0+255),b
   964  001ECA  0E5D               	movlw	93
   965  001ECC                     u8417:
   966  001ECC  2EE8               	decfsz	wreg,f,c
   967  001ECE  D7FE               	bra	u8417
   968  001ED0  2FF3               	decfsz	??_main& (0+255),f,b
   969  001ED2  D7FC               	bra	u8417
   970  001ED4  2FF4               	decfsz	(??_main+1)& (0+255),f,b
   971  001ED6  D7FA               	bra	u8417
   972  001ED8  F000 F000          	nop2	
   973  001EDC                     
   974                           ;application.c: 31:       Robot_Steer_Stop();
   975  001EDC  ECE8  F019         	call	_Robot_Steer_Stop	;wreg free
   976  001EE0                     
   977                           ;application.c: 32:       _delay((unsigned long)((1000)*(8000000/4000.0)));
   978  001EE0  0E0B               	movlw	11
   979  001EE2  0100               	movlb	0	; () banked
   980  001EE4  6FF4               	movwf	(??_main+1)& (0+255),b
   981  001EE6  0E26               	movlw	38
   982  001EE8  6FF3               	movwf	??_main& (0+255),b
   983  001EEA  0E5D               	movlw	93
   984  001EEC                     u8427:
   985  001EEC  2EE8               	decfsz	wreg,f,c
   986  001EEE  D7FE               	bra	u8427
   987  001EF0  2FF3               	decfsz	??_main& (0+255),f,b
   988  001EF2  D7FC               	bra	u8427
   989  001EF4  2FF4               	decfsz	(??_main+1)& (0+255),f,b
   990  001EF6  D7FA               	bra	u8427
   991  001EF8  F000 F000          	nop2	
   992                           
   993                           ;application.c: 33:       Robot_Move_Backward();
   994  001EFC  EC1A  F016         	call	_Robot_Move_Backward	;wreg free
   995  001F00                     
   996                           ;application.c: 34:       _delay((unsigned long)((1000)*(8000000/4000.0)));
   997  001F00  0E0B               	movlw	11
   998  001F02  0100               	movlb	0	; () banked
   999  001F04  6FF4               	movwf	(??_main+1)& (0+255),b
  1000  001F06  0E26               	movlw	38
  1001  001F08  6FF3               	movwf	??_main& (0+255),b
  1002  001F0A  0E5D               	movlw	93
  1003  001F0C                     u8437:
  1004  001F0C  2EE8               	decfsz	wreg,f,c
  1005  001F0E  D7FE               	bra	u8437
  1006  001F10  2FF3               	decfsz	??_main& (0+255),f,b
  1007  001F12  D7FC               	bra	u8437
  1008  001F14  2FF4               	decfsz	(??_main+1)& (0+255),f,b
  1009  001F16  D7FA               	bra	u8437
  1010  001F18  F000 F000          	nop2	
  1011  001F1C                     
  1012                           ;application.c: 35:       Robot_Steer_Stop();
  1013  001F1C  ECE8  F019         	call	_Robot_Steer_Stop	;wreg free
  1014                           
  1015                           ;application.c: 36:       _delay((unsigned long)((1000)*(8000000/4000.0)));
  1016  001F20  0E0B               	movlw	11
  1017  001F22  0100               	movlb	0	; () banked
  1018  001F24  6FF4               	movwf	(??_main+1)& (0+255),b
  1019  001F26  0E26               	movlw	38
  1020  001F28  6FF3               	movwf	??_main& (0+255),b
  1021  001F2A  0E5D               	movlw	93
  1022  001F2C                     u8447:
  1023  001F2C  2EE8               	decfsz	wreg,f,c
  1024  001F2E  D7FE               	bra	u8447
  1025  001F30  2FF3               	decfsz	??_main& (0+255),f,b
  1026  001F32  D7FC               	bra	u8447
  1027  001F34  2FF4               	decfsz	(??_main+1)& (0+255),f,b
  1028  001F36  D7FA               	bra	u8447
  1029  001F38  F000 F000          	nop2	
  1030  001F3C                     
  1031                           ;application.c: 37:       CCP_PWM_Set_Duty(&CCP1_Obj,60);
  1032  001F3C  0E8A               	movlw	low _CCP1_Obj
  1033  001F3E  0100               	movlb	0	; () banked
  1034  001F40  6FE8               	movwf	CCP_PWM_Set_Duty@_ccp_obj& (0+255),b
  1035  001F42  0E00               	movlw	high _CCP1_Obj
  1036  001F44  6FE9               	movwf	(CCP_PWM_Set_Duty@_ccp_obj+1)& (0+255),b
  1037  001F46  0E3C               	movlw	60
  1038  001F48  6FEA               	movwf	CCP_PWM_Set_Duty@_duty& (0+255),b
  1039  001F4A  EC04  F010         	call	_CCP_PWM_Set_Duty	;wreg free
  1040  001F4E                     
  1041                           ;application.c: 38:       _delay((unsigned long)((2000)*(8000000/4000.0)));
  1042  001F4E  0E15               	movlw	21
  1043  001F50  0100               	movlb	0	; () banked
  1044  001F52  6FF4               	movwf	(??_main+1)& (0+255),b
  1045  001F54  0E4B               	movlw	75
  1046  001F56  6FF3               	movwf	??_main& (0+255),b
  1047  001F58  0EBE               	movlw	190
  1048  001F5A                     u8457:
  1049  001F5A  2EE8               	decfsz	wreg,f,c
  1050  001F5C  D7FE               	bra	u8457
  1051  001F5E  2FF3               	decfsz	??_main& (0+255),f,b
  1052  001F60  D7FC               	bra	u8457
  1053  001F62  2FF4               	decfsz	(??_main+1)& (0+255),f,b
  1054  001F64  D7FA               	bra	u8457
  1055  001F66  F000               	nop	
  1056                           
  1057                           ;application.c: 39:       Robot_Steer_Stop();
  1058  001F68  ECE8  F019         	call	_Robot_Steer_Stop	;wreg free
  1059  001F6C                     
  1060                           ;application.c: 40:       _delay((unsigned long)((1000)*(8000000/4000.0)));
  1061  001F6C  0E0B               	movlw	11
  1062  001F6E  0100               	movlb	0	; () banked
  1063  001F70  6FF4               	movwf	(??_main+1)& (0+255),b
  1064  001F72  0E26               	movlw	38
  1065  001F74  6FF3               	movwf	??_main& (0+255),b
  1066  001F76  0E5D               	movlw	93
  1067  001F78                     u8467:
  1068  001F78  2EE8               	decfsz	wreg,f,c
  1069  001F7A  D7FE               	bra	u8467
  1070  001F7C  2FF3               	decfsz	??_main& (0+255),f,b
  1071  001F7E  D7FC               	bra	u8467
  1072  001F80  2FF4               	decfsz	(??_main+1)& (0+255),f,b
  1073  001F82  D7FA               	bra	u8467
  1074  001F84  F000 F000          	nop2	
  1075  001F88                     
  1076                           ;application.c: 41:       CCP_PWM_Set_Duty(&CCP1_Obj,70);
  1077  001F88  0E8A               	movlw	low _CCP1_Obj
  1078  001F8A  0100               	movlb	0	; () banked
  1079  001F8C  6FE8               	movwf	CCP_PWM_Set_Duty@_ccp_obj& (0+255),b
  1080  001F8E  0E00               	movlw	high _CCP1_Obj
  1081  001F90  6FE9               	movwf	(CCP_PWM_Set_Duty@_ccp_obj+1)& (0+255),b
  1082  001F92  0E46               	movlw	70
  1083  001F94  6FEA               	movwf	CCP_PWM_Set_Duty@_duty& (0+255),b
  1084  001F96  EC04  F010         	call	_CCP_PWM_Set_Duty	;wreg free
  1085                           
  1086                           ;application.c: 42:       _delay((unsigned long)((2000)*(8000000/4000.0)));
  1087  001F9A  0E15               	movlw	21
  1088  001F9C  0100               	movlb	0	; () banked
  1089  001F9E  6FF4               	movwf	(??_main+1)& (0+255),b
  1090  001FA0  0E4B               	movlw	75
  1091  001FA2  6FF3               	movwf	??_main& (0+255),b
  1092  001FA4  0EBE               	movlw	190
  1093  001FA6                     u8477:
  1094  001FA6  2EE8               	decfsz	wreg,f,c
  1095  001FA8  D7FE               	bra	u8477
  1096  001FAA  2FF3               	decfsz	??_main& (0+255),f,b
  1097  001FAC  D7FC               	bra	u8477
  1098  001FAE  2FF4               	decfsz	(??_main+1)& (0+255),f,b
  1099  001FB0  D7FA               	bra	u8477
  1100  001FB2  F000               	nop	
  1101  001FB4                     
  1102                           ;application.c: 43:       Robot_Steer_Stop();
  1103  001FB4  ECE8  F019         	call	_Robot_Steer_Stop	;wreg free
  1104  001FB8                     
  1105                           ;application.c: 44:       _delay((unsigned long)((1000)*(8000000/4000.0)));
  1106  001FB8  0E0B               	movlw	11
  1107  001FBA  0100               	movlb	0	; () banked
  1108  001FBC  6FF4               	movwf	(??_main+1)& (0+255),b
  1109  001FBE  0E26               	movlw	38
  1110  001FC0  6FF3               	movwf	??_main& (0+255),b
  1111  001FC2  0E5D               	movlw	93
  1112  001FC4                     u8487:
  1113  001FC4  2EE8               	decfsz	wreg,f,c
  1114  001FC6  D7FE               	bra	u8487
  1115  001FC8  2FF3               	decfsz	??_main& (0+255),f,b
  1116  001FCA  D7FC               	bra	u8487
  1117  001FCC  2FF4               	decfsz	(??_main+1)& (0+255),f,b
  1118  001FCE  D7FA               	bra	u8487
  1119  001FD0  F000 F000          	nop2	
  1120                           
  1121                           ;application.c: 45:       CCP_PWM_Set_Duty(&CCP1_Obj,80);
  1122  001FD4  0E8A               	movlw	low _CCP1_Obj
  1123  001FD6  0100               	movlb	0	; () banked
  1124  001FD8  6FE8               	movwf	CCP_PWM_Set_Duty@_ccp_obj& (0+255),b
  1125  001FDA  0E00               	movlw	high _CCP1_Obj
  1126  001FDC  6FE9               	movwf	(CCP_PWM_Set_Duty@_ccp_obj+1)& (0+255),b
  1127  001FDE  0E50               	movlw	80
  1128  001FE0  6FEA               	movwf	CCP_PWM_Set_Duty@_duty& (0+255),b
  1129  001FE2  EC04  F010         	call	_CCP_PWM_Set_Duty	;wreg free
  1130  001FE6                     
  1131                           ;application.c: 46:      _delay((unsigned long)((2000)*(8000000/4000.0)));
  1132  001FE6  0E15               	movlw	21
  1133  001FE8  0100               	movlb	0	; () banked
  1134  001FEA  6FF4               	movwf	(??_main+1)& (0+255),b
  1135  001FEC  0E4B               	movlw	75
  1136  001FEE  6FF3               	movwf	??_main& (0+255),b
  1137  001FF0  0EBE               	movlw	190
  1138  001FF2                     u8497:
  1139  001FF2  2EE8               	decfsz	wreg,f,c
  1140  001FF4  D7FE               	bra	u8497
  1141  001FF6  2FF3               	decfsz	??_main& (0+255),f,b
  1142  001FF8  D7FC               	bra	u8497
  1143  001FFA  2FF4               	decfsz	(??_main+1)& (0+255),f,b
  1144  001FFC  D7FA               	bra	u8497
  1145  001FFE  F000               	nop	
  1146  002000  EF48  F00F         	goto	l1798
  1147  002004  EF43  F001         	goto	start
  1148  002008                     __end_of_main:
  1149                           	callstack 0
  1150                           
  1151 ;; *************** function _application_intialize *****************
  1152 ;; Defined at:
  1153 ;;		line 50 in file "application.c"
  1154 ;; Parameters:    Size  Location     Type
  1155 ;;		None
  1156 ;; Auto vars:     Size  Location     Type
  1157 ;;		None
  1158 ;; Return value:  Size  Location     Type
  1159 ;;                  1    wreg      void 
  1160 ;; Registers used:
  1161 ;;		wreg, fsr2l, fsr2h, status,2, status,0, prodl, prodh, cstack
  1162 ;; Tracked objects:
  1163 ;;		On entry : 0/0
  1164 ;;		On exit  : 0/0
  1165 ;;		Unchanged: 0/0
  1166 ;; Data sizes:     COMRAM   BANK0   BANK1   BANK2   BANK3   BANK4   BANK5   BANK6   BANK7   BANK8   BANK9  BANK10  BANK1
      +1  BANK12  BANK13  BANK14  BANK15
  1167 ;;      Params:         0       0       0       0       0       0       0       0       0       0       0       0       
      +0       0       0       0       0
  1168 ;;      Locals:         0       0       0       0       0       0       0       0       0       0       0       0       
      +0       0       0       0       0
  1169 ;;      Temps:          0       0       0       0       0       0       0       0       0       0       0       0       
      +0       0       0       0       0
  1170 ;;      Totals:         0       0       0       0       0       0       0       0       0       0       0       0       
      +0       0       0       0       0
  1171 ;;Total ram usage:        0 bytes
  1172 ;; Hardware stack levels used: 1
  1173 ;; Hardware stack levels required when called: 9
  1174 ;; This function calls:
  1175 ;;		_GPIO_Pin_Initialize
  1176 ;;		_Robot_Nav_Init
  1177 ;; This function is called by:
  1178 ;;		_main
  1179 ;; This function uses a non-reentrant model
  1180 ;;
  1181                           
  1182                           	psect	text1
  1183  003482                     __ptext1:
  1184                           	callstack 0
  1185  003482                     _application_intialize:
  1186                           	callstack 21
  1187  003482                     
  1188                           ;application.c: 52:     GPIO_Pin_Initialize(&pinc0);
  1189  003482  0EA1               	movlw	low _pinc0
  1190  003484  6E0F               	movwf	GPIO_Pin_Initialize@_pin_config^0,c
  1191  003486  0E00               	movlw	high _pinc0
  1192  003488  6E10               	movwf	(GPIO_Pin_Initialize@_pin_config+1)^0,c
  1193  00348A  EC28  F019         	call	_GPIO_Pin_Initialize	;wreg free
  1194                           
  1195                           ;application.c: 53:     Robot_Nav_Init();
  1196  00348E  EC7F  F017         	call	_Robot_Nav_Init	;wreg free
  1197  003492  0012               	return		;funcret
  1198  003494                     __end_of_application_intialize:
  1199                           	callstack 0
  1200                           
  1201 ;; *************** function _Robot_Nav_Init *****************
  1202 ;; Defined at:
  1203 ;;		line 9 in file "Robot/Navigation/robot_navigation.c"
  1204 ;; Parameters:    Size  Location     Type
  1205 ;;		None
  1206 ;; Auto vars:     Size  Location     Type
  1207 ;;  ret_val         1    0        unsigned char 
  1208 ;; Return value:  Size  Location     Type
  1209 ;;                  1    wreg      unsigned char 
  1210 ;; Registers used:
  1211 ;;		wreg, fsr2l, fsr2h, status,2, status,0, prodl, prodh, cstack
  1212 ;; Tracked objects:
  1213 ;;		On entry : 0/0
  1214 ;;		On exit  : 0/0
  1215 ;;		Unchanged: 0/0
  1216 ;; Data sizes:     COMRAM   BANK0   BANK1   BANK2   BANK3   BANK4   BANK5   BANK6   BANK7   BANK8   BANK9  BANK10  BANK1
      +1  BANK12  BANK13  BANK14  BANK15
  1217 ;;      Params:         0       0       0       0       0       0       0       0       0       0       0       0       
      +0       0       0       0       0
  1218 ;;      Locals:         0       0       0       0       0       0       0       0       0       0       0       0       
      +0       0       0       0       0
  1219 ;;      Temps:          0       0       0       0       0       0       0       0       0       0       0       0       
      +0       0       0       0       0
  1220 ;;      Totals:         0       0       0       0       0       0       0       0       0       0       0       0       
      +0       0       0       0       0
  1221 ;;Total ram usage:        0 bytes
  1222 ;; Hardware stack levels used: 1
  1223 ;; Hardware stack levels required when called: 8
  1224 ;; This function calls:
  1225 ;;		_CCP_Init
  1226 ;;		_CCP_PWM_Set_Duty
  1227 ;;		_CCP_PWM_Start
  1228 ;;		_ECU_DC_Motor_Init
  1229 ;;		_ServoDriver_Init
  1230 ;; This function is called by:
  1231 ;;		_application_intialize
  1232 ;; This function uses a non-reentrant model
  1233 ;;
  1234                           
  1235                           	psect	text2
  1236  002EFE                     __ptext2:
  1237                           	callstack 0
  1238  002EFE                     _Robot_Nav_Init:
  1239                           	callstack 21
  1240  002EFE                     
  1241                           ;Robot/Navigation/robot_navigation.c: 15:         ECU_DC_Motor_Init(&W1_W3_W5_Motor_Cont
      +                          rol);
  1242  002EFE  0EA3               	movlw	low _W1_W3_W5_Motor_Control
  1243  002F00  6E12               	movwf	ECU_DC_Motor_Init@dc_motor^0,c
  1244  002F02  0E00               	movlw	high _W1_W3_W5_Motor_Control
  1245  002F04  6E13               	movwf	(ECU_DC_Motor_Init@dc_motor+1)^0,c
  1246  002F06  ECFB  F019         	call	_ECU_DC_Motor_Init	;wreg free
  1247  002F0A                     
  1248                           ;Robot/Navigation/robot_navigation.c: 16:         ECU_DC_Motor_Init(&W2_W4_W6_Motor_Cont
      +                          rol);
  1249  002F0A  0EA2               	movlw	low _W2_W4_W6_Motor_Control
  1250  002F0C  6E12               	movwf	ECU_DC_Motor_Init@dc_motor^0,c
  1251  002F0E  0E00               	movlw	high _W2_W4_W6_Motor_Control
  1252  002F10  6E13               	movwf	(ECU_DC_Motor_Init@dc_motor+1)^0,c
  1253  002F12  ECFB  F019         	call	_ECU_DC_Motor_Init	;wreg free
  1254  002F16                     
  1255                           ;Robot/Navigation/robot_navigation.c: 19:         CCP_Init(&CCP1_Obj);
  1256  002F16  0E8A               	movlw	low _CCP1_Obj
  1257  002F18  6E12               	movwf	CCP_Init@_ccp_obj^0,c
  1258  002F1A  0E00               	movlw	high _CCP1_Obj
  1259  002F1C  6E13               	movwf	(CCP_Init@_ccp_obj+1)^0,c
  1260  002F1E  EC70  F014         	call	_CCP_Init	;wreg free
  1261  002F22                     
  1262                           ;Robot/Navigation/robot_navigation.c: 20:         CCP_Init(&CCP2_Obj);
  1263  002F22  0E7E               	movlw	low _CCP2_Obj
  1264  002F24  6E12               	movwf	CCP_Init@_ccp_obj^0,c
  1265  002F26  0E00               	movlw	high _CCP2_Obj
  1266  002F28  6E13               	movwf	(CCP_Init@_ccp_obj+1)^0,c
  1267  002F2A  EC70  F014         	call	_CCP_Init	;wreg free
  1268  002F2E                     
  1269                           ;Robot/Navigation/robot_navigation.c: 21:         CCP_PWM_Set_Duty(&CCP1_Obj , 95);
  1270  002F2E  0E8A               	movlw	low _CCP1_Obj
  1271  002F30  0100               	movlb	0	; () banked
  1272  002F32  6FE8               	movwf	CCP_PWM_Set_Duty@_ccp_obj& (0+255),b
  1273  002F34  0E00               	movlw	high _CCP1_Obj
  1274  002F36  6FE9               	movwf	(CCP_PWM_Set_Duty@_ccp_obj+1)& (0+255),b
  1275  002F38  0E5F               	movlw	95
  1276  002F3A  6FEA               	movwf	CCP_PWM_Set_Duty@_duty& (0+255),b
  1277  002F3C  EC04  F010         	call	_CCP_PWM_Set_Duty	;wreg free
  1278  002F40                     
  1279                           ;Robot/Navigation/robot_navigation.c: 22:         CCP_PWM_Set_Duty(&CCP2_Obj , 95);
  1280  002F40  0E7E               	movlw	low _CCP2_Obj
  1281  002F42  0100               	movlb	0	; () banked
  1282  002F44  6FE8               	movwf	CCP_PWM_Set_Duty@_ccp_obj& (0+255),b
  1283  002F46  0E00               	movlw	high _CCP2_Obj
  1284  002F48  6FE9               	movwf	(CCP_PWM_Set_Duty@_ccp_obj+1)& (0+255),b
  1285  002F4A  0E5F               	movlw	95
  1286  002F4C  6FEA               	movwf	CCP_PWM_Set_Duty@_duty& (0+255),b
  1287  002F4E  EC04  F010         	call	_CCP_PWM_Set_Duty	;wreg free
  1288  002F52                     
  1289                           ;Robot/Navigation/robot_navigation.c: 23:         CCP_PWM_Start(&CCP1_Obj);
  1290  002F52  0E8A               	movlw	low _CCP1_Obj
  1291  002F54  6E05               	movwf	CCP_PWM_Start@_ccp_obj^0,c
  1292  002F56  0E00               	movlw	high _CCP1_Obj
  1293  002F58  6E06               	movwf	(CCP_PWM_Start@_ccp_obj+1)^0,c
  1294  002F5A  ECCF  F018         	call	_CCP_PWM_Start	;wreg free
  1295  002F5E                     
  1296                           ;Robot/Navigation/robot_navigation.c: 24:         CCP_PWM_Start(&CCP2_Obj);
  1297  002F5E  0E7E               	movlw	low _CCP2_Obj
  1298  002F60  6E05               	movwf	CCP_PWM_Start@_ccp_obj^0,c
  1299  002F62  0E00               	movlw	high _CCP2_Obj
  1300  002F64  6E06               	movwf	(CCP_PWM_Start@_ccp_obj+1)^0,c
  1301  002F66  ECCF  F018         	call	_CCP_PWM_Start	;wreg free
  1302  002F6A                     
  1303                           ;Robot/Navigation/robot_navigation.c: 28:         ServoDriver_Init(&i2c_obj,&servo_drive
      +                          r_obj);
  1304  002F6A  0E96               	movlw	low _i2c_obj
  1305  002F6C  0100               	movlb	0	; () banked
  1306  002F6E  6FED               	movwf	ServoDriver_Init@i2c_obj& (0+255),b
  1307  002F70  0E00               	movlw	high _i2c_obj
  1308  002F72  6FEE               	movwf	(ServoDriver_Init@i2c_obj+1)& (0+255),b
  1309  002F74  0E9D               	movlw	low _servo_driver_obj
  1310  002F76  6FEF               	movwf	ServoDriver_Init@servo_driver_obj& (0+255),b
  1311  002F78  0E00               	movlw	high _servo_driver_obj
  1312  002F7A  6FF0               	movwf	(ServoDriver_Init@servo_driver_obj+1)& (0+255),b
  1313  002F7C  EC59  F015         	call	_ServoDriver_Init	;wreg free
  1314  002F80  0012               	return		;funcret
  1315  002F82                     __end_of_Robot_Nav_Init:
  1316                           	callstack 0
  1317                           
  1318 ;; *************** function _ServoDriver_Init *****************
  1319 ;; Defined at:
  1320 ;;		line 13 in file "ECU/SERVO_MOTOR_CONTROL_BY_I2C/ecu_servo_motor_i2c.c"
  1321 ;; Parameters:    Size  Location     Type
  1322 ;;  i2c_obj         2   13[BANK0 ] PTR const struct .
  1323 ;;		 -> i2c_obj(7), 
  1324 ;;  servo_driver    2   15[BANK0 ] PTR const struct .
  1325 ;;		 -> servo_driver_obj(4), 
  1326 ;; Auto vars:     Size  Location     Type
  1327 ;;  ERRORSTATUS     1    0        unsigned char 
  1328 ;; Return value:  Size  Location     Type
  1329 ;;                  1    wreg      unsigned char 
  1330 ;; Registers used:
  1331 ;;		wreg, fsr2l, fsr2h, status,2, status,0, cstack
  1332 ;; Tracked objects:
  1333 ;;		On entry : 0/0
  1334 ;;		On exit  : 0/0
  1335 ;;		Unchanged: 0/0
  1336 ;; Data sizes:     COMRAM   BANK0   BANK1   BANK2   BANK3   BANK4   BANK5   BANK6   BANK7   BANK8   BANK9  BANK10  BANK1
      +1  BANK12  BANK13  BANK14  BANK15
  1337 ;;      Params:         0       4       0       0       0       0       0       0       0       0       0       0       
      +0       0       0       0       0
  1338 ;;      Locals:         0       0       0       0       0       0       0       0       0       0       0       0       
      +0       0       0       0       0
  1339 ;;      Temps:          0       0       0       0       0       0       0       0       0       0       0       0       
      +0       0       0       0       0
  1340 ;;      Totals:         0       4       0       0       0       0       0       0       0       0       0       0       
      +0       0       0       0       0
  1341 ;;Total ram usage:        4 bytes
  1342 ;; Hardware stack levels used: 1
  1343 ;; Hardware stack levels required when called: 7
  1344 ;; This function calls:
  1345 ;;		_MSSP_I2C_Init
  1346 ;;		_PCA_Write_Reg
  1347 ;; This function is called by:
  1348 ;;		_Robot_Nav_Init
  1349 ;; This function uses a non-reentrant model
  1350 ;;
  1351                           
  1352                           	psect	text3
  1353  002AB2                     __ptext3:
  1354                           	callstack 0
  1355  002AB2                     _ServoDriver_Init:
  1356                           	callstack 21
  1357  002AB2                     
  1358                           ;ECU/SERVO_MOTOR_CONTROL_BY_I2C/ecu_servo_motor_i2c.c: 16:     if ((((void*)0)==i2c_obj)
      +                          ||(((void*)0)==servo_driver_obj))
  1359  002AB2  0100               	movlb	0	; () banked
  1360  002AB4  51ED               	movf	ServoDriver_Init@i2c_obj& (0+255),w,b
  1361  002AB6  11EE               	iorwf	(ServoDriver_Init@i2c_obj+1)& (0+255),w,b
  1362  002AB8  B4D8               	btfsc	status,2,c
  1363  002ABA  EF61  F015         	goto	u8321
  1364  002ABE  EF63  F015         	goto	u8320
  1365  002AC2                     u8321:
  1366  002AC2  EF6C  F015         	goto	l8498
  1367  002AC6                     u8320:
  1368  002AC6                     
  1369                           ; BSR set to: 0
  1370  002AC6  51EF               	movf	ServoDriver_Init@servo_driver_obj& (0+255),w,b
  1371  002AC8  11F0               	iorwf	(ServoDriver_Init@servo_driver_obj+1)& (0+255),w,b
  1372  002ACA  A4D8               	btfss	status,2,c
  1373  002ACC  EF6A  F015         	goto	u8331
  1374  002AD0  EF6C  F015         	goto	u8330
  1375  002AD4                     u8331:
  1376  002AD4  EF6E  F015         	goto	l8500
  1377  002AD8                     u8330:
  1378  002AD8                     l8498:
  1379                           
  1380                           ; BSR set to: 0
  1381                           ;ECU/SERVO_MOTOR_CONTROL_BY_I2C/ecu_servo_motor_i2c.c: 19:     }
  1382  002AD8  EFB9  F015         	goto	l300
  1383  002ADC                     l8500:
  1384                           
  1385                           ; BSR set to: 0
  1386                           ;ECU/SERVO_MOTOR_CONTROL_BY_I2C/ecu_servo_motor_i2c.c: 21:     {;ECU/SERVO_MOTOR_CONTROL
      +                          _BY_I2C/ecu_servo_motor_i2c.c: 22:      MSSP_I2C_Init(i2c_obj);
  1387  002ADC  C0ED  F0EB         	movff	ServoDriver_Init@i2c_obj,MSSP_I2C_Init@i2c_obj
  1388  002AE0  C0EE  F0EC         	movff	ServoDriver_Init@i2c_obj+1,MSSP_I2C_Init@i2c_obj+1
  1389  002AE4  ECB9  F012         	call	_MSSP_I2C_Init	;wreg free
  1390                           
  1391                           ;ECU/SERVO_MOTOR_CONTROL_BY_I2C/ecu_servo_motor_i2c.c: 23:      PCA_Write_Reg(i2c_obj,se
      +                          rvo_driver_obj->slave_address,0xFE,servo_driver_obj->frequancy);
  1392  002AE8  C0ED  F00A         	movff	ServoDriver_Init@i2c_obj,PCA_Write_Reg@i2c_obj
  1393  002AEC  C0EE  F00B         	movff	ServoDriver_Init@i2c_obj+1,PCA_Write_Reg@i2c_obj+1
  1394  002AF0  C0EF  FFD9         	movff	ServoDriver_Init@servo_driver_obj,fsr2l
  1395  002AF4  C0F0  FFDA         	movff	ServoDriver_Init@servo_driver_obj+1,fsr2h
  1396  002AF8  50DF               	movf	indf2,w,c
  1397  002AFA  6E0C               	movwf	PCA_Write_Reg@slave_address^0,c
  1398  002AFC  0EFE               	movlw	254
  1399  002AFE  6E0D               	movwf	PCA_Write_Reg@reg_address^0,c
  1400  002B00  0100               	movlb	0	; () banked
  1401  002B02  EE20 F001          	lfsr	2,1
  1402  002B06  51EF               	movf	ServoDriver_Init@servo_driver_obj& (0+255),w,b
  1403  002B08  26D9               	addwf	fsr2l,f,c
  1404  002B0A  51F0               	movf	(ServoDriver_Init@servo_driver_obj+1)& (0+255),w,b
  1405  002B0C  22DA               	addwfc	fsr2h,f,c
  1406  002B0E  50DF               	movf	indf2,w,c
  1407  002B10  6E0E               	movwf	PCA_Write_Reg@data^0,c
  1408  002B12  EC9C  F018         	call	_PCA_Write_Reg	;wreg free
  1409                           
  1410                           ;ECU/SERVO_MOTOR_CONTROL_BY_I2C/ecu_servo_motor_i2c.c: 24:      PCA_Write_Reg(i2c_obj,se
      +                          rvo_driver_obj->slave_address,0x00,servo_driver_obj->mode_1_cfg);
  1411  002B16  C0ED  F00A         	movff	ServoDriver_Init@i2c_obj,PCA_Write_Reg@i2c_obj
  1412  002B1A  C0EE  F00B         	movff	ServoDriver_Init@i2c_obj+1,PCA_Write_Reg@i2c_obj+1
  1413  002B1E  C0EF  FFD9         	movff	ServoDriver_Init@servo_driver_obj,fsr2l
  1414  002B22  C0F0  FFDA         	movff	ServoDriver_Init@servo_driver_obj+1,fsr2h
  1415  002B26  50DF               	movf	indf2,w,c
  1416  002B28  6E0C               	movwf	PCA_Write_Reg@slave_address^0,c
  1417  002B2A  0E00               	movlw	0
  1418  002B2C  6E0D               	movwf	PCA_Write_Reg@reg_address^0,c
  1419  002B2E  0100               	movlb	0	; () banked
  1420  002B30  EE20 F002          	lfsr	2,2
  1421  002B34  51EF               	movf	ServoDriver_Init@servo_driver_obj& (0+255),w,b
  1422  002B36  26D9               	addwf	fsr2l,f,c
  1423  002B38  51F0               	movf	(ServoDriver_Init@servo_driver_obj+1)& (0+255),w,b
  1424  002B3A  22DA               	addwfc	fsr2h,f,c
  1425  002B3C  50DF               	movf	indf2,w,c
  1426  002B3E  6E0E               	movwf	PCA_Write_Reg@data^0,c
  1427  002B40  EC9C  F018         	call	_PCA_Write_Reg	;wreg free
  1428                           
  1429                           ;ECU/SERVO_MOTOR_CONTROL_BY_I2C/ecu_servo_motor_i2c.c: 25:      PCA_Write_Reg(i2c_obj,se
      +                          rvo_driver_obj->slave_address,0x01,servo_driver_obj->mode_2_cfg);
  1430  002B44  C0ED  F00A         	movff	ServoDriver_Init@i2c_obj,PCA_Write_Reg@i2c_obj
  1431  002B48  C0EE  F00B         	movff	ServoDriver_Init@i2c_obj+1,PCA_Write_Reg@i2c_obj+1
  1432  002B4C  C0EF  FFD9         	movff	ServoDriver_Init@servo_driver_obj,fsr2l
  1433  002B50  C0F0  FFDA         	movff	ServoDriver_Init@servo_driver_obj+1,fsr2h
  1434  002B54  50DF               	movf	indf2,w,c
  1435  002B56  6E0C               	movwf	PCA_Write_Reg@slave_address^0,c
  1436  002B58  0E01               	movlw	1
  1437  002B5A  6E0D               	movwf	PCA_Write_Reg@reg_address^0,c
  1438  002B5C  0100               	movlb	0	; () banked
  1439  002B5E  EE20 F003          	lfsr	2,3
  1440  002B62  51EF               	movf	ServoDriver_Init@servo_driver_obj& (0+255),w,b
  1441  002B64  26D9               	addwf	fsr2l,f,c
  1442  002B66  51F0               	movf	(ServoDriver_Init@servo_driver_obj+1)& (0+255),w,b
  1443  002B68  22DA               	addwfc	fsr2h,f,c
  1444  002B6A  50DF               	movf	indf2,w,c
  1445  002B6C  6E0E               	movwf	PCA_Write_Reg@data^0,c
  1446  002B6E  EC9C  F018         	call	_PCA_Write_Reg	;wreg free
  1447  002B72                     l300:
  1448  002B72  0012               	return		;funcret
  1449  002B74                     __end_of_ServoDriver_Init:
  1450                           	callstack 0
  1451                           
  1452 ;; *************** function _MSSP_I2C_Init *****************
  1453 ;; Defined at:
  1454 ;;		line 23 in file "MCAL/I2C/mcal_i2c.c"
  1455 ;; Parameters:    Size  Location     Type
  1456 ;;  i2c_obj         2   11[BANK0 ] PTR const struct .
  1457 ;;		 -> i2c_obj(7), 
  1458 ;; Auto vars:     Size  Location     Type
  1459 ;;  ERRORSTATUS     1    0        unsigned char 
  1460 ;; Return value:  Size  Location     Type
  1461 ;;                  1    wreg      unsigned char 
  1462 ;; Registers used:
  1463 ;;		wreg, fsr2l, fsr2h, status,2, status,0, cstack
  1464 ;; Tracked objects:
  1465 ;;		On entry : 0/0
  1466 ;;		On exit  : 0/0
  1467 ;;		Unchanged: 0/0
  1468 ;; Data sizes:     COMRAM   BANK0   BANK1   BANK2   BANK3   BANK4   BANK5   BANK6   BANK7   BANK8   BANK9  BANK10  BANK1
      +1  BANK12  BANK13  BANK14  BANK15
  1469 ;;      Params:         0       2       0       0       0       0       0       0       0       0       0       0       
      +0       0       0       0       0
  1470 ;;      Locals:         0       0       0       0       0       0       0       0       0       0       0       0       
      +0       0       0       0       0
  1471 ;;      Temps:          0       0       0       0       0       0       0       0       0       0       0       0       
      +0       0       0       0       0
  1472 ;;      Totals:         0       2       0       0       0       0       0       0       0       0       0       0       
      +0       0       0       0       0
  1473 ;;Total ram usage:        2 bytes
  1474 ;; Hardware stack levels used: 1
  1475 ;; Hardware stack levels required when called: 6
  1476 ;; This function calls:
  1477 ;;		_I2C_Master_Mode_Clock_Configurations
  1478 ;;		_I2C_Pin_Configurations
  1479 ;;		_I2C_Slave_Mode_Clock_Configurations
  1480 ;; This function is called by:
  1481 ;;		_ServoDriver_Init
  1482 ;; This function uses a non-reentrant model
  1483 ;;
  1484                           
  1485                           	psect	text4
  1486  002572                     __ptext4:
  1487                           	callstack 0
  1488  002572                     _MSSP_I2C_Init:
  1489                           	callstack 21
  1490  002572                     
  1491                           ;MCAL/I2C/mcal_i2c.c: 26:     if (((void*)0)==i2c_obj)
  1492  002572  0100               	movlb	0	; () banked
  1493  002574  51EB               	movf	MSSP_I2C_Init@i2c_obj& (0+255),w,b
  1494  002576  11EC               	iorwf	(MSSP_I2C_Init@i2c_obj+1)& (0+255),w,b
  1495  002578  A4D8               	btfss	status,2,c
  1496  00257A  EFC1  F012         	goto	u8231
  1497  00257E  EFC3  F012         	goto	u8230
  1498  002582                     u8231:
  1499  002582  EFC5  F012         	goto	l970
  1500  002586                     u8230:
  1501  002586                     
  1502                           ; BSR set to: 0
  1503                           ;MCAL/I2C/mcal_i2c.c: 29:     }
  1504  002586  EF57  F013         	goto	l988
  1505  00258A                     l970:
  1506                           
  1507                           ; BSR set to: 0
  1508                           ;MCAL/I2C/mcal_i2c.c: 31:     {;MCAL/I2C/mcal_i2c.c: 33:         (SSPCON1bits.SSPEN = 0)
      +                          ;
  1509  00258A  9AC6               	bcf	198,5,c	;volatile
  1510  00258C                     
  1511                           ; BSR set to: 0
  1512                           ;MCAL/I2C/mcal_i2c.c: 35:         if(1==i2c_obj->i2c_cfg.i2c_mode)
  1513  00258C  EE20 F006          	lfsr	2,6
  1514  002590  51EB               	movf	MSSP_I2C_Init@i2c_obj& (0+255),w,b
  1515  002592  26D9               	addwf	fsr2l,f,c
  1516  002594  51EC               	movf	(MSSP_I2C_Init@i2c_obj+1)& (0+255),w,b
  1517  002596  22DA               	addwfc	fsr2h,f,c
  1518  002598  A0DF               	btfss	indf2,0,c
  1519  00259A  EFD1  F012         	goto	u8241
  1520  00259E  EFD3  F012         	goto	u8240
  1521  0025A2                     u8241:
  1522  0025A2  EFDB  F012         	goto	l8460
  1523  0025A6                     u8240:
  1524  0025A6                     
  1525                           ; BSR set to: 0
  1526                           ;MCAL/I2C/mcal_i2c.c: 36:         {;MCAL/I2C/mcal_i2c.c: 38:            I2C_Master_Mode_
      +                          Clock_Configurations(i2c_obj);
  1527  0025A6  C0EB  F0E8         	movff	MSSP_I2C_Init@i2c_obj,I2C_Master_Mode_Clock_Configurations@i2c_obj
  1528  0025AA  C0EC  F0E9         	movff	MSSP_I2C_Init@i2c_obj+1,I2C_Master_Mode_Clock_Configurations@i2c_obj+1
  1529  0025AE  EC7A  F016         	call	_I2C_Master_Mode_Clock_Configurations	;wreg free
  1530                           
  1531                           ;MCAL/I2C/mcal_i2c.c: 39:         }
  1532  0025B2  EF17  F013         	goto	l8474
  1533  0025B6                     l8460:
  1534                           
  1535                           ; BSR set to: 0
  1536  0025B6  EE20 F006          	lfsr	2,6
  1537  0025BA  51EB               	movf	MSSP_I2C_Init@i2c_obj& (0+255),w,b
  1538  0025BC  26D9               	addwf	fsr2l,f,c
  1539  0025BE  51EC               	movf	(MSSP_I2C_Init@i2c_obj+1)& (0+255),w,b
  1540  0025C0  22DA               	addwfc	fsr2h,f,c
  1541  0025C2  B0DF               	btfsc	indf2,0,c
  1542  0025C4  EFE6  F012         	goto	u8251
  1543  0025C8  EFE8  F012         	goto	u8250
  1544  0025CC                     u8251:
  1545  0025CC  EF17  F013         	goto	l8474
  1546  0025D0                     u8250:
  1547  0025D0                     
  1548                           ; BSR set to: 0
  1549                           ;MCAL/I2C/mcal_i2c.c: 41:         {;MCAL/I2C/mcal_i2c.c: 43:             if(1==i2c_obj->
      +                          i2c_cfg.i2c_general_call)
  1550  0025D0  EE20 F006          	lfsr	2,6
  1551  0025D4  51EB               	movf	MSSP_I2C_Init@i2c_obj& (0+255),w,b
  1552  0025D6  26D9               	addwf	fsr2l,f,c
  1553  0025D8  51EC               	movf	(MSSP_I2C_Init@i2c_obj+1)& (0+255),w,b
  1554  0025DA  22DA               	addwfc	fsr2h,f,c
  1555  0025DC  A6DF               	btfss	indf2,3,c
  1556  0025DE  EFF3  F012         	goto	u8261
  1557  0025E2  EFF5  F012         	goto	u8260
  1558  0025E6                     u8261:
  1559  0025E6  EFF8  F012         	goto	l8466
  1560  0025EA                     u8260:
  1561  0025EA                     
  1562                           ; BSR set to: 0
  1563                           ;MCAL/I2C/mcal_i2c.c: 44:             {;MCAL/I2C/mcal_i2c.c: 45:                 (SSPCON
      +                          2bits.GCEN = 1);
  1564  0025EA  8EC5               	bsf	197,7,c	;volatile
  1565                           
  1566                           ;MCAL/I2C/mcal_i2c.c: 46:             }
  1567  0025EC  EF06  F013         	goto	l976
  1568  0025F0                     l8466:
  1569                           
  1570                           ; BSR set to: 0
  1571  0025F0  EE20 F006          	lfsr	2,6
  1572  0025F4  51EB               	movf	MSSP_I2C_Init@i2c_obj& (0+255),w,b
  1573  0025F6  26D9               	addwf	fsr2l,f,c
  1574  0025F8  51EC               	movf	(MSSP_I2C_Init@i2c_obj+1)& (0+255),w,b
  1575  0025FA  22DA               	addwfc	fsr2h,f,c
  1576  0025FC  B6DF               	btfsc	indf2,3,c
  1577  0025FE  EF03  F013         	goto	u8271
  1578  002602  EF05  F013         	goto	u8270
  1579  002606                     u8271:
  1580  002606  EF06  F013         	goto	l976
  1581  00260A                     u8270:
  1582  00260A                     
  1583                           ; BSR set to: 0
  1584                           ;MCAL/I2C/mcal_i2c.c: 48:             {;MCAL/I2C/mcal_i2c.c: 49:                 (SSPCON
      +                          2bits.GCEN = 0);
  1585  00260A  9EC5               	bcf	197,7,c	;volatile
  1586  00260C                     l976:
  1587                           
  1588                           ; BSR set to: 0
  1589                           ;MCAL/I2C/mcal_i2c.c: 53:              SSPCON1bits.WCOL=0;
  1590  00260C  9EC6               	bcf	198,7,c	;volatile
  1591                           
  1592                           ;MCAL/I2C/mcal_i2c.c: 55:              SSPCON1bits.SSPOV=0;
  1593  00260E  9CC6               	bcf	198,6,c	;volatile
  1594                           
  1595                           ;MCAL/I2C/mcal_i2c.c: 57:              SSPCON1bits.CKP=1;
  1596  002610  88C6               	bsf	198,4,c	;volatile
  1597  002612                     
  1598                           ; BSR set to: 0
  1599                           ;MCAL/I2C/mcal_i2c.c: 59:              SSPADD=i2c_obj->i2c_cfg.i2c_slave_address;
  1600  002612  EE20 F005          	lfsr	2,5
  1601  002616  51EB               	movf	MSSP_I2C_Init@i2c_obj& (0+255),w,b
  1602  002618  26D9               	addwf	fsr2l,f,c
  1603  00261A  51EC               	movf	(MSSP_I2C_Init@i2c_obj+1)& (0+255),w,b
  1604  00261C  22DA               	addwfc	fsr2h,f,c
  1605  00261E  50DF               	movf	indf2,w,c
  1606  002620  6EC8               	movwf	200,c	;volatile
  1607  002622                     
  1608                           ; BSR set to: 0
  1609                           ;MCAL/I2C/mcal_i2c.c: 61:              I2C_Slave_Mode_Clock_Configurations(i2c_obj);
  1610  002622  C0EB  F005         	movff	MSSP_I2C_Init@i2c_obj,I2C_Slave_Mode_Clock_Configurations@i2c_obj
  1611  002626  C0EC  F006         	movff	MSSP_I2C_Init@i2c_obj+1,I2C_Slave_Mode_Clock_Configurations@i2c_obj+1
  1612  00262A  ECA7  F019         	call	_I2C_Slave_Mode_Clock_Configurations	;wreg free
  1613  00262E                     l8474:
  1614                           
  1615                           ;MCAL/I2C/mcal_i2c.c: 65:         I2C_Pin_Configurations();
  1616  00262E  EC4A  F01A         	call	_I2C_Pin_Configurations	;wreg free
  1617  002632                     
  1618                           ;MCAL/I2C/mcal_i2c.c: 67:         if(1 == i2c_obj->i2c_cfg.i2c_slew_rate){
  1619  002632  0100               	movlb	0	; () banked
  1620  002634  EE20 F006          	lfsr	2,6
  1621  002638  51EB               	movf	MSSP_I2C_Init@i2c_obj& (0+255),w,b
  1622  00263A  26D9               	addwf	fsr2l,f,c
  1623  00263C  51EC               	movf	(MSSP_I2C_Init@i2c_obj+1)& (0+255),w,b
  1624  00263E  22DA               	addwfc	fsr2h,f,c
  1625  002640  A2DF               	btfss	indf2,1,c
  1626  002642  EF25  F013         	goto	u8281
  1627  002646  EF27  F013         	goto	u8280
  1628  00264A                     u8281:
  1629  00264A  EF2A  F013         	goto	l8480
  1630  00264E                     u8280:
  1631  00264E                     
  1632                           ; BSR set to: 0
  1633                           ;MCAL/I2C/mcal_i2c.c: 68:             (SSPSTATbits.SMP = 1);
  1634  00264E  8EC7               	bsf	199,7,c	;volatile
  1635                           
  1636                           ;MCAL/I2C/mcal_i2c.c: 69:         }
  1637  002650  EF38  F013         	goto	l8484
  1638  002654                     l8480:
  1639                           
  1640                           ; BSR set to: 0
  1641  002654  EE20 F006          	lfsr	2,6
  1642  002658  51EB               	movf	MSSP_I2C_Init@i2c_obj& (0+255),w,b
  1643  00265A  26D9               	addwf	fsr2l,f,c
  1644  00265C  51EC               	movf	(MSSP_I2C_Init@i2c_obj+1)& (0+255),w,b
  1645  00265E  22DA               	addwfc	fsr2h,f,c
  1646  002660  B2DF               	btfsc	indf2,1,c
  1647  002662  EF35  F013         	goto	u8291
  1648  002666  EF37  F013         	goto	u8290
  1649  00266A                     u8291:
  1650  00266A  EF38  F013         	goto	l8484
  1651  00266E                     u8290:
  1652  00266E                     
  1653                           ; BSR set to: 0
  1654                           ;MCAL/I2C/mcal_i2c.c: 71:             (SSPSTATbits.SMP = 0);
  1655  00266E  9EC7               	bcf	199,7,c	;volatile
  1656  002670                     l8484:
  1657                           
  1658                           ; BSR set to: 0
  1659                           ;MCAL/I2C/mcal_i2c.c: 75:         if(1 == i2c_obj->i2c_cfg.i2c_SMBus_control){
  1660  002670  EE20 F006          	lfsr	2,6
  1661  002674  51EB               	movf	MSSP_I2C_Init@i2c_obj& (0+255),w,b
  1662  002676  26D9               	addwf	fsr2l,f,c
  1663  002678  51EC               	movf	(MSSP_I2C_Init@i2c_obj+1)& (0+255),w,b
  1664  00267A  22DA               	addwfc	fsr2h,f,c
  1665  00267C  A4DF               	btfss	indf2,2,c
  1666  00267E  EF43  F013         	goto	u8301
  1667  002682  EF45  F013         	goto	u8300
  1668  002686                     u8301:
  1669  002686  EF48  F013         	goto	l8488
  1670  00268A                     u8300:
  1671  00268A                     
  1672                           ; BSR set to: 0
  1673                           ;MCAL/I2C/mcal_i2c.c: 76:             (SSPSTATbits.CKE = 1);
  1674  00268A  8CC7               	bsf	199,6,c	;volatile
  1675                           
  1676                           ;MCAL/I2C/mcal_i2c.c: 77:         }
  1677  00268C  EF56  F013         	goto	l985
  1678  002690                     l8488:
  1679                           
  1680                           ; BSR set to: 0
  1681  002690  EE20 F006          	lfsr	2,6
  1682  002694  51EB               	movf	MSSP_I2C_Init@i2c_obj& (0+255),w,b
  1683  002696  26D9               	addwf	fsr2l,f,c
  1684  002698  51EC               	movf	(MSSP_I2C_Init@i2c_obj+1)& (0+255),w,b
  1685  00269A  22DA               	addwfc	fsr2h,f,c
  1686  00269C  B4DF               	btfsc	indf2,2,c
  1687  00269E  EF53  F013         	goto	u8311
  1688  0026A2  EF55  F013         	goto	u8310
  1689  0026A6                     u8311:
  1690  0026A6  EF56  F013         	goto	l985
  1691  0026AA                     u8310:
  1692  0026AA                     
  1693                           ; BSR set to: 0
  1694                           ;MCAL/I2C/mcal_i2c.c: 79:             (SSPSTATbits.CKE = 0);
  1695  0026AA  9CC7               	bcf	199,6,c	;volatile
  1696  0026AC                     l985:
  1697                           
  1698                           ; BSR set to: 0
  1699                           ;MCAL/I2C/mcal_i2c.c: 89:         (SSPCON1bits.SSPEN = 1);
  1700  0026AC  8AC6               	bsf	198,5,c	;volatile
  1701  0026AE                     l988:
  1702                           
  1703                           ; BSR set to: 0
  1704  0026AE  0012               	return		;funcret
  1705  0026B0                     __end_of_MSSP_I2C_Init:
  1706                           	callstack 0
  1707                           
  1708 ;; *************** function _I2C_Slave_Mode_Clock_Configurations *****************
  1709 ;; Defined at:
  1710 ;;		line 325 in file "MCAL/I2C/mcal_i2c.c"
  1711 ;; Parameters:    Size  Location     Type
  1712 ;;  i2c_obj         2    4[COMRAM] PTR const struct .
  1713 ;;		 -> i2c_obj(7), 
  1714 ;; Auto vars:     Size  Location     Type
  1715 ;;  ERRORSTATUS     1    0        unsigned char 
  1716 ;; Return value:  Size  Location     Type
  1717 ;;                  1    wreg      void 
  1718 ;; Registers used:
  1719 ;;		wreg, fsr2l, fsr2h, status,2, status,0
  1720 ;; Tracked objects:
  1721 ;;		On entry : 0/0
  1722 ;;		On exit  : 0/0
  1723 ;;		Unchanged: 0/0
  1724 ;; Data sizes:     COMRAM   BANK0   BANK1   BANK2   BANK3   BANK4   BANK5   BANK6   BANK7   BANK8   BANK9  BANK10  BANK1
      +1  BANK12  BANK13  BANK14  BANK15
  1725 ;;      Params:         2       0       0       0       0       0       0       0       0       0       0       0       
      +0       0       0       0       0
  1726 ;;      Locals:         0       0       0       0       0       0       0       0       0       0       0       0       
      +0       0       0       0       0
  1727 ;;      Temps:          1       0       0       0       0       0       0       0       0       0       0       0       
      +0       0       0       0       0
  1728 ;;      Totals:         3       0       0       0       0       0       0       0       0       0       0       0       
      +0       0       0       0       0
  1729 ;;Total ram usage:        3 bytes
  1730 ;; Hardware stack levels used: 1
  1731 ;; Hardware stack levels required when called: 4
  1732 ;; This function calls:
  1733 ;;		Nothing
  1734 ;; This function is called by:
  1735 ;;		_MSSP_I2C_Init
  1736 ;; This function uses a non-reentrant model
  1737 ;;
  1738                           
  1739                           	psect	text5
  1740  00334E                     __ptext5:
  1741                           	callstack 0
  1742  00334E                     _I2C_Slave_Mode_Clock_Configurations:
  1743                           	callstack 22
  1744  00334E                     
  1745                           ;MCAL/I2C/mcal_i2c.c: 328:     if (((void*)0)==i2c_obj)
  1746  00334E  5005               	movf	I2C_Slave_Mode_Clock_Configurations@i2c_obj^0,w,c
  1747  003350  1006               	iorwf	(I2C_Slave_Mode_Clock_Configurations@i2c_obj+1)^0,w,c
  1748  003352  A4D8               	btfss	status,2,c
  1749  003354  EFAE  F019         	goto	u5891
  1750  003358  EFB0  F019         	goto	u5890
  1751  00335C                     u5891:
  1752  00335C  EFB2  F019         	goto	l6426
  1753  003360                     u5890:
  1754  003360                     
  1755                           ;MCAL/I2C/mcal_i2c.c: 331:     }
  1756  003360  EFBF  F019         	goto	l1083
  1757  003364                     l6426:
  1758                           
  1759                           ;MCAL/I2C/mcal_i2c.c: 333:     {;MCAL/I2C/mcal_i2c.c: 335:         SSPCON1bits.SSPM=i2c_
      +                          obj->i2c_cfg.i2c_mode_cfg;
  1760  003364  EE20 F004          	lfsr	2,4
  1761  003368  5005               	movf	I2C_Slave_Mode_Clock_Configurations@i2c_obj^0,w,c
  1762  00336A  26D9               	addwf	fsr2l,f,c
  1763  00336C  5006               	movf	(I2C_Slave_Mode_Clock_Configurations@i2c_obj+1)^0,w,c
  1764  00336E  22DA               	addwfc	fsr2h,f,c
  1765  003370  50DF               	movf	indf2,w,c
  1766  003372  6E07               	movwf	??_I2C_Slave_Mode_Clock_Configurations^0,c
  1767  003374  50C6               	movf	198,w,c	;volatile
  1768  003376  1807               	xorwf	??_I2C_Slave_Mode_Clock_Configurations^0,w,c
  1769  003378  0BF0               	andlw	-16
  1770  00337A  1807               	xorwf	??_I2C_Slave_Mode_Clock_Configurations^0,w,c
  1771  00337C  6EC6               	movwf	198,c	;volatile
  1772  00337E                     l1083:
  1773  00337E  0012               	return		;funcret
  1774  003380                     __end_of_I2C_Slave_Mode_Clock_Configurations:
  1775                           	callstack 0
  1776                           
  1777 ;; *************** function _I2C_Pin_Configurations *****************
  1778 ;; Defined at:
  1779 ;;		line 339 in file "MCAL/I2C/mcal_i2c.c"
  1780 ;; Parameters:    Size  Location     Type
  1781 ;;		None
  1782 ;; Auto vars:     Size  Location     Type
  1783 ;;		None
  1784 ;; Return value:  Size  Location     Type
  1785 ;;                  1    wreg      void 
  1786 ;; Registers used:
  1787 ;;		None
  1788 ;; Tracked objects:
  1789 ;;		On entry : 0/0
  1790 ;;		On exit  : 0/0
  1791 ;;		Unchanged: 0/0
  1792 ;; Data sizes:     COMRAM   BANK0   BANK1   BANK2   BANK3   BANK4   BANK5   BANK6   BANK7   BANK8   BANK9  BANK10  BANK1
      +1  BANK12  BANK13  BANK14  BANK15
  1793 ;;      Params:         0       0       0       0       0       0       0       0       0       0       0       0       
      +0       0       0       0       0
  1794 ;;      Locals:         0       0       0       0       0       0       0       0       0       0       0       0       
      +0       0       0       0       0
  1795 ;;      Temps:          0       0       0       0       0       0       0       0       0       0       0       0       
      +0       0       0       0       0
  1796 ;;      Totals:         0       0       0       0       0       0       0       0       0       0       0       0       
      +0       0       0       0       0
  1797 ;;Total ram usage:        0 bytes
  1798 ;; Hardware stack levels used: 1
  1799 ;; Hardware stack levels required when called: 4
  1800 ;; This function calls:
  1801 ;;		Nothing
  1802 ;; This function is called by:
  1803 ;;		_MSSP_I2C_Init
  1804 ;; This function uses a non-reentrant model
  1805 ;;
  1806                           
  1807                           	psect	text6
  1808  003494                     __ptext6:
  1809                           	callstack 0
  1810  003494                     _I2C_Pin_Configurations:
  1811                           	callstack 22
  1812  003494                     
  1813                           ;MCAL/I2C/mcal_i2c.c: 341:     TRISCbits.RC3=1;
  1814  003494  8694               	bsf	148,3,c	;volatile
  1815                           
  1816                           ;MCAL/I2C/mcal_i2c.c: 342:     TRISCbits.RC4=1;
  1817  003496  8894               	bsf	148,4,c	;volatile
  1818  003498  0012               	return		;funcret
  1819  00349A                     __end_of_I2C_Pin_Configurations:
  1820                           	callstack 0
  1821                           
  1822 ;; *************** function _I2C_Master_Mode_Clock_Configurations *****************
  1823 ;; Defined at:
  1824 ;;		line 310 in file "MCAL/I2C/mcal_i2c.c"
  1825 ;; Parameters:    Size  Location     Type
  1826 ;;  i2c_obj         2    8[BANK0 ] PTR const struct .
  1827 ;;		 -> i2c_obj(7), 
  1828 ;; Auto vars:     Size  Location     Type
  1829 ;;  ERRORSTATUS     1    0        unsigned char 
  1830 ;; Return value:  Size  Location     Type
  1831 ;;                  1    wreg      void 
  1832 ;; Registers used:
  1833 ;;		wreg, fsr2l, fsr2h, status,2, status,0, cstack
  1834 ;; Tracked objects:
  1835 ;;		On entry : 0/0
  1836 ;;		On exit  : 0/0
  1837 ;;		Unchanged: 0/0
  1838 ;; Data sizes:     COMRAM   BANK0   BANK1   BANK2   BANK3   BANK4   BANK5   BANK6   BANK7   BANK8   BANK9  BANK10  BANK1
      +1  BANK12  BANK13  BANK14  BANK15
  1839 ;;      Params:         0       2       0       0       0       0       0       0       0       0       0       0       
      +0       0       0       0       0
  1840 ;;      Locals:         0       0       0       0       0       0       0       0       0       0       0       0       
      +0       0       0       0       0
  1841 ;;      Temps:          0       1       0       0       0       0       0       0       0       0       0       0       
      +0       0       0       0       0
  1842 ;;      Totals:         0       3       0       0       0       0       0       0       0       0       0       0       
      +0       0       0       0       0
  1843 ;;Total ram usage:        3 bytes
  1844 ;; Hardware stack levels used: 1
  1845 ;; Hardware stack levels required when called: 5
  1846 ;; This function calls:
  1847 ;;		___fladd
  1848 ;;		___fldiv
  1849 ;;		___fltol
  1850 ;;		___xxtofl
  1851 ;; This function is called by:
  1852 ;;		_MSSP_I2C_Init
  1853 ;; This function uses a non-reentrant model
  1854 ;;
  1855                           
  1856                           	psect	text7
  1857  002CF4                     __ptext7:
  1858                           	callstack 0
  1859  002CF4                     _I2C_Master_Mode_Clock_Configurations:
  1860                           	callstack 21
  1861  002CF4                     
  1862                           ;MCAL/I2C/mcal_i2c.c: 313:     if (((void*)0)==i2c_obj)
  1863  002CF4  0100               	movlb	0	; () banked
  1864  002CF6  51E8               	movf	I2C_Master_Mode_Clock_Configurations@i2c_obj& (0+255),w,b
  1865  002CF8  11E9               	iorwf	(I2C_Master_Mode_Clock_Configurations@i2c_obj+1)& (0+255),w,b
  1866  002CFA  A4D8               	btfss	status,2,c
  1867  002CFC  EF82  F016         	goto	u8221
  1868  002D00  EF84  F016         	goto	u8220
  1869  002D04                     u8221:
  1870  002D04  EF86  F016         	goto	l8446
  1871  002D08                     u8220:
  1872  002D08                     
  1873                           ; BSR set to: 0
  1874                           ;MCAL/I2C/mcal_i2c.c: 316:     }
  1875  002D08  EFD3  F016         	goto	l1078
  1876  002D0C                     l8446:
  1877                           
  1878                           ; BSR set to: 0
  1879                           ;MCAL/I2C/mcal_i2c.c: 318:     {;MCAL/I2C/mcal_i2c.c: 320:         SSPCON1bits.SSPM=i2c_
      +                          obj->i2c_cfg.i2c_mode_cfg;
  1880  002D0C  EE20 F004          	lfsr	2,4
  1881  002D10  51E8               	movf	I2C_Master_Mode_Clock_Configurations@i2c_obj& (0+255),w,b
  1882  002D12  26D9               	addwf	fsr2l,f,c
  1883  002D14  51E9               	movf	(I2C_Master_Mode_Clock_Configurations@i2c_obj+1)& (0+255),w,b
  1884  002D16  22DA               	addwfc	fsr2h,f,c
  1885  002D18  50DF               	movf	indf2,w,c
  1886  002D1A  6FEA               	movwf	??_I2C_Master_Mode_Clock_Configurations& (0+255),b
  1887  002D1C  50C6               	movf	198,w,c	;volatile
  1888  002D1E  19EA               	xorwf	??_I2C_Master_Mode_Clock_Configurations& (0+255),w,b
  1889  002D20  0BF0               	andlw	-16
  1890  002D22  19EA               	xorwf	??_I2C_Master_Mode_Clock_Configurations& (0+255),w,b
  1891  002D24  6EC6               	movwf	198,c	;volatile
  1892  002D26                     
  1893                           ; BSR set to: 0
  1894                           ;MCAL/I2C/mcal_i2c.c: 321:         SSPADD=(uint8)(((8000000/4.0)/i2c_obj->i2c_clock)-1);
  1895  002D26  0E00               	movlw	0
  1896  002D28  6E49               	movwf	___fladd@a^0,c
  1897  002D2A  0E00               	movlw	0
  1898  002D2C  6E4A               	movwf	(___fladd@a+1)^0,c
  1899  002D2E  0E80               	movlw	128
  1900  002D30  6E4B               	movwf	(___fladd@a+2)^0,c
  1901  002D32  0EBF               	movlw	191
  1902  002D34  6E4C               	movwf	(___fladd@a+3)^0,c
  1903  002D36  C0E8  FFD9         	movff	I2C_Master_Mode_Clock_Configurations@i2c_obj,fsr2l
  1904  002D3A  C0E9  FFDA         	movff	I2C_Master_Mode_Clock_Configurations@i2c_obj+1,fsr2h
  1905  002D3E  CFDE F005          	movff	postinc2,___xxtofl@val
  1906  002D42  CFDE F006          	movff	postinc2,___xxtofl@val+1
  1907  002D46  CFDE F007          	movff	postinc2,___xxtofl@val+2
  1908  002D4A  CFDE F008          	movff	postinc2,___xxtofl@val+3
  1909  002D4E  0E00               	movlw	0
  1910  002D50  EC66  F00E         	call	___xxtofl
  1911  002D54  C005  F017         	movff	?___xxtofl,___fldiv@a
  1912  002D58  C006  F018         	movff	?___xxtofl+1,___fldiv@a+1
  1913  002D5C  C007  F019         	movff	?___xxtofl+2,___fldiv@a+2
  1914  002D60  C008  F01A         	movff	?___xxtofl+3,___fldiv@a+3
  1915  002D64  0E00               	movlw	0
  1916  002D66  6E13               	movwf	___fldiv@b^0,c
  1917  002D68  0E24               	movlw	36
  1918  002D6A  6E14               	movwf	(___fldiv@b+1)^0,c
  1919  002D6C  0EF4               	movlw	244
  1920  002D6E  6E15               	movwf	(___fldiv@b+2)^0,c
  1921  002D70  0E49               	movlw	73
  1922  002D72  6E16               	movwf	(___fldiv@b+3)^0,c
  1923  002D74  EC99  F00C         	call	___fldiv	;wreg free
  1924  002D78  C013  F045         	movff	?___fldiv,___fladd@b
  1925  002D7C  C014  F046         	movff	?___fldiv+1,___fladd@b+1
  1926  002D80  C015  F047         	movff	?___fldiv+2,___fladd@b+2
  1927  002D84  C016  F048         	movff	?___fldiv+3,___fladd@b+3
  1928  002D88  EC24  F008         	call	___fladd	;wreg free
  1929  002D8C  C045  F0E0         	movff	?___fladd,___fltol@f1
  1930  002D90  C046  F0E1         	movff	?___fladd+1,___fltol@f1+1
  1931  002D94  C047  F0E2         	movff	?___fladd+2,___fltol@f1+2
  1932  002D98  C048  F0E3         	movff	?___fladd+3,___fltol@f1+3
  1933  002D9C  ECEC  F013         	call	___fltol	;wreg free
  1934  002DA0  0100               	movlb	0	; () banked
  1935  002DA2  51E0               	movf	?___fltol& (0+255),w,b
  1936  002DA4  6EC8               	movwf	200,c	;volatile
  1937  002DA6                     l1078:
  1938                           
  1939                           ; BSR set to: 0
  1940  002DA6  0012               	return		;funcret
  1941  002DA8                     __end_of_I2C_Master_Mode_Clock_Configurations:
  1942                           	callstack 0
  1943                           
  1944 ;; *************** function _ECU_DC_Motor_Init *****************
  1945 ;; Defined at:
  1946 ;;		line 19 in file "ECU/DC_Motor/ecu_dc_motor.c"
  1947 ;; Parameters:    Size  Location     Type
  1948 ;;  dc_motor        2   17[COMRAM] PTR const struct .
  1949 ;;		 -> W2_W4_W6_Motor_Control(1), W1_W3_W5_Motor_Control(1), 
  1950 ;; Auto vars:     Size  Location     Type
  1951 ;;  ret_value       1    0        unsigned char 
  1952 ;; Return value:  Size  Location     Type
  1953 ;;                  1    wreg      unsigned char 
  1954 ;; Registers used:
  1955 ;;		wreg, fsr2l, fsr2h, status,2, status,0, prodl, prodh, cstack
  1956 ;; Tracked objects:
  1957 ;;		On entry : 0/0
  1958 ;;		On exit  : 0/0
  1959 ;;		Unchanged: 0/0
  1960 ;; Data sizes:     COMRAM   BANK0   BANK1   BANK2   BANK3   BANK4   BANK5   BANK6   BANK7   BANK8   BANK9  BANK10  BANK1
      +1  BANK12  BANK13  BANK14  BANK15
  1961 ;;      Params:         2       0       0       0       0       0       0       0       0       0       0       0       
      +0       0       0       0       0
  1962 ;;      Locals:         0       0       0       0       0       0       0       0       0       0       0       0       
      +0       0       0       0       0
  1963 ;;      Temps:          0       0       0       0       0       0       0       0       0       0       0       0       
      +0       0       0       0       0
  1964 ;;      Totals:         2       0       0       0       0       0       0       0       0       0       0       0       
      +0       0       0       0       0
  1965 ;;Total ram usage:        2 bytes
  1966 ;; Hardware stack levels used: 1
  1967 ;; Hardware stack levels required when called: 6
  1968 ;; This function calls:
  1969 ;;		_GPIO_Pin_Initialize
  1970 ;; This function is called by:
  1971 ;;		_Robot_Nav_Init
  1972 ;; This function uses a non-reentrant model
  1973 ;;
  1974                           
  1975                           	psect	text8
  1976  0033F6                     __ptext8:
  1977                           	callstack 0
  1978  0033F6                     _ECU_DC_Motor_Init:
  1979                           	callstack 22
  1980  0033F6                     
  1981                           ;ECU/DC_Motor/ecu_dc_motor.c: 22:     if(((void*)0) == dc_motor)
  1982  0033F6  5012               	movf	ECU_DC_Motor_Init@dc_motor^0,w,c
  1983  0033F8  1013               	iorwf	(ECU_DC_Motor_Init@dc_motor+1)^0,w,c
  1984  0033FA  A4D8               	btfss	status,2,c
  1985  0033FC  EF02  F01A         	goto	u6271
  1986  003400  EF04  F01A         	goto	u6270
  1987  003404                     u6271:
  1988  003404  EF06  F01A         	goto	l6748
  1989  003408                     u6270:
  1990  003408                     
  1991                           ;ECU/DC_Motor/ecu_dc_motor.c: 25:     }
  1992  003408  EF0C  F01A         	goto	l55
  1993  00340C                     l6748:
  1994                           
  1995                           ;ECU/DC_Motor/ecu_dc_motor.c: 27:     {;ECU/DC_Motor/ecu_dc_motor.c: 28:         GPIO_Pi
      +                          n_Initialize(&(dc_motor->dc_motor));
  1996  00340C  C012  F00F         	movff	ECU_DC_Motor_Init@dc_motor,GPIO_Pin_Initialize@_pin_config
  1997  003410  C013  F010         	movff	ECU_DC_Motor_Init@dc_motor+1,GPIO_Pin_Initialize@_pin_config+1
  1998  003414  EC28  F019         	call	_GPIO_Pin_Initialize	;wreg free
  1999  003418                     l55:
  2000  003418  0012               	return		;funcret
  2001  00341A                     __end_of_ECU_DC_Motor_Init:
  2002                           	callstack 0
  2003                           
  2004 ;; *************** function _CCP_PWM_Start *****************
  2005 ;; Defined at:
  2006 ;;		line 202 in file "MCAL/CCP/hal_ccp.c"
  2007 ;; Parameters:    Size  Location     Type
  2008 ;;  _ccp_obj        2    4[COMRAM] PTR const struct .
  2009 ;;		 -> CCP2_Obj(12), CCP1_Obj(12), 
  2010 ;; Auto vars:     Size  Location     Type
  2011 ;;  ret             1    0        unsigned char 
  2012 ;; Return value:  Size  Location     Type
  2013 ;;                  1    wreg      unsigned char 
  2014 ;; Registers used:
  2015 ;;		wreg, fsr2l, fsr2h, status,2, status,0
  2016 ;; Tracked objects:
  2017 ;;		On entry : 0/0
  2018 ;;		On exit  : 0/0
  2019 ;;		Unchanged: 0/0
  2020 ;; Data sizes:     COMRAM   BANK0   BANK1   BANK2   BANK3   BANK4   BANK5   BANK6   BANK7   BANK8   BANK9  BANK10  BANK1
      +1  BANK12  BANK13  BANK14  BANK15
  2021 ;;      Params:         2       0       0       0       0       0       0       0       0       0       0       0       
      +0       0       0       0       0
  2022 ;;      Locals:         0       0       0       0       0       0       0       0       0       0       0       0       
      +0       0       0       0       0
  2023 ;;      Temps:          1       0       0       0       0       0       0       0       0       0       0       0       
      +0       0       0       0       0
  2024 ;;      Totals:         3       0       0       0       0       0       0       0       0       0       0       0       
      +0       0       0       0       0
  2025 ;;Total ram usage:        3 bytes
  2026 ;; Hardware stack levels used: 1
  2027 ;; Hardware stack levels required when called: 4
  2028 ;; This function calls:
  2029 ;;		Nothing
  2030 ;; This function is called by:
  2031 ;;		_Robot_Nav_Init
  2032 ;; This function uses a non-reentrant model
  2033 ;;
  2034                           
  2035                           	psect	text9
  2036  00319E                     __ptext9:
  2037                           	callstack 0
  2038  00319E                     _CCP_PWM_Start:
  2039                           	callstack 24
  2040  00319E                     
  2041                           ;MCAL/CCP/hal_ccp.c: 205:     if(((void*)0) == _ccp_obj){
  2042  00319E  5005               	movf	CCP_PWM_Start@_ccp_obj^0,w,c
  2043  0031A0  1006               	iorwf	(CCP_PWM_Start@_ccp_obj+1)^0,w,c
  2044  0031A2  A4D8               	btfss	status,2,c
  2045  0031A4  EFD6  F018         	goto	u6391
  2046  0031A8  EFD8  F018         	goto	u6390
  2047  0031AC                     u6391:
  2048  0031AC  EFDA  F018         	goto	l6824
  2049  0031B0                     u6390:
  2050  0031B0                     
  2051                           ;MCAL/CCP/hal_ccp.c: 207:     }
  2052  0031B0  EFFC  F018         	goto	l529
  2053  0031B4                     l6824:
  2054                           
  2055                           ;MCAL/CCP/hal_ccp.c: 209:         if(CCP1_INST == _ccp_obj->ccp_inst){
  2056  0031B4  C005  FFD9         	movff	CCP_PWM_Start@_ccp_obj,fsr2l
  2057  0031B8  C006  FFDA         	movff	CCP_PWM_Start@_ccp_obj+1,fsr2h
  2058  0031BC  50DF               	movf	indf2,w,c
  2059  0031BE  A4D8               	btfss	status,2,c
  2060  0031C0  EFE4  F018         	goto	u6401
  2061  0031C4  EFE6  F018         	goto	u6400
  2062  0031C8                     u6401:
  2063  0031C8  EFEC  F018         	goto	l6828
  2064  0031CC                     u6400:
  2065  0031CC                     
  2066                           ;MCAL/CCP/hal_ccp.c: 210:             CCP1CONbits.CCP1M = ((uint8)0x0C);
  2067  0031CC  50BD               	movf	189,w,c	;volatile
  2068  0031CE  0BF0               	andlw	-16
  2069  0031D0  090C               	iorlw	12
  2070  0031D2  6EBD               	movwf	189,c	;volatile
  2071                           
  2072                           ;MCAL/CCP/hal_ccp.c: 211:         }
  2073  0031D4  EFFC  F018         	goto	l6832
  2074  0031D8                     l6828:
  2075  0031D8  C005  FFD9         	movff	CCP_PWM_Start@_ccp_obj,fsr2l
  2076  0031DC  C006  FFDA         	movff	CCP_PWM_Start@_ccp_obj+1,fsr2h
  2077  0031E0  04DE               	decf	postinc2,w,c
  2078  0031E2  A4D8               	btfss	status,2,c
  2079  0031E4  EFF6  F018         	goto	u6411
  2080  0031E8  EFF8  F018         	goto	u6410
  2081  0031EC                     u6411:
  2082  0031EC  EFFC  F018         	goto	l6832
  2083  0031F0                     u6410:
  2084  0031F0                     
  2085                           ;MCAL/CCP/hal_ccp.c: 213:             CCP2CONbits.CCP2M = ((uint8)0x0C);
  2086  0031F0  50BA               	movf	186,w,c	;volatile
  2087  0031F2  0BF0               	andlw	-16
  2088  0031F4  090C               	iorlw	12
  2089  0031F6  6EBA               	movwf	186,c	;volatile
  2090  0031F8                     l6832:
  2091  0031F8                     l529:
  2092  0031F8  0012               	return		;funcret
  2093  0031FA                     __end_of_CCP_PWM_Start:
  2094                           	callstack 0
  2095                           
  2096 ;; *************** function _CCP_Init *****************
  2097 ;; Defined at:
  2098 ;;		line 24 in file "MCAL/CCP/hal_ccp.c"
  2099 ;; Parameters:    Size  Location     Type
  2100 ;;  _ccp_obj        2   17[COMRAM] PTR const struct .
  2101 ;;		 -> CCP2_Obj(12), CCP1_Obj(12), 
  2102 ;; Auto vars:     Size  Location     Type
  2103 ;;  ret             1    0        unsigned char 
  2104 ;; Return value:  Size  Location     Type
  2105 ;;                  1    wreg      unsigned char 
  2106 ;; Registers used:
  2107 ;;		wreg, fsr2l, fsr2h, status,2, status,0, prodl, prodh, cstack
  2108 ;; Tracked objects:
  2109 ;;		On entry : 0/0
  2110 ;;		On exit  : 0/0
  2111 ;;		Unchanged: 0/0
  2112 ;; Data sizes:     COMRAM   BANK0   BANK1   BANK2   BANK3   BANK4   BANK5   BANK6   BANK7   BANK8   BANK9  BANK10  BANK1
      +1  BANK12  BANK13  BANK14  BANK15
  2113 ;;      Params:         2       0       0       0       0       0       0       0       0       0       0       0       
      +0       0       0       0       0
  2114 ;;      Locals:         0       0       0       0       0       0       0       0       0       0       0       0       
      +0       0       0       0       0
  2115 ;;      Temps:          1       0       0       0       0       0       0       0       0       0       0       0       
      +0       0       0       0       0
  2116 ;;      Totals:         3       0       0       0       0       0       0       0       0       0       0       0       
      +0       0       0       0       0
  2117 ;;Total ram usage:        3 bytes
  2118 ;; Hardware stack levels used: 1
  2119 ;; Hardware stack levels required when called: 6
  2120 ;; This function calls:
  2121 ;;		_CCP_Capture_Mode_Config
  2122 ;;		_CCP_Compare_Mode_Config
  2123 ;;		_CCP_Interrupt_Config
  2124 ;;		_CCP_PWM_Mode_Config
  2125 ;;		_GPIO_Pin_Initialize
  2126 ;; This function is called by:
  2127 ;;		_Robot_Nav_Init
  2128 ;; This function uses a non-reentrant model
  2129 ;;
  2130                           
  2131                           	psect	text10
  2132  0028E0                     __ptext10:
  2133                           	callstack 0
  2134  0028E0                     _CCP_Init:
  2135                           	callstack 22
  2136  0028E0                     
  2137                           ;MCAL/CCP/hal_ccp.c: 26:     if(((void*)0) == _ccp_obj){
  2138  0028E0  5012               	movf	CCP_Init@_ccp_obj^0,w,c
  2139  0028E2  1013               	iorwf	(CCP_Init@_ccp_obj+1)^0,w,c
  2140  0028E4  A4D8               	btfss	status,2,c
  2141  0028E6  EF77  F014         	goto	u6301
  2142  0028EA  EF79  F014         	goto	u6300
  2143  0028EE                     u6301:
  2144  0028EE  EF7B  F014         	goto	l6770
  2145  0028F2                     u6300:
  2146  0028F2                     
  2147                           ;MCAL/CCP/hal_ccp.c: 28:     }
  2148  0028F2  EFEA  F014         	goto	l502
  2149  0028F6                     l6770:
  2150                           
  2151                           ;MCAL/CCP/hal_ccp.c: 31:         if(CCP1_INST == _ccp_obj->ccp_inst){
  2152  0028F6  C012  FFD9         	movff	CCP_Init@_ccp_obj,fsr2l
  2153  0028FA  C013  FFDA         	movff	CCP_Init@_ccp_obj+1,fsr2h
  2154  0028FE  50DF               	movf	indf2,w,c
  2155  002900  A4D8               	btfss	status,2,c
  2156  002902  EF85  F014         	goto	u6311
  2157  002906  EF87  F014         	goto	u6310
  2158  00290A                     u6311:
  2159  00290A  EF8B  F014         	goto	l6774
  2160  00290E                     u6310:
  2161  00290E                     
  2162                           ;MCAL/CCP/hal_ccp.c: 32:             (CCP1CONbits.CCP1M = ((uint8)0x00));
  2163  00290E  0EF0               	movlw	-16
  2164  002910  16BD               	andwf	189,f,c	;volatile
  2165                           
  2166                           ;MCAL/CCP/hal_ccp.c: 33:         }
  2167  002912  EF99  F014         	goto	l6778
  2168  002916                     l6774:
  2169  002916  C012  FFD9         	movff	CCP_Init@_ccp_obj,fsr2l
  2170  00291A  C013  FFDA         	movff	CCP_Init@_ccp_obj+1,fsr2h
  2171  00291E  04DE               	decf	postinc2,w,c
  2172  002920  A4D8               	btfss	status,2,c
  2173  002922  EF95  F014         	goto	u6321
  2174  002926  EF97  F014         	goto	u6320
  2175  00292A                     u6321:
  2176  00292A  EF99  F014         	goto	l6778
  2177  00292E                     u6320:
  2178  00292E                     
  2179                           ;MCAL/CCP/hal_ccp.c: 35:             (CCP2CONbits.CCP2M = ((uint8)0x00));
  2180  00292E  0EF0               	movlw	-16
  2181  002930  16BA               	andwf	186,f,c	;volatile
  2182  002932                     l6778:
  2183                           
  2184                           ;MCAL/CCP/hal_ccp.c: 40:         if(CCP_CAPTURE_MODE_SELECTED == _ccp_obj->ccp_mode){
  2185  002932  EE20 F001          	lfsr	2,1
  2186  002936  5012               	movf	CCP_Init@_ccp_obj^0,w,c
  2187  002938  26D9               	addwf	fsr2l,f,c
  2188  00293A  5013               	movf	(CCP_Init@_ccp_obj+1)^0,w,c
  2189  00293C  22DA               	addwfc	fsr2h,f,c
  2190  00293E  50DF               	movf	indf2,w,c
  2191  002940  A4D8               	btfss	status,2,c
  2192  002942  EFA5  F014         	goto	u6331
  2193  002946  EFA7  F014         	goto	u6330
  2194  00294A                     u6331:
  2195  00294A  EFAF  F014         	goto	l6782
  2196  00294E                     u6330:
  2197  00294E  C012  F008         	movff	CCP_Init@_ccp_obj,CCP_Capture_Mode_Config@_ccp_obj
  2198  002952  C013  F009         	movff	CCP_Init@_ccp_obj+1,CCP_Capture_Mode_Config@_ccp_obj+1
  2199  002956  EC19  F012         	call	_CCP_Capture_Mode_Config	;wreg free
  2200                           
  2201                           ;MCAL/CCP/hal_ccp.c: 42:         }
  2202  00295A  EFDC  F014         	goto	l6790
  2203  00295E                     l6782:
  2204  00295E  EE20 F001          	lfsr	2,1
  2205  002962  5012               	movf	CCP_Init@_ccp_obj^0,w,c
  2206  002964  26D9               	addwf	fsr2l,f,c
  2207  002966  5013               	movf	(CCP_Init@_ccp_obj+1)^0,w,c
  2208  002968  22DA               	addwfc	fsr2h,f,c
  2209  00296A  04DE               	decf	postinc2,w,c
  2210  00296C  A4D8               	btfss	status,2,c
  2211  00296E  EFBB  F014         	goto	u6341
  2212  002972  EFBD  F014         	goto	u6340
  2213  002976                     u6341:
  2214  002976  EFC5  F014         	goto	l6786
  2215  00297A                     u6340:
  2216  00297A  C012  F008         	movff	CCP_Init@_ccp_obj,CCP_Compare_Mode_Config@_ccp_obj
  2217  00297E  C013  F009         	movff	CCP_Init@_ccp_obj+1,CCP_Compare_Mode_Config@_ccp_obj+1
  2218  002982  ECC5  F010         	call	_CCP_Compare_Mode_Config	;wreg free
  2219                           
  2220                           ;MCAL/CCP/hal_ccp.c: 46:         }
  2221  002986  EFDC  F014         	goto	l6790
  2222  00298A                     l6786:
  2223  00298A  EE20 F001          	lfsr	2,1
  2224  00298E  5012               	movf	CCP_Init@_ccp_obj^0,w,c
  2225  002990  26D9               	addwf	fsr2l,f,c
  2226  002992  5013               	movf	(CCP_Init@_ccp_obj+1)^0,w,c
  2227  002994  22DA               	addwfc	fsr2h,f,c
  2228  002996  0E02               	movlw	2
  2229  002998  18DE               	xorwf	postinc2,w,c
  2230  00299A  A4D8               	btfss	status,2,c
  2231  00299C  EFD2  F014         	goto	u6351
  2232  0029A0  EFD4  F014         	goto	u6350
  2233  0029A4                     u6351:
  2234  0029A4  EFDC  F014         	goto	l499
  2235  0029A8                     u6350:
  2236  0029A8                     
  2237                           ;MCAL/CCP/hal_ccp.c: 50:             CCP_PWM_Mode_Config(_ccp_obj);
  2238  0029A8  C012  F008         	movff	CCP_Init@_ccp_obj,CCP_PWM_Mode_Config@_ccp_obj
  2239  0029AC  C013  F009         	movff	CCP_Init@_ccp_obj+1,CCP_PWM_Mode_Config@_ccp_obj+1
  2240  0029B0  EC2E  F017         	call	_CCP_PWM_Mode_Config	;wreg free
  2241                           
  2242                           ;MCAL/CCP/hal_ccp.c: 51:         }
  2243  0029B4  EFDC  F014         	goto	l6790
  2244  0029B8                     l499:
  2245  0029B8                     l6790:
  2246  0029B8  0E03               	movlw	3
  2247  0029BA  2412               	addwf	CCP_Init@_ccp_obj^0,w,c
  2248  0029BC  6E0F               	movwf	GPIO_Pin_Initialize@_pin_config^0,c
  2249  0029BE  0E00               	movlw	0
  2250  0029C0  2013               	addwfc	(CCP_Init@_ccp_obj+1)^0,w,c
  2251  0029C2  6E10               	movwf	(GPIO_Pin_Initialize@_pin_config+1)^0,c
  2252  0029C4  EC28  F019         	call	_GPIO_Pin_Initialize	;wreg free
  2253  0029C8                     
  2254                           ;MCAL/CCP/hal_ccp.c: 58:         CCP_Interrupt_Config(_ccp_obj);
  2255  0029C8  C012  F005         	movff	CCP_Init@_ccp_obj,CCP_Interrupt_Config@_ccp_obj
  2256  0029CC  C013  F006         	movff	CCP_Init@_ccp_obj+1,CCP_Interrupt_Config@_ccp_obj+1
  2257  0029D0  EC51  F01A         	call	_CCP_Interrupt_Config	;wreg free
  2258  0029D4                     l502:
  2259  0029D4  0012               	return		;funcret
  2260  0029D6                     __end_of_CCP_Init:
  2261                           	callstack 0
  2262                           
  2263 ;; *************** function _GPIO_Pin_Initialize *****************
  2264 ;; Defined at:
  2265 ;;		line 158 in file "MCAL/GPIO/hal_gpio.c"
  2266 ;; Parameters:    Size  Location     Type
  2267 ;;  _pin_config     2   14[COMRAM] PTR const struct .
  2268 ;;		 -> pinc0(1), CCP2_Obj(12), CCP1_Obj(12), W2_W4_W6_Motor_Control(1), 
  2269 ;;		 -> W1_W3_W5_Motor_Control(1), 
  2270 ;; Auto vars:     Size  Location     Type
  2271 ;;  ERRORSTATUS     1   16[COMRAM] unsigned char 
  2272 ;; Return value:  Size  Location     Type
  2273 ;;                  1    wreg      unsigned char 
  2274 ;; Registers used:
  2275 ;;		wreg, fsr2l, fsr2h, status,2, status,0, prodl, prodh, cstack
  2276 ;; Tracked objects:
  2277 ;;		On entry : 0/0
  2278 ;;		On exit  : 0/0
  2279 ;;		Unchanged: 0/0
  2280 ;; Data sizes:     COMRAM   BANK0   BANK1   BANK2   BANK3   BANK4   BANK5   BANK6   BANK7   BANK8   BANK9  BANK10  BANK1
      +1  BANK12  BANK13  BANK14  BANK15
  2281 ;;      Params:         2       0       0       0       0       0       0       0       0       0       0       0       
      +0       0       0       0       0
  2282 ;;      Locals:         1       0       0       0       0       0       0       0       0       0       0       0       
      +0       0       0       0       0
  2283 ;;      Temps:          0       0       0       0       0       0       0       0       0       0       0       0       
      +0       0       0       0       0
  2284 ;;      Totals:         3       0       0       0       0       0       0       0       0       0       0       0       
      +0       0       0       0       0
  2285 ;;Total ram usage:        3 bytes
  2286 ;; Hardware stack levels used: 1
  2287 ;; Hardware stack levels required when called: 5
  2288 ;; This function calls:
  2289 ;;		_GPIO_Pin_Direction_Initialize
  2290 ;;		_GPIO_Pin_Write_Logic
  2291 ;; This function is called by:
  2292 ;;		_ECU_DC_Motor_Init
  2293 ;;		_CCP_Init
  2294 ;;		_application_intialize
  2295 ;;		_IR_Sensor_Init
  2296 ;;		_lcd_4bit_initialize
  2297 ;;		_lcd_8bit_initialize
  2298 ;;		_Ecu_Stepper_Init
  2299 ;;		_Ultra_Sonic_Init
  2300 ;; This function uses a non-reentrant model
  2301 ;;
  2302                           
  2303                           	psect	text11
  2304  003250                     __ptext11:
  2305                           	callstack 0
  2306  003250                     _GPIO_Pin_Initialize:
  2307                           	callstack 22
  2308  003250                     
  2309                           ;MCAL/GPIO/hal_gpio.c: 161:           if ( ((void*)0)==_pin_config)
  2310  003250  500F               	movf	GPIO_Pin_Initialize@_pin_config^0,w,c
  2311  003252  1010               	iorwf	(GPIO_Pin_Initialize@_pin_config+1)^0,w,c
  2312  003254  A4D8               	btfss	status,2,c
  2313  003256  EF2F  F019         	goto	u5901
  2314  00325A  EF31  F019         	goto	u5900
  2315  00325E                     u5901:
  2316  00325E  EF35  F019         	goto	l6436
  2317  003262                     u5900:
  2318  003262                     
  2319                           ;MCAL/GPIO/hal_gpio.c: 162:     {;MCAL/GPIO/hal_gpio.c: 163:         ERRORSTATUS=(Std_Re
      +                          turnType) 0x00;
  2320  003262  0E00               	movlw	0
  2321  003264  6E11               	movwf	GPIO_Pin_Initialize@ERRORSTATUS^0,c
  2322                           
  2323                           ;MCAL/GPIO/hal_gpio.c: 164:     }
  2324  003266  EF4B  F019         	goto	l6438
  2325  00326A                     l6436:
  2326                           
  2327                           ;MCAL/GPIO/hal_gpio.c: 166:     {;MCAL/GPIO/hal_gpio.c: 167:          ERRORSTATUS=GPIO_P
      +                          in_Direction_Initialize(_pin_config);
  2328  00326A  C00F  F005         	movff	GPIO_Pin_Initialize@_pin_config,GPIO_Pin_Direction_Initialize@_pin_config
  2329  00326E  C010  F006         	movff	GPIO_Pin_Initialize@_pin_config+1,GPIO_Pin_Direction_Initialize@_pin_config+1
  2330  003272  EC79  F011         	call	_GPIO_Pin_Direction_Initialize	;wreg free
  2331  003276  6E11               	movwf	GPIO_Pin_Initialize@ERRORSTATUS^0,c
  2332                           
  2333                           ;MCAL/GPIO/hal_gpio.c: 168:          ERRORSTATUS=GPIO_Pin_Write_Logic(_pin_config,_pin_c
      +                          onfig->logic);
  2334  003278  C00F  F005         	movff	GPIO_Pin_Initialize@_pin_config,GPIO_Pin_Write_Logic@_pin_config
  2335  00327C  C010  F006         	movff	GPIO_Pin_Initialize@_pin_config+1,GPIO_Pin_Write_Logic@_pin_config+1
  2336  003280  C00F  FFD9         	movff	GPIO_Pin_Initialize@_pin_config,fsr2l
  2337  003284  C010  FFDA         	movff	GPIO_Pin_Initialize@_pin_config+1,fsr2h
  2338  003288  0E00               	movlw	0
  2339  00328A  BEDF               	btfsc	indf2,7,c
  2340  00328C  0E01               	movlw	1
  2341  00328E  6E07               	movwf	GPIO_Pin_Write_Logic@logic^0,c
  2342  003290  EC58  F013         	call	_GPIO_Pin_Write_Logic	;wreg free
  2343  003294  6E11               	movwf	GPIO_Pin_Initialize@ERRORSTATUS^0,c
  2344  003296                     l6438:
  2345                           
  2346                           ;MCAL/GPIO/hal_gpio.c: 171:      return ERRORSTATUS;
  2347  003296  5011               	movf	GPIO_Pin_Initialize@ERRORSTATUS^0,w,c
  2348  003298  0012               	return		;funcret
  2349  00329A                     __end_of_GPIO_Pin_Initialize:
  2350                           	callstack 0
  2351                           
  2352 ;; *************** function _GPIO_Pin_Direction_Initialize *****************
  2353 ;; Defined at:
  2354 ;;		line 25 in file "MCAL/GPIO/hal_gpio.c"
  2355 ;; Parameters:    Size  Location     Type
  2356 ;;  _pin_config     2    4[COMRAM] PTR const struct .
  2357 ;;		 -> pinc0(1), CCP2_Obj(12), CCP1_Obj(12), W2_W4_W6_Motor_Control(1), 
  2358 ;;		 -> W1_W3_W5_Motor_Control(1), 
  2359 ;; Auto vars:     Size  Location     Type
  2360 ;;  ERRORSTATUS     1   12[COMRAM] unsigned char 
  2361 ;; Return value:  Size  Location     Type
  2362 ;;                  1    wreg      unsigned char 
  2363 ;; Registers used:
  2364 ;;		wreg, fsr2l, fsr2h, status,2, status,0, prodl, prodh
  2365 ;; Tracked objects:
  2366 ;;		On entry : 0/0
  2367 ;;		On exit  : 0/0
  2368 ;;		Unchanged: 0/0
  2369 ;; Data sizes:     COMRAM   BANK0   BANK1   BANK2   BANK3   BANK4   BANK5   BANK6   BANK7   BANK8   BANK9  BANK10  BANK1
      +1  BANK12  BANK13  BANK14  BANK15
  2370 ;;      Params:         2       0       0       0       0       0       0       0       0       0       0       0       
      +0       0       0       0       0
  2371 ;;      Locals:         1       0       0       0       0       0       0       0       0       0       0       0       
      +0       0       0       0       0
  2372 ;;      Temps:          6       0       0       0       0       0       0       0       0       0       0       0       
      +0       0       0       0       0
  2373 ;;      Totals:         9       0       0       0       0       0       0       0       0       0       0       0       
      +0       0       0       0       0
  2374 ;;Total ram usage:        9 bytes
  2375 ;; Hardware stack levels used: 1
  2376 ;; Hardware stack levels required when called: 4
  2377 ;; This function calls:
  2378 ;;		Nothing
  2379 ;; This function is called by:
  2380 ;;		_GPIO_Pin_Initialize
  2381 ;;		_Ecu_Stepper_Init
  2382 ;;		_interrupt_RBx_pin_init
  2383 ;; This function uses a non-reentrant model
  2384 ;;
  2385                           
  2386                           	psect	text12
  2387  0022F2                     __ptext12:
  2388                           	callstack 0
  2389  0022F2                     _GPIO_Pin_Direction_Initialize:
  2390                           	callstack 22
  2391  0022F2                     
  2392                           ;MCAL/GPIO/hal_gpio.c: 25: Std_ReturnType GPIO_Pin_Direction_Initialize (const pin_confi
      +                          g_st * _pin_config);MCAL/GPIO/hal_gpio.c: 26: {;MCAL/GPIO/hal_gpio.c: 27:     Std_Return
      +                          Type ERRORSTATUS =(Std_ReturnType) 0x01;
  2393  0022F2  0E01               	movlw	1
  2394  0022F4  6E0D               	movwf	GPIO_Pin_Direction_Initialize@ERRORSTATUS^0,c
  2395  0022F6                     
  2396                           ;MCAL/GPIO/hal_gpio.c: 28:     if ( ((void*)0)==_pin_config||_pin_config->pin> 8 -1)
  2397  0022F6  5005               	movf	GPIO_Pin_Direction_Initialize@_pin_config^0,w,c
  2398  0022F8  1006               	iorwf	(GPIO_Pin_Direction_Initialize@_pin_config+1)^0,w,c
  2399  0022FA  B4D8               	btfsc	status,2,c
  2400  0022FC  EF82  F011         	goto	u5781
  2401  002300  EF84  F011         	goto	u5780
  2402  002304                     u5781:
  2403  002304  EF93  F011         	goto	l6364
  2404  002308                     u5780:
  2405  002308  C005  FFD9         	movff	GPIO_Pin_Direction_Initialize@_pin_config,fsr2l
  2406  00230C  C006  FFDA         	movff	GPIO_Pin_Direction_Initialize@_pin_config+1,fsr2h
  2407  002310  50DF               	movf	223,w,c
  2408  002312  0B07               	andlw	7
  2409  002314  6E07               	movwf	??_GPIO_Pin_Direction_Initialize^0,c
  2410  002316  0E07               	movlw	7
  2411  002318  6407               	cpfsgt	??_GPIO_Pin_Direction_Initialize^0,c
  2412  00231A  EF91  F011         	goto	u5791
  2413  00231E  EF93  F011         	goto	u5790
  2414  002322                     u5791:
  2415  002322  EFF6  F011         	goto	l6372
  2416  002326                     u5790:
  2417  002326                     l6364:
  2418                           
  2419                           ;MCAL/GPIO/hal_gpio.c: 29:     {;MCAL/GPIO/hal_gpio.c: 30:         ERRORSTATUS = (Std_Re
      +                          turnType) 0x00;
  2420  002326  0E00               	movlw	0
  2421  002328  6E0D               	movwf	GPIO_Pin_Direction_Initialize@ERRORSTATUS^0,c
  2422                           
  2423                           ;MCAL/GPIO/hal_gpio.c: 31:     }
  2424  00232A  EF17  F012         	goto	l6374
  2425  00232E                     l6366:
  2426                           
  2427                           ;MCAL/GPIO/hal_gpio.c: 37:          (*tris_registers[_pin_config->port]&=~( (uint8)1<<_p
      +                          in_config->pin ));
  2428  00232E  C005  FFD9         	movff	GPIO_Pin_Direction_Initialize@_pin_config,fsr2l
  2429  002332  C006  FFDA         	movff	GPIO_Pin_Direction_Initialize@_pin_config+1,fsr2h
  2430  002336  50DF               	movf	223,w,c
  2431  002338  0B07               	andlw	7
  2432  00233A  6E07               	movwf	??_GPIO_Pin_Direction_Initialize^0,c
  2433  00233C  0E01               	movlw	1
  2434  00233E  6E08               	movwf	(??_GPIO_Pin_Direction_Initialize+1)^0,c
  2435  002340  2A07               	incf	??_GPIO_Pin_Direction_Initialize^0,f,c
  2436  002342  EFA5  F011         	goto	u5804
  2437  002346                     u5805:
  2438  002346  90D8               	bcf	status,0,c
  2439  002348  3608               	rlcf	(??_GPIO_Pin_Direction_Initialize+1)^0,f,c
  2440  00234A                     u5804:
  2441  00234A  2E07               	decfsz	??_GPIO_Pin_Direction_Initialize^0,f,c
  2442  00234C  EFA3  F011         	goto	u5805
  2443  002350  5008               	movf	(??_GPIO_Pin_Direction_Initialize+1)^0,w,c
  2444  002352  0AFF               	xorlw	255
  2445  002354  6E09               	movwf	(??_GPIO_Pin_Direction_Initialize+2)^0,c
  2446  002356  C005  FFD9         	movff	GPIO_Pin_Direction_Initialize@_pin_config,fsr2l
  2447  00235A  C006  FFDA         	movff	GPIO_Pin_Direction_Initialize@_pin_config+1,fsr2h
  2448  00235E  30DF               	rrcf	223,w,c
  2449  002360  32E8               	rrcf	wreg,f,c
  2450  002362  32E8               	rrcf	wreg,f,c
  2451  002364  0B07               	andlw	7
  2452  002366  6E0A               	movwf	(??_GPIO_Pin_Direction_Initialize+3)^0,c
  2453  002368  500A               	movf	(??_GPIO_Pin_Direction_Initialize+3)^0,w,c
  2454  00236A  0D02               	mullw	2
  2455  00236C  0E74               	movlw	low _tris_registers
  2456  00236E  24F3               	addwf	243,w,c
  2457  002370  6ED9               	movwf	fsr2l,c
  2458  002372  0E00               	movlw	high _tris_registers
  2459  002374  20F4               	addwfc	prodh,w,c
  2460  002376  6EDA               	movwf	fsr2h,c
  2461  002378  CFDE F00B          	movff	postinc2,??_GPIO_Pin_Direction_Initialize+4
  2462  00237C  CFDD F00C          	movff	postdec2,??_GPIO_Pin_Direction_Initialize+5
  2463  002380  C00B  FFD9         	movff	??_GPIO_Pin_Direction_Initialize+4,fsr2l
  2464  002384  C00C  FFDA         	movff	??_GPIO_Pin_Direction_Initialize+5,fsr2h
  2465  002388  5009               	movf	(??_GPIO_Pin_Direction_Initialize+2)^0,w,c
  2466  00238A  16DF               	andwf	indf2,f,c
  2467                           
  2468                           ;MCAL/GPIO/hal_gpio.c: 38:             break;
  2469  00238C  EF17  F012         	goto	l6374
  2470  002390                     l6368:
  2471                           
  2472                           ;MCAL/GPIO/hal_gpio.c: 40:           (*tris_registers[_pin_config->port]|=( (uint8)1<<_p
      +                          in_config->pin ));
  2473  002390  C005  FFD9         	movff	GPIO_Pin_Direction_Initialize@_pin_config,fsr2l
  2474  002394  C006  FFDA         	movff	GPIO_Pin_Direction_Initialize@_pin_config+1,fsr2h
  2475  002398  50DF               	movf	223,w,c
  2476  00239A  0B07               	andlw	7
  2477  00239C  6E07               	movwf	??_GPIO_Pin_Direction_Initialize^0,c
  2478  00239E  0E01               	movlw	1
  2479  0023A0  6E08               	movwf	(??_GPIO_Pin_Direction_Initialize+1)^0,c
  2480  0023A2  2A07               	incf	??_GPIO_Pin_Direction_Initialize^0,f,c
  2481  0023A4  EFD6  F011         	goto	u5814
  2482  0023A8                     u5815:
  2483  0023A8  90D8               	bcf	status,0,c
  2484  0023AA  3608               	rlcf	(??_GPIO_Pin_Direction_Initialize+1)^0,f,c
  2485  0023AC                     u5814:
  2486  0023AC  2E07               	decfsz	??_GPIO_Pin_Direction_Initialize^0,f,c
  2487  0023AE  EFD4  F011         	goto	u5815
  2488  0023B2  C005  FFD9         	movff	GPIO_Pin_Direction_Initialize@_pin_config,fsr2l
  2489  0023B6  C006  FFDA         	movff	GPIO_Pin_Direction_Initialize@_pin_config+1,fsr2h
  2490  0023BA  30DF               	rrcf	223,w,c
  2491  0023BC  32E8               	rrcf	wreg,f,c
  2492  0023BE  32E8               	rrcf	wreg,f,c
  2493  0023C0  0B07               	andlw	7
  2494  0023C2  6E09               	movwf	(??_GPIO_Pin_Direction_Initialize+2)^0,c
  2495  0023C4  5009               	movf	(??_GPIO_Pin_Direction_Initialize+2)^0,w,c
  2496  0023C6  0D02               	mullw	2
  2497  0023C8  0E74               	movlw	low _tris_registers
  2498  0023CA  24F3               	addwf	243,w,c
  2499  0023CC  6ED9               	movwf	fsr2l,c
  2500  0023CE  0E00               	movlw	high _tris_registers
  2501  0023D0  20F4               	addwfc	prodh,w,c
  2502  0023D2  6EDA               	movwf	fsr2h,c
  2503  0023D4  CFDE F00A          	movff	postinc2,??_GPIO_Pin_Direction_Initialize+3
  2504  0023D8  CFDD F00B          	movff	postdec2,??_GPIO_Pin_Direction_Initialize+4
  2505  0023DC  C00A  FFD9         	movff	??_GPIO_Pin_Direction_Initialize+3,fsr2l
  2506  0023E0  C00B  FFDA         	movff	??_GPIO_Pin_Direction_Initialize+4,fsr2h
  2507  0023E4  5008               	movf	(??_GPIO_Pin_Direction_Initialize+1)^0,w,c
  2508  0023E6  12DF               	iorwf	indf2,f,c
  2509                           
  2510                           ;MCAL/GPIO/hal_gpio.c: 41:             break;
  2511  0023E8  EF17  F012         	goto	l6374
  2512  0023EC                     l6372:
  2513  0023EC  C005  FFD9         	movff	GPIO_Pin_Direction_Initialize@_pin_config,fsr2l
  2514  0023F0  C006  FFDA         	movff	GPIO_Pin_Direction_Initialize@_pin_config+1,fsr2h
  2515  0023F4  BCDF               	btfsc	indf2,6,c
  2516  0023F6  EFFF  F011         	goto	u5821
  2517  0023FA  EF02  F012         	goto	u5820
  2518  0023FE                     u5821:
  2519  0023FE  0E01               	movlw	1
  2520  002400  EF03  F012         	goto	u5830
  2521  002404                     u5820:
  2522  002404  0E00               	movlw	0
  2523  002406                     u5830:
  2524  002406  6E07               	movwf	??_GPIO_Pin_Direction_Initialize^0,c
  2525  002408  6A08               	clrf	(??_GPIO_Pin_Direction_Initialize+1)^0,c
  2526                           
  2527                           ; Switch on 2 bytes has been partitioned into a top level switch of size 1, and 1 sub-sw
      +                          itches
  2528                           ; Switch size 1, requested type "simple"
  2529                           ; Number of cases is 1, Range of values is 0 to 0
  2530                           ; switch strategies available:
  2531                           ; Name         Instructions Cycles
  2532                           ; simple_byte            4     3 (average)
  2533                           ;	Chosen strategy is simple_byte
  2534  00240A  5008               	movf	(??_GPIO_Pin_Direction_Initialize+1)^0,w,c
  2535  00240C  0A00               	xorlw	0	; case 0
  2536  00240E  B4D8               	btfsc	status,2,c
  2537  002410  EF0C  F012         	goto	l8870
  2538  002414  EF93  F011         	goto	l6364
  2539  002418                     l8870:
  2540                           
  2541                           ; Switch size 1, requested type "simple"
  2542                           ; Number of cases is 2, Range of values is 0 to 1
  2543                           ; switch strategies available:
  2544                           ; Name         Instructions Cycles
  2545                           ; simple_byte            7     4 (average)
  2546                           ;	Chosen strategy is simple_byte
  2547  002418  5007               	movf	??_GPIO_Pin_Direction_Initialize^0,w,c
  2548  00241A  0A00               	xorlw	0	; case 0
  2549  00241C  B4D8               	btfsc	status,2,c
  2550  00241E  EF97  F011         	goto	l6366
  2551  002422  0A01               	xorlw	1	; case 1
  2552  002424  B4D8               	btfsc	status,2,c
  2553  002426  EFC8  F011         	goto	l6368
  2554  00242A  EF93  F011         	goto	l6364
  2555  00242E                     l6374:
  2556                           
  2557                           ;MCAL/GPIO/hal_gpio.c: 47:     return ERRORSTATUS;
  2558  00242E  500D               	movf	GPIO_Pin_Direction_Initialize@ERRORSTATUS^0,w,c
  2559  002430  0012               	return		;funcret
  2560  002432                     __end_of_GPIO_Pin_Direction_Initialize:
  2561                           	callstack 0
  2562                           
  2563 ;; *************** function _CCP_PWM_Mode_Config *****************
  2564 ;; Defined at:
  2565 ;;		line 264 in file "MCAL/CCP/hal_ccp.c"
  2566 ;; Parameters:    Size  Location     Type
  2567 ;;  _ccp_obj        2    7[COMRAM] PTR const struct .
  2568 ;;		 -> CCP2_Obj(12), CCP1_Obj(12), 
  2569 ;; Auto vars:     Size  Location     Type
  2570 ;;		None
  2571 ;; Return value:  Size  Location     Type
  2572 ;;                  1    wreg      void 
  2573 ;; Registers used:
  2574 ;;		wreg, fsr2l, fsr2h, status,2, status,0, cstack
  2575 ;; Tracked objects:
  2576 ;;		On entry : 0/0
  2577 ;;		On exit  : 0/0
  2578 ;;		Unchanged: 0/0
  2579 ;; Data sizes:     COMRAM   BANK0   BANK1   BANK2   BANK3   BANK4   BANK5   BANK6   BANK7   BANK8   BANK9  BANK10  BANK1
      +1  BANK12  BANK13  BANK14  BANK15
  2580 ;;      Params:         2       0       0       0       0       0       0       0       0       0       0       0       
      +0       0       0       0       0
  2581 ;;      Locals:         0       0       0       0       0       0       0       0       0       0       0       0       
      +0       0       0       0       0
  2582 ;;      Temps:          1       0       0       0       0       0       0       0       0       0       0       0       
      +0       0       0       0       0
  2583 ;;      Totals:         3       0       0       0       0       0       0       0       0       0       0       0       
      +0       0       0       0       0
  2584 ;;Total ram usage:        3 bytes
  2585 ;; Hardware stack levels used: 1
  2586 ;; Hardware stack levels required when called: 5
  2587 ;; This function calls:
  2588 ;;		_Timer2_Init
  2589 ;; This function is called by:
  2590 ;;		_CCP_Init
  2591 ;; This function uses a non-reentrant model
  2592 ;;
  2593                           
  2594                           	psect	text13
  2595  002E5C                     __ptext13:
  2596                           	callstack 0
  2597  002E5C                     _CCP_PWM_Mode_Config:
  2598                           	callstack 22
  2599  002E5C                     
  2600                           ;MCAL/CCP/hal_ccp.c: 269:     PR2 = _ccp_obj->timer2.timer2_preload_value ;
  2601  002E5C  EE20 F009          	lfsr	2,9
  2602  002E60  5008               	movf	CCP_PWM_Mode_Config@_ccp_obj^0,w,c
  2603  002E62  26D9               	addwf	fsr2l,f,c
  2604  002E64  5009               	movf	(CCP_PWM_Mode_Config@_ccp_obj+1)^0,w,c
  2605  002E66  22DA               	addwfc	fsr2h,f,c
  2606  002E68  50DF               	movf	indf2,w,c
  2607  002E6A  6ECB               	movwf	203,c	;volatile
  2608  002E6C                     
  2609                           ;MCAL/CCP/hal_ccp.c: 270:     Timer2_Init(&(_ccp_obj->timer2));
  2610  002E6C  0E09               	movlw	9
  2611  002E6E  2408               	addwf	CCP_PWM_Mode_Config@_ccp_obj^0,w,c
  2612  002E70  6E05               	movwf	Timer2_Init@_timer2^0,c
  2613  002E72  0E00               	movlw	0
  2614  002E74  2009               	addwfc	(CCP_PWM_Mode_Config@_ccp_obj+1)^0,w,c
  2615  002E76  6E06               	movwf	(Timer2_Init@_timer2+1)^0,c
  2616  002E78  EC31  F018         	call	_Timer2_Init	;wreg free
  2617  002E7C                     
  2618                           ;MCAL/CCP/hal_ccp.c: 271:     if(CCP1_INST == _ccp_obj->ccp_inst){
  2619  002E7C  C008  FFD9         	movff	CCP_PWM_Mode_Config@_ccp_obj,fsr2l
  2620  002E80  C009  FFDA         	movff	CCP_PWM_Mode_Config@_ccp_obj+1,fsr2h
  2621  002E84  50DF               	movf	indf2,w,c
  2622  002E86  A4D8               	btfss	status,2,c
  2623  002E88  EF48  F017         	goto	u6041
  2624  002E8C  EF4A  F017         	goto	u6040
  2625  002E90                     u6041:
  2626  002E90  EF5F  F017         	goto	l6606
  2627  002E94                     u6040:
  2628  002E94                     
  2629                           ;MCAL/CCP/hal_ccp.c: 272:         if(((uint8)0x0C) == _ccp_obj->ccp_mode_variant){
  2630  002E94  EE20 F002          	lfsr	2,2
  2631  002E98  5008               	movf	CCP_PWM_Mode_Config@_ccp_obj^0,w,c
  2632  002E9A  26D9               	addwf	fsr2l,f,c
  2633  002E9C  5009               	movf	(CCP_PWM_Mode_Config@_ccp_obj+1)^0,w,c
  2634  002E9E  22DA               	addwfc	fsr2h,f,c
  2635  002EA0  0E0C               	movlw	12
  2636  002EA2  18DE               	xorwf	postinc2,w,c
  2637  002EA4  A4D8               	btfss	status,2,c
  2638  002EA6  EF57  F017         	goto	u6051
  2639  002EAA  EF59  F017         	goto	u6050
  2640  002EAE                     u6051:
  2641  002EAE  EF7E  F017         	goto	l549
  2642  002EB2                     u6050:
  2643  002EB2                     
  2644                           ;MCAL/CCP/hal_ccp.c: 273:             (CCP1CONbits.CCP1M = ((uint8)0x0C));
  2645  002EB2  50BD               	movf	189,w,c	;volatile
  2646  002EB4  0BF0               	andlw	-16
  2647  002EB6  090C               	iorlw	12
  2648  002EB8  6EBD               	movwf	189,c	;volatile
  2649                           
  2650                           ;MCAL/CCP/hal_ccp.c: 274:         }
  2651  002EBA  EF7E  F017         	goto	l549
  2652  002EBE                     l6606:
  2653  002EBE  C008  FFD9         	movff	CCP_PWM_Mode_Config@_ccp_obj,fsr2l
  2654  002EC2  C009  FFDA         	movff	CCP_PWM_Mode_Config@_ccp_obj+1,fsr2h
  2655  002EC6  04DE               	decf	postinc2,w,c
  2656  002EC8  A4D8               	btfss	status,2,c
  2657  002ECA  EF69  F017         	goto	u6061
  2658  002ECE  EF6B  F017         	goto	u6060
  2659  002ED2                     u6061:
  2660  002ED2  EF7E  F017         	goto	l549
  2661  002ED6                     u6060:
  2662  002ED6                     
  2663                           ;MCAL/CCP/hal_ccp.c: 278:         if(((uint8)0x0C) == _ccp_obj->ccp_mode_variant){
  2664  002ED6  EE20 F002          	lfsr	2,2
  2665  002EDA  5008               	movf	CCP_PWM_Mode_Config@_ccp_obj^0,w,c
  2666  002EDC  26D9               	addwf	fsr2l,f,c
  2667  002EDE  5009               	movf	(CCP_PWM_Mode_Config@_ccp_obj+1)^0,w,c
  2668  002EE0  22DA               	addwfc	fsr2h,f,c
  2669  002EE2  0E0C               	movlw	12
  2670  002EE4  18DE               	xorwf	postinc2,w,c
  2671  002EE6  A4D8               	btfss	status,2,c
  2672  002EE8  EF78  F017         	goto	u6071
  2673  002EEC  EF7A  F017         	goto	u6070
  2674  002EF0                     u6071:
  2675  002EF0  EF7E  F017         	goto	l549
  2676  002EF4                     u6070:
  2677  002EF4                     
  2678                           ;MCAL/CCP/hal_ccp.c: 279:             (CCP2CONbits.CCP2M = ((uint8)0x0C));
  2679  002EF4  50BA               	movf	186,w,c	;volatile
  2680  002EF6  0BF0               	andlw	-16
  2681  002EF8  090C               	iorlw	12
  2682  002EFA  6EBA               	movwf	186,c	;volatile
  2683  002EFC                     l549:
  2684  002EFC  0012               	return		;funcret
  2685  002EFE                     __end_of_CCP_PWM_Mode_Config:
  2686                           	callstack 0
  2687                           
  2688 ;; *************** function _Timer2_Init *****************
  2689 ;; Defined at:
  2690 ;;		line 15 in file "MCAL/TIMER2/mcal_timer2.c"
  2691 ;; Parameters:    Size  Location     Type
  2692 ;;  _timer2         2    4[COMRAM] PTR const struct .
  2693 ;;		 -> CCP2_Obj(12), CCP1_Obj(12), 
  2694 ;; Auto vars:     Size  Location     Type
  2695 ;;  ERRORSTATUS     1    0        unsigned char 
  2696 ;; Return value:  Size  Location     Type
  2697 ;;                  1    wreg      unsigned char 
  2698 ;; Registers used:
  2699 ;;		wreg, fsr2l, fsr2h, status,2, status,0
  2700 ;; Tracked objects:
  2701 ;;		On entry : 0/0
  2702 ;;		On exit  : 0/0
  2703 ;;		Unchanged: 0/0
  2704 ;; Data sizes:     COMRAM   BANK0   BANK1   BANK2   BANK3   BANK4   BANK5   BANK6   BANK7   BANK8   BANK9  BANK10  BANK1
      +1  BANK12  BANK13  BANK14  BANK15
  2705 ;;      Params:         2       0       0       0       0       0       0       0       0       0       0       0       
      +0       0       0       0       0
  2706 ;;      Locals:         0       0       0       0       0       0       0       0       0       0       0       0       
      +0       0       0       0       0
  2707 ;;      Temps:          1       0       0       0       0       0       0       0       0       0       0       0       
      +0       0       0       0       0
  2708 ;;      Totals:         3       0       0       0       0       0       0       0       0       0       0       0       
      +0       0       0       0       0
  2709 ;;Total ram usage:        3 bytes
  2710 ;; Hardware stack levels used: 1
  2711 ;; Hardware stack levels required when called: 4
  2712 ;; This function calls:
  2713 ;;		Nothing
  2714 ;; This function is called by:
  2715 ;;		_CCP_PWM_Mode_Config
  2716 ;; This function uses a non-reentrant model
  2717 ;;
  2718                           
  2719                           	psect	text14
  2720  003062                     __ptext14:
  2721                           	callstack 0
  2722  003062                     _Timer2_Init:
  2723                           	callstack 22
  2724  003062                     
  2725                           ;MCAL/TIMER2/mcal_timer2.c: 17:   if (((void*)0) == _timer2) {
  2726  003062  5005               	movf	Timer2_Init@_timer2^0,w,c
  2727  003064  1006               	iorwf	(Timer2_Init@_timer2+1)^0,w,c
  2728  003066  A4D8               	btfss	status,2,c
  2729  003068  EF38  F018         	goto	u5841
  2730  00306C  EF3A  F018         	goto	u5840
  2731  003070                     u5841:
  2732  003070  EF3C  F018         	goto	l1813
  2733  003074                     u5840:
  2734  003074                     
  2735                           ;MCAL/TIMER2/mcal_timer2.c: 19:   } else {
  2736  003074  EF67  F018         	goto	l1815
  2737  003078                     l1813:
  2738                           
  2739                           ;MCAL/TIMER2/mcal_timer2.c: 21:     (T2CONbits.TMR2ON=0);
  2740  003078  94CA               	bcf	202,2,c	;volatile
  2741  00307A                     
  2742                           ;MCAL/TIMER2/mcal_timer2.c: 23:     (T2CONbits.T2CKPS=_timer2->timer2_prescaler_value);
  2743  00307A  EE20 F001          	lfsr	2,1
  2744  00307E  5005               	movf	Timer2_Init@_timer2^0,w,c
  2745  003080  26D9               	addwf	fsr2l,f,c
  2746  003082  5006               	movf	(Timer2_Init@_timer2+1)^0,w,c
  2747  003084  22DA               	addwfc	fsr2h,f,c
  2748  003086  50DF               	movf	indf2,w,c
  2749  003088  6E07               	movwf	??_Timer2_Init^0,c
  2750  00308A  50CA               	movf	202,w,c	;volatile
  2751  00308C  1807               	xorwf	??_Timer2_Init^0,w,c
  2752  00308E  0BFC               	andlw	-4
  2753  003090  1807               	xorwf	??_Timer2_Init^0,w,c
  2754  003092  6ECA               	movwf	202,c	;volatile
  2755                           
  2756                           ;MCAL/TIMER2/mcal_timer2.c: 25:     (T2CONbits.T2OUTPS=_timer2->timer2_postscaler_value)
      +                          ;
  2757  003094  EE20 F002          	lfsr	2,2
  2758  003098  5005               	movf	Timer2_Init@_timer2^0,w,c
  2759  00309A  26D9               	addwf	fsr2l,f,c
  2760  00309C  5006               	movf	(Timer2_Init@_timer2+1)^0,w,c
  2761  00309E  22DA               	addwfc	fsr2h,f,c
  2762  0030A0  50DF               	movf	indf2,w,c
  2763  0030A2  6E07               	movwf	??_Timer2_Init^0,c
  2764  0030A4  4607               	rlncf	??_Timer2_Init^0,f,c
  2765  0030A6  4607               	rlncf	??_Timer2_Init^0,f,c
  2766  0030A8  4607               	rlncf	??_Timer2_Init^0,f,c
  2767  0030AA  50CA               	movf	202,w,c	;volatile
  2768  0030AC  1807               	xorwf	??_Timer2_Init^0,w,c
  2769  0030AE  0B87               	andlw	-121
  2770  0030B0  1807               	xorwf	??_Timer2_Init^0,w,c
  2771  0030B2  6ECA               	movwf	202,c	;volatile
  2772  0030B4                     
  2773                           ;MCAL/TIMER2/mcal_timer2.c: 27:     TMR2 = _timer2->timer2_preload_value;
  2774  0030B4  C005  FFD9         	movff	Timer2_Init@_timer2,fsr2l
  2775  0030B8  C006  FFDA         	movff	Timer2_Init@_timer2+1,fsr2h
  2776  0030BC  50DF               	movf	indf2,w,c
  2777  0030BE  6ECC               	movwf	204,c	;volatile
  2778  0030C0                     
  2779                           ;MCAL/TIMER2/mcal_timer2.c: 28:     Timer2_PreLoaded_Value_Store = _timer2->timer2_prelo
      +                          ad_value;
  2780  0030C0  C005  FFD9         	movff	Timer2_Init@_timer2,fsr2l
  2781  0030C4  C006  FFDA         	movff	Timer2_Init@_timer2+1,fsr2h
  2782  0030C8  50DF               	movf	indf2,w,c
  2783  0030CA  6E5A               	movwf	_Timer2_PreLoaded_Value_Store^0,c
  2784  0030CC                     
  2785                           ;MCAL/TIMER2/mcal_timer2.c: 53:     (T2CONbits.TMR2ON=1);
  2786  0030CC  84CA               	bsf	202,2,c	;volatile
  2787  0030CE                     l1815:
  2788  0030CE  0012               	return		;funcret
  2789  0030D0                     __end_of_Timer2_Init:
  2790                           	callstack 0
  2791                           
  2792 ;; *************** function _CCP_Interrupt_Config *****************
  2793 ;; Defined at:
  2794 ;;		line 287 in file "MCAL/CCP/hal_ccp.c"
  2795 ;; Parameters:    Size  Location     Type
  2796 ;;  _ccp_obj        2    4[COMRAM] PTR const struct .
  2797 ;;		 -> CCP2_Obj(12), CCP1_Obj(12), 
  2798 ;; Auto vars:     Size  Location     Type
  2799 ;;		None
  2800 ;; Return value:  Size  Location     Type
  2801 ;;                  1    wreg      void 
  2802 ;; Registers used:
  2803 ;;		None
  2804 ;; Tracked objects:
  2805 ;;		On entry : 0/0
  2806 ;;		On exit  : 0/0
  2807 ;;		Unchanged: 0/0
  2808 ;; Data sizes:     COMRAM   BANK0   BANK1   BANK2   BANK3   BANK4   BANK5   BANK6   BANK7   BANK8   BANK9  BANK10  BANK1
      +1  BANK12  BANK13  BANK14  BANK15
  2809 ;;      Params:         2       0       0       0       0       0       0       0       0       0       0       0       
      +0       0       0       0       0
  2810 ;;      Locals:         0       0       0       0       0       0       0       0       0       0       0       0       
      +0       0       0       0       0
  2811 ;;      Temps:          0       0       0       0       0       0       0       0       0       0       0       0       
      +0       0       0       0       0
  2812 ;;      Totals:         2       0       0       0       0       0       0       0       0       0       0       0       
      +0       0       0       0       0
  2813 ;;Total ram usage:        2 bytes
  2814 ;; Hardware stack levels used: 1
  2815 ;; Hardware stack levels required when called: 4
  2816 ;; This function calls:
  2817 ;;		Nothing
  2818 ;; This function is called by:
  2819 ;;		_CCP_Init
  2820 ;; This function uses a non-reentrant model
  2821 ;;
  2822                           
  2823                           	psect	text15
  2824  0034A2                     __ptext15:
  2825                           	callstack 0
  2826  0034A2                     _CCP_Interrupt_Config:
  2827                           	callstack 23
  2828  0034A2  0012               	return		;funcret
  2829  0034A4                     __end_of_CCP_Interrupt_Config:
  2830                           	callstack 0
  2831                           
  2832 ;; *************** function _CCP_Compare_Mode_Config *****************
  2833 ;; Defined at:
  2834 ;;		line 406 in file "MCAL/CCP/hal_ccp.c"
  2835 ;; Parameters:    Size  Location     Type
  2836 ;;  _ccp_obj        2    7[COMRAM] PTR const struct .
  2837 ;;		 -> CCP2_Obj(12), CCP1_Obj(12), 
  2838 ;; Auto vars:     Size  Location     Type
  2839 ;;  ret             1   11[COMRAM] unsigned char 
  2840 ;; Return value:  Size  Location     Type
  2841 ;;                  1    wreg      unsigned char 
  2842 ;; Registers used:
  2843 ;;		wreg, fsr2l, fsr2h, status,2, status,0, cstack
  2844 ;; Tracked objects:
  2845 ;;		On entry : 0/0
  2846 ;;		On exit  : 0/0
  2847 ;;		Unchanged: 0/0
  2848 ;; Data sizes:     COMRAM   BANK0   BANK1   BANK2   BANK3   BANK4   BANK5   BANK6   BANK7   BANK8   BANK9  BANK10  BANK1
      +1  BANK12  BANK13  BANK14  BANK15
  2849 ;;      Params:         2       0       0       0       0       0       0       0       0       0       0       0       
      +0       0       0       0       0
  2850 ;;      Locals:         1       0       0       0       0       0       0       0       0       0       0       0       
      +0       0       0       0       0
  2851 ;;      Temps:          2       0       0       0       0       0       0       0       0       0       0       0       
      +0       0       0       0       0
  2852 ;;      Totals:         5       0       0       0       0       0       0       0       0       0       0       0       
      +0       0       0       0       0
  2853 ;;Total ram usage:        5 bytes
  2854 ;; Hardware stack levels used: 1
  2855 ;; Hardware stack levels required when called: 5
  2856 ;; This function calls:
  2857 ;;		_CCP_Mode_Timer_Select
  2858 ;; This function is called by:
  2859 ;;		_CCP_Init
  2860 ;; This function uses a non-reentrant model
  2861 ;;
  2862                           
  2863                           	psect	text16
  2864  00218A                     __ptext16:
  2865                           	callstack 0
  2866  00218A                     _CCP_Compare_Mode_Config:
  2867                           	callstack 22
  2868  00218A                     
  2869                           ;MCAL/CCP/hal_ccp.c: 407:     Std_ReturnType ret = (Std_ReturnType) 0x01;
  2870  00218A  0E01               	movlw	1
  2871  00218C  6E0C               	movwf	CCP_Compare_Mode_Config@ret^0,c
  2872  00218E                     
  2873                           ;MCAL/CCP/hal_ccp.c: 409:     if(CCP1_INST == _ccp_obj->ccp_inst){
  2874  00218E  C008  FFD9         	movff	CCP_Compare_Mode_Config@_ccp_obj,fsr2l
  2875  002192  C009  FFDA         	movff	CCP_Compare_Mode_Config@_ccp_obj+1,fsr2h
  2876  002196  50DF               	movf	indf2,w,c
  2877  002198  A4D8               	btfss	status,2,c
  2878  00219A  EFD1  F010         	goto	u6021
  2879  00219E  EFD3  F010         	goto	u6020
  2880  0021A2                     u6021:
  2881  0021A2  EF1E  F011         	goto	l6564
  2882  0021A6                     u6020:
  2883  0021A6  EFF7  F010         	goto	l6562
  2884  0021AA                     l6550:
  2885                           
  2886                           ;MCAL/CCP/hal_ccp.c: 413:                 (CCP1CONbits.CCP1M = ((uint8)0x08));
  2887  0021AA  50BD               	movf	189,w,c	;volatile
  2888  0021AC  0BF0               	andlw	-16
  2889  0021AE  0908               	iorlw	8
  2890  0021B0  6EBD               	movwf	189,c	;volatile
  2891                           
  2892                           ;MCAL/CCP/hal_ccp.c: 414:                 break;
  2893  0021B2  EF71  F011         	goto	l6582
  2894  0021B6                     l6552:
  2895                           
  2896                           ;MCAL/CCP/hal_ccp.c: 416:                 (CCP1CONbits.CCP1M = ((uint8)0x09));
  2897  0021B6  50BD               	movf	189,w,c	;volatile
  2898  0021B8  0BF0               	andlw	-16
  2899  0021BA  0909               	iorlw	9
  2900  0021BC  6EBD               	movwf	189,c	;volatile
  2901                           
  2902                           ;MCAL/CCP/hal_ccp.c: 417:                 break;
  2903  0021BE  EF71  F011         	goto	l6582
  2904  0021C2                     l6554:
  2905                           
  2906                           ;MCAL/CCP/hal_ccp.c: 419:                 (CCP1CONbits.CCP1M = ((uint8)0x02));
  2907  0021C2  50BD               	movf	189,w,c	;volatile
  2908  0021C4  0BF0               	andlw	-16
  2909  0021C6  0902               	iorlw	2
  2910  0021C8  6EBD               	movwf	189,c	;volatile
  2911                           
  2912                           ;MCAL/CCP/hal_ccp.c: 420:                 break;
  2913  0021CA  EF71  F011         	goto	l6582
  2914  0021CE                     l6556:
  2915                           
  2916                           ;MCAL/CCP/hal_ccp.c: 422:                 (CCP1CONbits.CCP1M = ((uint8)0x0A));
  2917  0021CE  50BD               	movf	189,w,c	;volatile
  2918  0021D0  0BF0               	andlw	-16
  2919  0021D2  090A               	iorlw	10
  2920  0021D4  6EBD               	movwf	189,c	;volatile
  2921                           
  2922                           ;MCAL/CCP/hal_ccp.c: 423:                 break;
  2923  0021D6  EF71  F011         	goto	l6582
  2924  0021DA                     l6558:
  2925                           
  2926                           ;MCAL/CCP/hal_ccp.c: 425:                 (CCP1CONbits.CCP1M = ((uint8)0x0B));
  2927  0021DA  50BD               	movf	189,w,c	;volatile
  2928  0021DC  0BF0               	andlw	-16
  2929  0021DE  090B               	iorlw	11
  2930  0021E0  6EBD               	movwf	189,c	;volatile
  2931                           
  2932                           ;MCAL/CCP/hal_ccp.c: 426:                 break;
  2933  0021E2  EF71  F011         	goto	l6582
  2934  0021E6                     l6560:
  2935  0021E6  0E00               	movlw	0
  2936  0021E8  6E0C               	movwf	CCP_Compare_Mode_Config@ret^0,c
  2937                           
  2938                           ;MCAL/CCP/hal_ccp.c: 428:         }
  2939  0021EA  EF71  F011         	goto	l6582
  2940  0021EE                     l6562:
  2941  0021EE  EE20 F002          	lfsr	2,2
  2942  0021F2  5008               	movf	CCP_Compare_Mode_Config@_ccp_obj^0,w,c
  2943  0021F4  26D9               	addwf	fsr2l,f,c
  2944  0021F6  5009               	movf	(CCP_Compare_Mode_Config@_ccp_obj+1)^0,w,c
  2945  0021F8  22DA               	addwfc	fsr2h,f,c
  2946  0021FA  50DF               	movf	indf2,w,c
  2947  0021FC  6E0A               	movwf	??_CCP_Compare_Mode_Config^0,c
  2948  0021FE  6A0B               	clrf	(??_CCP_Compare_Mode_Config+1)^0,c
  2949                           
  2950                           ; Switch on 2 bytes has been partitioned into a top level switch of size 1, and 1 sub-sw
      +                          itches
  2951                           ; Switch size 1, requested type "simple"
  2952                           ; Number of cases is 1, Range of values is 0 to 0
  2953                           ; switch strategies available:
  2954                           ; Name         Instructions Cycles
  2955                           ; simple_byte            4     3 (average)
  2956                           ;	Chosen strategy is simple_byte
  2957  002200  500B               	movf	(??_CCP_Compare_Mode_Config+1)^0,w,c
  2958  002202  0A00               	xorlw	0	; case 0
  2959  002204  B4D8               	btfsc	status,2,c
  2960  002206  EF07  F011         	goto	l8872
  2961  00220A  EFF3  F010         	goto	l6560
  2962  00220E                     l8872:
  2963                           
  2964                           ; Switch size 1, requested type "simple"
  2965                           ; Number of cases is 5, Range of values is 2 to 11
  2966                           ; switch strategies available:
  2967                           ; Name         Instructions Cycles
  2968                           ; simple_byte           16     9 (average)
  2969                           ;	Chosen strategy is simple_byte
  2970  00220E  500A               	movf	??_CCP_Compare_Mode_Config^0,w,c
  2971  002210  0A02               	xorlw	2	; case 2
  2972  002212  B4D8               	btfsc	status,2,c
  2973  002214  EFE1  F010         	goto	l6554
  2974  002218  0A0A               	xorlw	10	; case 8
  2975  00221A  B4D8               	btfsc	status,2,c
  2976  00221C  EFD5  F010         	goto	l6550
  2977  002220  0A01               	xorlw	1	; case 9
  2978  002222  B4D8               	btfsc	status,2,c
  2979  002224  EFDB  F010         	goto	l6552
  2980  002228  0A03               	xorlw	3	; case 10
  2981  00222A  B4D8               	btfsc	status,2,c
  2982  00222C  EFE7  F010         	goto	l6556
  2983  002230  0A01               	xorlw	1	; case 11
  2984  002232  B4D8               	btfsc	status,2,c
  2985  002234  EFED  F010         	goto	l6558
  2986  002238  EFF3  F010         	goto	l6560
  2987  00223C                     l6564:
  2988  00223C  C008  FFD9         	movff	CCP_Compare_Mode_Config@_ccp_obj,fsr2l
  2989  002240  C009  FFDA         	movff	CCP_Compare_Mode_Config@_ccp_obj+1,fsr2h
  2990  002244  04DE               	decf	postinc2,w,c
  2991  002246  A4D8               	btfss	status,2,c
  2992  002248  EF28  F011         	goto	u6031
  2993  00224C  EF2A  F011         	goto	u6030
  2994  002250                     u6031:
  2995  002250  EF71  F011         	goto	l6582
  2996  002254                     u6030:
  2997  002254  EF4A  F011         	goto	l6580
  2998  002258                     l6568:
  2999                           
  3000                           ;MCAL/CCP/hal_ccp.c: 434:                 (CCP2CONbits.CCP2M = ((uint8)0x08));
  3001  002258  50BA               	movf	186,w,c	;volatile
  3002  00225A  0BF0               	andlw	-16
  3003  00225C  0908               	iorlw	8
  3004  00225E  6EBA               	movwf	186,c	;volatile
  3005                           
  3006                           ;MCAL/CCP/hal_ccp.c: 435:                 break;
  3007  002260  EF71  F011         	goto	l6582
  3008  002264                     l6570:
  3009                           
  3010                           ;MCAL/CCP/hal_ccp.c: 437:                 (CCP2CONbits.CCP2M = ((uint8)0x09));
  3011  002264  50BA               	movf	186,w,c	;volatile
  3012  002266  0BF0               	andlw	-16
  3013  002268  0909               	iorlw	9
  3014  00226A  6EBA               	movwf	186,c	;volatile
  3015                           
  3016                           ;MCAL/CCP/hal_ccp.c: 438:                 break;
  3017  00226C  EF71  F011         	goto	l6582
  3018  002270                     l6572:
  3019                           
  3020                           ;MCAL/CCP/hal_ccp.c: 440:                 (CCP2CONbits.CCP2M = ((uint8)0x02));
  3021  002270  50BA               	movf	186,w,c	;volatile
  3022  002272  0BF0               	andlw	-16
  3023  002274  0902               	iorlw	2
  3024  002276  6EBA               	movwf	186,c	;volatile
  3025                           
  3026                           ;MCAL/CCP/hal_ccp.c: 441:                 break;
  3027  002278  EF71  F011         	goto	l6582
  3028  00227C                     l6574:
  3029                           
  3030                           ;MCAL/CCP/hal_ccp.c: 443:                 (CCP2CONbits.CCP2M = ((uint8)0x0A));
  3031  00227C  50BA               	movf	186,w,c	;volatile
  3032  00227E  0BF0               	andlw	-16
  3033  002280  090A               	iorlw	10
  3034  002282  6EBA               	movwf	186,c	;volatile
  3035                           
  3036                           ;MCAL/CCP/hal_ccp.c: 444:                 break;
  3037  002284  EF71  F011         	goto	l6582
  3038  002288                     l6576:
  3039                           
  3040                           ;MCAL/CCP/hal_ccp.c: 446:                 (CCP2CONbits.CCP2M = ((uint8)0x0B));
  3041  002288  50BA               	movf	186,w,c	;volatile
  3042  00228A  0BF0               	andlw	-16
  3043  00228C  090B               	iorlw	11
  3044  00228E  6EBA               	movwf	186,c	;volatile
  3045                           
  3046                           ;MCAL/CCP/hal_ccp.c: 447:                 break;
  3047  002290  EF71  F011         	goto	l6582
  3048  002294                     l6580:
  3049  002294  EE20 F002          	lfsr	2,2
  3050  002298  5008               	movf	CCP_Compare_Mode_Config@_ccp_obj^0,w,c
  3051  00229A  26D9               	addwf	fsr2l,f,c
  3052  00229C  5009               	movf	(CCP_Compare_Mode_Config@_ccp_obj+1)^0,w,c
  3053  00229E  22DA               	addwfc	fsr2h,f,c
  3054  0022A0  50DF               	movf	indf2,w,c
  3055  0022A2  6E0A               	movwf	??_CCP_Compare_Mode_Config^0,c
  3056  0022A4  6A0B               	clrf	(??_CCP_Compare_Mode_Config+1)^0,c
  3057                           
  3058                           ; Switch on 2 bytes has been partitioned into a top level switch of size 1, and 1 sub-sw
      +                          itches
  3059                           ; Switch size 1, requested type "simple"
  3060                           ; Number of cases is 1, Range of values is 0 to 0
  3061                           ; switch strategies available:
  3062                           ; Name         Instructions Cycles
  3063                           ; simple_byte            4     3 (average)
  3064                           ;	Chosen strategy is simple_byte
  3065  0022A6  500B               	movf	(??_CCP_Compare_Mode_Config+1)^0,w,c
  3066  0022A8  0A00               	xorlw	0	; case 0
  3067  0022AA  B4D8               	btfsc	status,2,c
  3068  0022AC  EF5A  F011         	goto	l8874
  3069  0022B0  EFF3  F010         	goto	l6560
  3070  0022B4                     l8874:
  3071                           
  3072                           ; Switch size 1, requested type "simple"
  3073                           ; Number of cases is 5, Range of values is 2 to 11
  3074                           ; switch strategies available:
  3075                           ; Name         Instructions Cycles
  3076                           ; simple_byte           16     9 (average)
  3077                           ;	Chosen strategy is simple_byte
  3078  0022B4  500A               	movf	??_CCP_Compare_Mode_Config^0,w,c
  3079  0022B6  0A02               	xorlw	2	; case 2
  3080  0022B8  B4D8               	btfsc	status,2,c
  3081  0022BA  EF38  F011         	goto	l6572
  3082  0022BE  0A0A               	xorlw	10	; case 8
  3083  0022C0  B4D8               	btfsc	status,2,c
  3084  0022C2  EF2C  F011         	goto	l6568
  3085  0022C6  0A01               	xorlw	1	; case 9
  3086  0022C8  B4D8               	btfsc	status,2,c
  3087  0022CA  EF32  F011         	goto	l6570
  3088  0022CE  0A03               	xorlw	3	; case 10
  3089  0022D0  B4D8               	btfsc	status,2,c
  3090  0022D2  EF3E  F011         	goto	l6574
  3091  0022D6  0A01               	xorlw	1	; case 11
  3092  0022D8  B4D8               	btfsc	status,2,c
  3093  0022DA  EF44  F011         	goto	l6576
  3094  0022DE  EFF3  F010         	goto	l6560
  3095  0022E2                     l6582:
  3096                           
  3097                           ;MCAL/CCP/hal_ccp.c: 453:     CCP_Mode_Timer_Select(_ccp_obj);
  3098  0022E2  C008  F005         	movff	CCP_Compare_Mode_Config@_ccp_obj,CCP_Mode_Timer_Select@_ccp_obj
  3099  0022E6  C009  F006         	movff	CCP_Compare_Mode_Config@_ccp_obj+1,CCP_Mode_Timer_Select@_ccp_obj+1
  3100  0022EA  ECC1  F017         	call	_CCP_Mode_Timer_Select	;wreg free
  3101  0022EE                     
  3102                           ;MCAL/CCP/hal_ccp.c: 455:     return ret;
  3103  0022EE  500C               	movf	CCP_Compare_Mode_Config@ret^0,w,c
  3104  0022F0  0012               	return		;funcret
  3105  0022F2                     __end_of_CCP_Compare_Mode_Config:
  3106                           	callstack 0
  3107                           
  3108 ;; *************** function _CCP_Capture_Mode_Config *****************
  3109 ;; Defined at:
  3110 ;;		line 359 in file "MCAL/CCP/hal_ccp.c"
  3111 ;; Parameters:    Size  Location     Type
  3112 ;;  _ccp_obj        2    7[COMRAM] PTR const struct .
  3113 ;;		 -> CCP2_Obj(12), CCP1_Obj(12), 
  3114 ;; Auto vars:     Size  Location     Type
  3115 ;;  ret             1   11[COMRAM] unsigned char 
  3116 ;; Return value:  Size  Location     Type
  3117 ;;                  1    wreg      unsigned char 
  3118 ;; Registers used:
  3119 ;;		wreg, fsr2l, fsr2h, status,2, status,0, cstack
  3120 ;; Tracked objects:
  3121 ;;		On entry : 0/0
  3122 ;;		On exit  : 0/0
  3123 ;;		Unchanged: 0/0
  3124 ;; Data sizes:     COMRAM   BANK0   BANK1   BANK2   BANK3   BANK4   BANK5   BANK6   BANK7   BANK8   BANK9  BANK10  BANK1
      +1  BANK12  BANK13  BANK14  BANK15
  3125 ;;      Params:         2       0       0       0       0       0       0       0       0       0       0       0       
      +0       0       0       0       0
  3126 ;;      Locals:         1       0       0       0       0       0       0       0       0       0       0       0       
      +0       0       0       0       0
  3127 ;;      Temps:          2       0       0       0       0       0       0       0       0       0       0       0       
      +0       0       0       0       0
  3128 ;;      Totals:         5       0       0       0       0       0       0       0       0       0       0       0       
      +0       0       0       0       0
  3129 ;;Total ram usage:        5 bytes
  3130 ;; Hardware stack levels used: 1
  3131 ;; Hardware stack levels required when called: 5
  3132 ;; This function calls:
  3133 ;;		_CCP_Mode_Timer_Select
  3134 ;; This function is called by:
  3135 ;;		_CCP_Init
  3136 ;; This function uses a non-reentrant model
  3137 ;;
  3138                           
  3139                           	psect	text17
  3140  002432                     __ptext17:
  3141                           	callstack 0
  3142  002432                     _CCP_Capture_Mode_Config:
  3143                           	callstack 22
  3144  002432                     
  3145                           ;MCAL/CCP/hal_ccp.c: 360:     Std_ReturnType ret = (Std_ReturnType) 0x01;
  3146  002432  0E01               	movlw	1
  3147  002434  6E0C               	movwf	CCP_Capture_Mode_Config@ret^0,c
  3148  002436                     
  3149                           ;MCAL/CCP/hal_ccp.c: 362:     if(CCP1_INST == _ccp_obj->ccp_inst){
  3150  002436  C008  FFD9         	movff	CCP_Capture_Mode_Config@_ccp_obj,fsr2l
  3151  00243A  C009  FFDA         	movff	CCP_Capture_Mode_Config@_ccp_obj+1,fsr2h
  3152  00243E  50DF               	movf	indf2,w,c
  3153  002440  A4D8               	btfss	status,2,c
  3154  002442  EF25  F012         	goto	u6001
  3155  002446  EF27  F012         	goto	u6000
  3156  00244A                     u6001:
  3157  00244A  EF68  F012         	goto	l6514
  3158  00244E                     u6000:
  3159  00244E  EF45  F012         	goto	l6512
  3160  002452                     l6502:
  3161                           
  3162                           ;MCAL/CCP/hal_ccp.c: 366:                 (CCP1CONbits.CCP1M = ((uint8)0x04));
  3163  002452  50BD               	movf	189,w,c	;volatile
  3164  002454  0BF0               	andlw	-16
  3165  002456  0904               	iorlw	4
  3166  002458  6EBD               	movwf	189,c	;volatile
  3167                           
  3168                           ;MCAL/CCP/hal_ccp.c: 367:                 break;
  3169  00245A  EFB1  F012         	goto	l6530
  3170  00245E                     l6504:
  3171                           
  3172                           ;MCAL/CCP/hal_ccp.c: 369:                 (CCP1CONbits.CCP1M = ((uint8)0x05));
  3173  00245E  50BD               	movf	189,w,c	;volatile
  3174  002460  0BF0               	andlw	-16
  3175  002462  0905               	iorlw	5
  3176  002464  6EBD               	movwf	189,c	;volatile
  3177                           
  3178                           ;MCAL/CCP/hal_ccp.c: 370:                 break;
  3179  002466  EFB1  F012         	goto	l6530
  3180  00246A                     l6506:
  3181                           
  3182                           ;MCAL/CCP/hal_ccp.c: 372:                 (CCP1CONbits.CCP1M = ((uint8)0x06));
  3183  00246A  50BD               	movf	189,w,c	;volatile
  3184  00246C  0BF0               	andlw	-16
  3185  00246E  0906               	iorlw	6
  3186  002470  6EBD               	movwf	189,c	;volatile
  3187                           
  3188                           ;MCAL/CCP/hal_ccp.c: 373:                 break;
  3189  002472  EFB1  F012         	goto	l6530
  3190  002476                     l6508:
  3191                           
  3192                           ;MCAL/CCP/hal_ccp.c: 375:                 (CCP1CONbits.CCP1M = ((uint8)0x07));
  3193  002476  50BD               	movf	189,w,c	;volatile
  3194  002478  0BF0               	andlw	-16
  3195  00247A  0907               	iorlw	7
  3196  00247C  6EBD               	movwf	189,c	;volatile
  3197                           
  3198                           ;MCAL/CCP/hal_ccp.c: 376:                 break;
  3199  00247E  EFB1  F012         	goto	l6530
  3200  002482                     l6510:
  3201  002482  0E00               	movlw	0
  3202  002484  6E0C               	movwf	CCP_Capture_Mode_Config@ret^0,c
  3203                           
  3204                           ;MCAL/CCP/hal_ccp.c: 378:         }
  3205  002486  EFB1  F012         	goto	l6530
  3206  00248A                     l6512:
  3207  00248A  EE20 F002          	lfsr	2,2
  3208  00248E  5008               	movf	CCP_Capture_Mode_Config@_ccp_obj^0,w,c
  3209  002490  26D9               	addwf	fsr2l,f,c
  3210  002492  5009               	movf	(CCP_Capture_Mode_Config@_ccp_obj+1)^0,w,c
  3211  002494  22DA               	addwfc	fsr2h,f,c
  3212  002496  50DF               	movf	indf2,w,c
  3213  002498  6E0A               	movwf	??_CCP_Capture_Mode_Config^0,c
  3214  00249A  6A0B               	clrf	(??_CCP_Capture_Mode_Config+1)^0,c
  3215                           
  3216                           ; Switch on 2 bytes has been partitioned into a top level switch of size 1, and 1 sub-sw
      +                          itches
  3217                           ; Switch size 1, requested type "simple"
  3218                           ; Number of cases is 1, Range of values is 0 to 0
  3219                           ; switch strategies available:
  3220                           ; Name         Instructions Cycles
  3221                           ; simple_byte            4     3 (average)
  3222                           ;	Chosen strategy is simple_byte
  3223  00249C  500B               	movf	(??_CCP_Capture_Mode_Config+1)^0,w,c
  3224  00249E  0A00               	xorlw	0	; case 0
  3225  0024A0  B4D8               	btfsc	status,2,c
  3226  0024A2  EF55  F012         	goto	l8876
  3227  0024A6  EF41  F012         	goto	l6510
  3228  0024AA                     l8876:
  3229                           
  3230                           ; Switch size 1, requested type "simple"
  3231                           ; Number of cases is 4, Range of values is 4 to 7
  3232                           ; switch strategies available:
  3233                           ; Name         Instructions Cycles
  3234                           ; simple_byte           13     7 (average)
  3235                           ;	Chosen strategy is simple_byte
  3236  0024AA  500A               	movf	??_CCP_Capture_Mode_Config^0,w,c
  3237  0024AC  0A04               	xorlw	4	; case 4
  3238  0024AE  B4D8               	btfsc	status,2,c
  3239  0024B0  EF29  F012         	goto	l6502
  3240  0024B4  0A01               	xorlw	1	; case 5
  3241  0024B6  B4D8               	btfsc	status,2,c
  3242  0024B8  EF2F  F012         	goto	l6504
  3243  0024BC  0A03               	xorlw	3	; case 6
  3244  0024BE  B4D8               	btfsc	status,2,c
  3245  0024C0  EF35  F012         	goto	l6506
  3246  0024C4  0A01               	xorlw	1	; case 7
  3247  0024C6  B4D8               	btfsc	status,2,c
  3248  0024C8  EF3B  F012         	goto	l6508
  3249  0024CC  EF41  F012         	goto	l6510
  3250  0024D0                     l6514:
  3251  0024D0  C008  FFD9         	movff	CCP_Capture_Mode_Config@_ccp_obj,fsr2l
  3252  0024D4  C009  FFDA         	movff	CCP_Capture_Mode_Config@_ccp_obj+1,fsr2h
  3253  0024D8  04DE               	decf	postinc2,w,c
  3254  0024DA  A4D8               	btfss	status,2,c
  3255  0024DC  EF72  F012         	goto	u6011
  3256  0024E0  EF74  F012         	goto	u6010
  3257  0024E4                     u6011:
  3258  0024E4  EFB1  F012         	goto	l6530
  3259  0024E8                     u6010:
  3260  0024E8  EF8E  F012         	goto	l6528
  3261  0024EC                     l6518:
  3262                           
  3263                           ;MCAL/CCP/hal_ccp.c: 384:                 (CCP2CONbits.CCP2M = ((uint8)0x04));
  3264  0024EC  50BA               	movf	186,w,c	;volatile
  3265  0024EE  0BF0               	andlw	-16
  3266  0024F0  0904               	iorlw	4
  3267  0024F2  6EBA               	movwf	186,c	;volatile
  3268                           
  3269                           ;MCAL/CCP/hal_ccp.c: 385:             break;
  3270  0024F4  EFB1  F012         	goto	l6530
  3271  0024F8                     l6520:
  3272                           
  3273                           ;MCAL/CCP/hal_ccp.c: 387:                 (CCP2CONbits.CCP2M = ((uint8)0x05));
  3274  0024F8  50BA               	movf	186,w,c	;volatile
  3275  0024FA  0BF0               	andlw	-16
  3276  0024FC  0905               	iorlw	5
  3277  0024FE  6EBA               	movwf	186,c	;volatile
  3278                           
  3279                           ;MCAL/CCP/hal_ccp.c: 388:                 break;
  3280  002500  EFB1  F012         	goto	l6530
  3281  002504                     l6522:
  3282                           
  3283                           ;MCAL/CCP/hal_ccp.c: 390:                 (CCP2CONbits.CCP2M = ((uint8)0x06));
  3284  002504  50BA               	movf	186,w,c	;volatile
  3285  002506  0BF0               	andlw	-16
  3286  002508  0906               	iorlw	6
  3287  00250A  6EBA               	movwf	186,c	;volatile
  3288                           
  3289                           ;MCAL/CCP/hal_ccp.c: 391:                 break;
  3290  00250C  EFB1  F012         	goto	l6530
  3291  002510                     l6524:
  3292                           
  3293                           ;MCAL/CCP/hal_ccp.c: 393:                 (CCP2CONbits.CCP2M = ((uint8)0x07));
  3294  002510  50BA               	movf	186,w,c	;volatile
  3295  002512  0BF0               	andlw	-16
  3296  002514  0907               	iorlw	7
  3297  002516  6EBA               	movwf	186,c	;volatile
  3298                           
  3299                           ;MCAL/CCP/hal_ccp.c: 394:                 break;
  3300  002518  EFB1  F012         	goto	l6530
  3301  00251C                     l6528:
  3302  00251C  EE20 F002          	lfsr	2,2
  3303  002520  5008               	movf	CCP_Capture_Mode_Config@_ccp_obj^0,w,c
  3304  002522  26D9               	addwf	fsr2l,f,c
  3305  002524  5009               	movf	(CCP_Capture_Mode_Config@_ccp_obj+1)^0,w,c
  3306  002526  22DA               	addwfc	fsr2h,f,c
  3307  002528  50DF               	movf	indf2,w,c
  3308  00252A  6E0A               	movwf	??_CCP_Capture_Mode_Config^0,c
  3309  00252C  6A0B               	clrf	(??_CCP_Capture_Mode_Config+1)^0,c
  3310                           
  3311                           ; Switch on 2 bytes has been partitioned into a top level switch of size 1, and 1 sub-sw
      +                          itches
  3312                           ; Switch size 1, requested type "simple"
  3313                           ; Number of cases is 1, Range of values is 0 to 0
  3314                           ; switch strategies available:
  3315                           ; Name         Instructions Cycles
  3316                           ; simple_byte            4     3 (average)
  3317                           ;	Chosen strategy is simple_byte
  3318  00252E  500B               	movf	(??_CCP_Capture_Mode_Config+1)^0,w,c
  3319  002530  0A00               	xorlw	0	; case 0
  3320  002532  B4D8               	btfsc	status,2,c
  3321  002534  EF9E  F012         	goto	l8878
  3322  002538  EF41  F012         	goto	l6510
  3323  00253C                     l8878:
  3324                           
  3325                           ; Switch size 1, requested type "simple"
  3326                           ; Number of cases is 4, Range of values is 4 to 7
  3327                           ; switch strategies available:
  3328                           ; Name         Instructions Cycles
  3329                           ; simple_byte           13     7 (average)
  3330                           ;	Chosen strategy is simple_byte
  3331  00253C  500A               	movf	??_CCP_Capture_Mode_Config^0,w,c
  3332  00253E  0A04               	xorlw	4	; case 4
  3333  002540  B4D8               	btfsc	status,2,c
  3334  002542  EF76  F012         	goto	l6518
  3335  002546  0A01               	xorlw	1	; case 5
  3336  002548  B4D8               	btfsc	status,2,c
  3337  00254A  EF7C  F012         	goto	l6520
  3338  00254E  0A03               	xorlw	3	; case 6
  3339  002550  B4D8               	btfsc	status,2,c
  3340  002552  EF82  F012         	goto	l6522
  3341  002556  0A01               	xorlw	1	; case 7
  3342  002558  B4D8               	btfsc	status,2,c
  3343  00255A  EF88  F012         	goto	l6524
  3344  00255E  EF41  F012         	goto	l6510
  3345  002562                     l6530:
  3346                           
  3347                           ;MCAL/CCP/hal_ccp.c: 401:     CCP_Mode_Timer_Select(_ccp_obj);
  3348  002562  C008  F005         	movff	CCP_Capture_Mode_Config@_ccp_obj,CCP_Mode_Timer_Select@_ccp_obj
  3349  002566  C009  F006         	movff	CCP_Capture_Mode_Config@_ccp_obj+1,CCP_Mode_Timer_Select@_ccp_obj+1
  3350  00256A  ECC1  F017         	call	_CCP_Mode_Timer_Select	;wreg free
  3351  00256E                     
  3352                           ;MCAL/CCP/hal_ccp.c: 403:     return ret;
  3353  00256E  500C               	movf	CCP_Capture_Mode_Config@ret^0,w,c
  3354  002570  0012               	return		;funcret
  3355  002572                     __end_of_CCP_Capture_Mode_Config:
  3356                           	callstack 0
  3357                           
  3358 ;; *************** function _CCP_Mode_Timer_Select *****************
  3359 ;; Defined at:
  3360 ;;		line 339 in file "MCAL/CCP/hal_ccp.c"
  3361 ;; Parameters:    Size  Location     Type
  3362 ;;  _ccp_obj        2    4[COMRAM] PTR const struct .
  3363 ;;		 -> CCP2_Obj(12), CCP1_Obj(12), 
  3364 ;; Auto vars:     Size  Location     Type
  3365 ;;		None
  3366 ;; Return value:  Size  Location     Type
  3367 ;;                  1    wreg      void 
  3368 ;; Registers used:
  3369 ;;		wreg, fsr2l, fsr2h, status,2, status,0
  3370 ;; Tracked objects:
  3371 ;;		On entry : 0/0
  3372 ;;		On exit  : 0/0
  3373 ;;		Unchanged: 0/0
  3374 ;; Data sizes:     COMRAM   BANK0   BANK1   BANK2   BANK3   BANK4   BANK5   BANK6   BANK7   BANK8   BANK9  BANK10  BANK1
      +1  BANK12  BANK13  BANK14  BANK15
  3375 ;;      Params:         2       0       0       0       0       0       0       0       0       0       0       0       
      +0       0       0       0       0
  3376 ;;      Locals:         0       0       0       0       0       0       0       0       0       0       0       0       
      +0       0       0       0       0
  3377 ;;      Temps:          1       0       0       0       0       0       0       0       0       0       0       0       
      +0       0       0       0       0
  3378 ;;      Totals:         3       0       0       0       0       0       0       0       0       0       0       0       
      +0       0       0       0       0
  3379 ;;Total ram usage:        3 bytes
  3380 ;; Hardware stack levels used: 1
  3381 ;; Hardware stack levels required when called: 4
  3382 ;; This function calls:
  3383 ;;		Nothing
  3384 ;; This function is called by:
  3385 ;;		_CCP_Capture_Mode_Config
  3386 ;;		_CCP_Compare_Mode_Config
  3387 ;; This function uses a non-reentrant model
  3388 ;;
  3389                           
  3390                           	psect	text18
  3391  002F82                     __ptext18:
  3392                           	callstack 0
  3393  002F82                     _CCP_Mode_Timer_Select:
  3394                           	callstack 22
  3395  002F82                     
  3396                           ;MCAL/CCP/hal_ccp.c: 340:     if(CCP1_CCP2_TIMER3 == _ccp_obj->ccp_capture_timer){
  3397  002F82  EE20 F004          	lfsr	2,4
  3398  002F86  5005               	movf	CCP_Mode_Timer_Select@_ccp_obj^0,w,c
  3399  002F88  26D9               	addwf	fsr2l,f,c
  3400  002F8A  5006               	movf	(CCP_Mode_Timer_Select@_ccp_obj+1)^0,w,c
  3401  002F8C  22DA               	addwfc	fsr2h,f,c
  3402  002F8E  50DF               	movf	indf2,w,c
  3403  002F90  A4D8               	btfss	status,2,c
  3404  002F92  EFCD  F017         	goto	u5851
  3405  002F96  EFCF  F017         	goto	u5850
  3406  002F9A                     u5851:
  3407  002F9A  EFD3  F017         	goto	l6402
  3408  002F9E                     u5850:
  3409  002F9E                     
  3410                           ;MCAL/CCP/hal_ccp.c: 342:         T3CONbits.T3CCP1 = 0;
  3411  002F9E  96B1               	bcf	177,3,c	;volatile
  3412                           
  3413                           ;MCAL/CCP/hal_ccp.c: 343:         T3CONbits.T3CCP2 = 1;
  3414  002FA0  8CB1               	bsf	177,6,c	;volatile
  3415                           
  3416                           ;MCAL/CCP/hal_ccp.c: 344:     }
  3417  002FA2  EFF8  F017         	goto	l561
  3418  002FA6                     l6402:
  3419  002FA6  EE20 F004          	lfsr	2,4
  3420  002FAA  5005               	movf	CCP_Mode_Timer_Select@_ccp_obj^0,w,c
  3421  002FAC  26D9               	addwf	fsr2l,f,c
  3422  002FAE  5006               	movf	(CCP_Mode_Timer_Select@_ccp_obj+1)^0,w,c
  3423  002FB0  22DA               	addwfc	fsr2h,f,c
  3424  002FB2  04DE               	decf	postinc2,w,c
  3425  002FB4  A4D8               	btfss	status,2,c
  3426  002FB6  EFDF  F017         	goto	u5861
  3427  002FBA  EFE1  F017         	goto	u5860
  3428  002FBE                     u5861:
  3429  002FBE  EFE5  F017         	goto	l6406
  3430  002FC2                     u5860:
  3431  002FC2                     
  3432                           ;MCAL/CCP/hal_ccp.c: 348:         T3CONbits.T3CCP1 = 1;
  3433  002FC2  86B1               	bsf	177,3,c	;volatile
  3434                           
  3435                           ;MCAL/CCP/hal_ccp.c: 349:         T3CONbits.T3CCP2 = 0;
  3436  002FC4  9CB1               	bcf	177,6,c	;volatile
  3437                           
  3438                           ;MCAL/CCP/hal_ccp.c: 350:     }
  3439  002FC6  EFF8  F017         	goto	l561
  3440  002FCA                     l6406:
  3441  002FCA  EE20 F004          	lfsr	2,4
  3442  002FCE  5005               	movf	CCP_Mode_Timer_Select@_ccp_obj^0,w,c
  3443  002FD0  26D9               	addwf	fsr2l,f,c
  3444  002FD2  5006               	movf	(CCP_Mode_Timer_Select@_ccp_obj+1)^0,w,c
  3445  002FD4  22DA               	addwfc	fsr2h,f,c
  3446  002FD6  0E02               	movlw	2
  3447  002FD8  18DE               	xorwf	postinc2,w,c
  3448  002FDA  A4D8               	btfss	status,2,c
  3449  002FDC  EFF2  F017         	goto	u5871
  3450  002FE0  EFF4  F017         	goto	u5870
  3451  002FE4                     u5871:
  3452  002FE4  EFF8  F017         	goto	l558
  3453  002FE8                     u5870:
  3454  002FE8                     
  3455                           ;MCAL/CCP/hal_ccp.c: 353:         T3CONbits.T3CCP1 = 0;
  3456  002FE8  96B1               	bcf	177,3,c	;volatile
  3457                           
  3458                           ;MCAL/CCP/hal_ccp.c: 354:         T3CONbits.T3CCP2 = 0;
  3459  002FEA  9CB1               	bcf	177,6,c	;volatile
  3460                           
  3461                           ;MCAL/CCP/hal_ccp.c: 355:     }
  3462  002FEC  EFF8  F017         	goto	l561
  3463  002FF0                     l558:
  3464  002FF0                     l561:
  3465  002FF0  0012               	return		;funcret
  3466  002FF2                     __end_of_CCP_Mode_Timer_Select:
  3467                           	callstack 0
  3468                           
  3469 ;; *************** function _Robot_Move_Forward *****************
  3470 ;; Defined at:
  3471 ;;		line 33 in file "Robot/Navigation/robot_navigation.c"
  3472 ;; Parameters:    Size  Location     Type
  3473 ;;		None
  3474 ;; Auto vars:     Size  Location     Type
  3475 ;;  ret_val         1    0        unsigned char 
  3476 ;; Return value:  Size  Location     Type
  3477 ;;                  1    wreg      unsigned char 
  3478 ;; Registers used:
  3479 ;;		wreg, fsr2l, fsr2h, status,2, status,0, prodl, prodh, cstack
  3480 ;; Tracked objects:
  3481 ;;		On entry : 0/0
  3482 ;;		On exit  : 0/0
  3483 ;;		Unchanged: 0/0
  3484 ;; Data sizes:     COMRAM   BANK0   BANK1   BANK2   BANK3   BANK4   BANK5   BANK6   BANK7   BANK8   BANK9  BANK10  BANK1
      +1  BANK12  BANK13  BANK14  BANK15
  3485 ;;      Params:         0       0       0       0       0       0       0       0       0       0       0       0       
      +0       0       0       0       0
  3486 ;;      Locals:         0       0       0       0       0       0       0       0       0       0       0       0       
      +0       0       0       0       0
  3487 ;;      Temps:          0       0       0       0       0       0       0       0       0       0       0       0       
      +0       0       0       0       0
  3488 ;;      Totals:         0       0       0       0       0       0       0       0       0       0       0       0       
      +0       0       0       0       0
  3489 ;;Total ram usage:        0 bytes
  3490 ;; Hardware stack levels used: 1
  3491 ;; Hardware stack levels required when called: 7
  3492 ;; This function calls:
  3493 ;;		_CCP_PWM_Set_Duty
  3494 ;;		_ECU_DC_Motor_Run_Right
  3495 ;;		_Robot_Steer_Stop
  3496 ;;		_Servo_SetAngle
  3497 ;; This function is called by:
  3498 ;;		_main
  3499 ;; This function uses a non-reentrant model
  3500 ;;
  3501                           
  3502                           	psect	text19
  3503  002B74                     __ptext19:
  3504                           	callstack 0
  3505  002B74                     _Robot_Move_Forward:
  3506                           	callstack 23
  3507  002B74                     
  3508                           ;Robot/Navigation/robot_navigation.c: 38:             Movement_State = NAV_MOV_FORW ;
  3509  002B74  0E01               	movlw	1
  3510  002B76  0100               	movlb	0	; () banked
  3511  002B78  6FDF               	movwf	_Movement_State& (0+255),b
  3512  002B7A                     
  3513                           ; BSR set to: 0
  3514                           ;Robot/Navigation/robot_navigation.c: 40:             Robot_Steer_Stop();
  3515  002B7A  ECE8  F019         	call	_Robot_Steer_Stop	;wreg free
  3516  002B7E                     
  3517                           ;Robot/Navigation/robot_navigation.c: 42:             Servo_SetAngle(&i2c_obj , &servo_d
      +                          river_obj , servo_index_1 , 90 );
  3518  002B7E  0E96               	movlw	low _i2c_obj
  3519  002B80  0100               	movlb	0	; () banked
  3520  002B82  6FE8               	movwf	Servo_SetAngle@i2c_obj& (0+255),b
  3521  002B84  0E00               	movlw	high _i2c_obj
  3522  002B86  6FE9               	movwf	(Servo_SetAngle@i2c_obj+1)& (0+255),b
  3523  002B88  0E9D               	movlw	low _servo_driver_obj
  3524  002B8A  6FEA               	movwf	Servo_SetAngle@servo_driver_obj& (0+255),b
  3525  002B8C  0E00               	movlw	high _servo_driver_obj
  3526  002B8E  6FEB               	movwf	(Servo_SetAngle@servo_driver_obj+1)& (0+255),b
  3527  002B90  0E00               	movlw	0
  3528  002B92  6FEC               	movwf	Servo_SetAngle@servo_no& (0+255),b
  3529  002B94  0E5A               	movlw	90
  3530  002B96  6FED               	movwf	Servo_SetAngle@angle& (0+255),b
  3531  002B98  ECEB  F014         	call	_Servo_SetAngle	;wreg free
  3532  002B9C                     
  3533                           ;Robot/Navigation/robot_navigation.c: 43:             Servo_SetAngle(&i2c_obj , &servo_d
      +                          river_obj , servo_index_2 , 90 );
  3534  002B9C  0E96               	movlw	low _i2c_obj
  3535  002B9E  0100               	movlb	0	; () banked
  3536  002BA0  6FE8               	movwf	Servo_SetAngle@i2c_obj& (0+255),b
  3537  002BA2  0E00               	movlw	high _i2c_obj
  3538  002BA4  6FE9               	movwf	(Servo_SetAngle@i2c_obj+1)& (0+255),b
  3539  002BA6  0E9D               	movlw	low _servo_driver_obj
  3540  002BA8  6FEA               	movwf	Servo_SetAngle@servo_driver_obj& (0+255),b
  3541  002BAA  0E00               	movlw	high _servo_driver_obj
  3542  002BAC  6FEB               	movwf	(Servo_SetAngle@servo_driver_obj+1)& (0+255),b
  3543  002BAE  0E01               	movlw	1
  3544  002BB0  6FEC               	movwf	Servo_SetAngle@servo_no& (0+255),b
  3545  002BB2  0E5A               	movlw	90
  3546  002BB4  6FED               	movwf	Servo_SetAngle@angle& (0+255),b
  3547  002BB6  ECEB  F014         	call	_Servo_SetAngle	;wreg free
  3548  002BBA                     
  3549                           ;Robot/Navigation/robot_navigation.c: 44:             Servo_SetAngle(&i2c_obj , &servo_d
      +                          river_obj , servo_index_3 , 90 );
  3550  002BBA  0E96               	movlw	low _i2c_obj
  3551  002BBC  0100               	movlb	0	; () banked
  3552  002BBE  6FE8               	movwf	Servo_SetAngle@i2c_obj& (0+255),b
  3553  002BC0  0E00               	movlw	high _i2c_obj
  3554  002BC2  6FE9               	movwf	(Servo_SetAngle@i2c_obj+1)& (0+255),b
  3555  002BC4  0E9D               	movlw	low _servo_driver_obj
  3556  002BC6  6FEA               	movwf	Servo_SetAngle@servo_driver_obj& (0+255),b
  3557  002BC8  0E00               	movlw	high _servo_driver_obj
  3558  002BCA  6FEB               	movwf	(Servo_SetAngle@servo_driver_obj+1)& (0+255),b
  3559  002BCC  0E02               	movlw	2
  3560  002BCE  6FEC               	movwf	Servo_SetAngle@servo_no& (0+255),b
  3561  002BD0  0E5A               	movlw	90
  3562  002BD2  6FED               	movwf	Servo_SetAngle@angle& (0+255),b
  3563  002BD4  ECEB  F014         	call	_Servo_SetAngle	;wreg free
  3564  002BD8                     
  3565                           ;Robot/Navigation/robot_navigation.c: 45:             Servo_SetAngle(&i2c_obj , &servo_d
      +                          river_obj , servo_index_4 , 90 );
  3566  002BD8  0E96               	movlw	low _i2c_obj
  3567  002BDA  0100               	movlb	0	; () banked
  3568  002BDC  6FE8               	movwf	Servo_SetAngle@i2c_obj& (0+255),b
  3569  002BDE  0E00               	movlw	high _i2c_obj
  3570  002BE0  6FE9               	movwf	(Servo_SetAngle@i2c_obj+1)& (0+255),b
  3571  002BE2  0E9D               	movlw	low _servo_driver_obj
  3572  002BE4  6FEA               	movwf	Servo_SetAngle@servo_driver_obj& (0+255),b
  3573  002BE6  0E00               	movlw	high _servo_driver_obj
  3574  002BE8  6FEB               	movwf	(Servo_SetAngle@servo_driver_obj+1)& (0+255),b
  3575  002BEA  0E03               	movlw	3
  3576  002BEC  6FEC               	movwf	Servo_SetAngle@servo_no& (0+255),b
  3577  002BEE  0E5A               	movlw	90
  3578  002BF0  6FED               	movwf	Servo_SetAngle@angle& (0+255),b
  3579  002BF2  ECEB  F014         	call	_Servo_SetAngle	;wreg free
  3580  002BF6                     
  3581                           ;Robot/Navigation/robot_navigation.c: 47:             ECU_DC_Motor_Run_Right(&W1_W3_W5_M
      +                          otor_Control);
  3582  002BF6  0EA3               	movlw	low _W1_W3_W5_Motor_Control
  3583  002BF8  6E0F               	movwf	ECU_DC_Motor_Run_Right@dc_motor^0,c
  3584  002BFA  0E00               	movlw	high _W1_W3_W5_Motor_Control
  3585  002BFC  6E10               	movwf	(ECU_DC_Motor_Run_Right@dc_motor+1)^0,c
  3586  002BFE  ECC0  F019         	call	_ECU_DC_Motor_Run_Right	;wreg free
  3587  002C02                     
  3588                           ;Robot/Navigation/robot_navigation.c: 48:             ECU_DC_Motor_Run_Right(&W2_W4_W6_M
      +                          otor_Control);
  3589  002C02  0EA2               	movlw	low _W2_W4_W6_Motor_Control
  3590  002C04  6E0F               	movwf	ECU_DC_Motor_Run_Right@dc_motor^0,c
  3591  002C06  0E00               	movlw	high _W2_W4_W6_Motor_Control
  3592  002C08  6E10               	movwf	(ECU_DC_Motor_Run_Right@dc_motor+1)^0,c
  3593  002C0A  ECC0  F019         	call	_ECU_DC_Motor_Run_Right	;wreg free
  3594  002C0E                     
  3595                           ;Robot/Navigation/robot_navigation.c: 50:             CCP_PWM_Set_Duty(&CCP1_Obj , 95);
  3596  002C0E  0E8A               	movlw	low _CCP1_Obj
  3597  002C10  0100               	movlb	0	; () banked
  3598  002C12  6FE8               	movwf	CCP_PWM_Set_Duty@_ccp_obj& (0+255),b
  3599  002C14  0E00               	movlw	high _CCP1_Obj
  3600  002C16  6FE9               	movwf	(CCP_PWM_Set_Duty@_ccp_obj+1)& (0+255),b
  3601  002C18  0E5F               	movlw	95
  3602  002C1A  6FEA               	movwf	CCP_PWM_Set_Duty@_duty& (0+255),b
  3603  002C1C  EC04  F010         	call	_CCP_PWM_Set_Duty	;wreg free
  3604  002C20                     
  3605                           ;Robot/Navigation/robot_navigation.c: 51:             CCP_PWM_Set_Duty(&CCP2_Obj , 95);
  3606  002C20  0E7E               	movlw	low _CCP2_Obj
  3607  002C22  0100               	movlb	0	; () banked
  3608  002C24  6FE8               	movwf	CCP_PWM_Set_Duty@_ccp_obj& (0+255),b
  3609  002C26  0E00               	movlw	high _CCP2_Obj
  3610  002C28  6FE9               	movwf	(CCP_PWM_Set_Duty@_ccp_obj+1)& (0+255),b
  3611  002C2A  0E5F               	movlw	95
  3612  002C2C  6FEA               	movwf	CCP_PWM_Set_Duty@_duty& (0+255),b
  3613  002C2E  EC04  F010         	call	_CCP_PWM_Set_Duty	;wreg free
  3614  002C32  0012               	return		;funcret
  3615  002C34                     __end_of_Robot_Move_Forward:
  3616                           	callstack 0
  3617                           
  3618 ;; *************** function _ECU_DC_Motor_Run_Right *****************
  3619 ;; Defined at:
  3620 ;;		line 59 in file "ECU/DC_Motor/ecu_dc_motor.c"
  3621 ;; Parameters:    Size  Location     Type
  3622 ;;  dc_motor        2   14[COMRAM] PTR const struct .
  3623 ;;		 -> W2_W4_W6_Motor_Control(1), W1_W3_W5_Motor_Control(1), 
  3624 ;; Auto vars:     Size  Location     Type
  3625 ;;  ret_value       1    0        unsigned char 
  3626 ;; Return value:  Size  Location     Type
  3627 ;;                  1    wreg      unsigned char 
  3628 ;; Registers used:
  3629 ;;		wreg, fsr2l, fsr2h, status,2, status,0, prodl, prodh, cstack
  3630 ;; Tracked objects:
  3631 ;;		On entry : 0/0
  3632 ;;		On exit  : 0/0
  3633 ;;		Unchanged: 0/0
  3634 ;; Data sizes:     COMRAM   BANK0   BANK1   BANK2   BANK3   BANK4   BANK5   BANK6   BANK7   BANK8   BANK9  BANK10  BANK1
      +1  BANK12  BANK13  BANK14  BANK15
  3635 ;;      Params:         2       0       0       0       0       0       0       0       0       0       0       0       
      +0       0       0       0       0
  3636 ;;      Locals:         0       0       0       0       0       0       0       0       0       0       0       0       
      +0       0       0       0       0
  3637 ;;      Temps:          0       0       0       0       0       0       0       0       0       0       0       0       
      +0       0       0       0       0
  3638 ;;      Totals:         2       0       0       0       0       0       0       0       0       0       0       0       
      +0       0       0       0       0
  3639 ;;Total ram usage:        2 bytes
  3640 ;; Hardware stack levels used: 1
  3641 ;; Hardware stack levels required when called: 5
  3642 ;; This function calls:
  3643 ;;		_GPIO_Pin_Write_Logic
  3644 ;; This function is called by:
  3645 ;;		_Robot_Move_Forward
  3646 ;;		_Robot_Steer_Right_Forward
  3647 ;;		_Robot_Steer_Left_Forward
  3648 ;; This function uses a non-reentrant model
  3649 ;;
  3650                           
  3651                           	psect	text20
  3652  003380                     __ptext20:
  3653                           	callstack 0
  3654  003380                     _ECU_DC_Motor_Run_Right:
  3655                           	callstack 24
  3656  003380                     
  3657                           ;ECU/DC_Motor/ecu_dc_motor.c: 62:     if(((void*)0) == dc_motor)
  3658  003380  500F               	movf	ECU_DC_Motor_Run_Right@dc_motor^0,w,c
  3659  003382  1010               	iorwf	(ECU_DC_Motor_Run_Right@dc_motor+1)^0,w,c
  3660  003384  A4D8               	btfss	status,2,c
  3661  003386  EFC7  F019         	goto	u6431
  3662  00338A  EFC9  F019         	goto	u6430
  3663  00338E                     u6431:
  3664  00338E  EFCB  F019         	goto	l6852
  3665  003392                     u6430:
  3666  003392                     
  3667                           ;ECU/DC_Motor/ecu_dc_motor.c: 65:     }
  3668  003392  EFD3  F019         	goto	l65
  3669  003396                     l6852:
  3670                           
  3671                           ;ECU/DC_Motor/ecu_dc_motor.c: 67:     {;ECU/DC_Motor/ecu_dc_motor.c: 68:         GPIO_Pi
      +                          n_Write_Logic(&(dc_motor->dc_motor), GPIO_LOW );
  3672  003396  C00F  F005         	movff	ECU_DC_Motor_Run_Right@dc_motor,GPIO_Pin_Write_Logic@_pin_config
  3673  00339A  C010  F006         	movff	ECU_DC_Motor_Run_Right@dc_motor+1,GPIO_Pin_Write_Logic@_pin_config+1
  3674  00339E  0E00               	movlw	0
  3675  0033A0  6E07               	movwf	GPIO_Pin_Write_Logic@logic^0,c
  3676  0033A2  EC58  F013         	call	_GPIO_Pin_Write_Logic	;wreg free
  3677  0033A6                     l65:
  3678  0033A6  0012               	return		;funcret
  3679  0033A8                     __end_of_ECU_DC_Motor_Run_Right:
  3680                           	callstack 0
  3681                           
  3682 ;; *************** function _Robot_Move_Backward *****************
  3683 ;; Defined at:
  3684 ;;		line 57 in file "Robot/Navigation/robot_navigation.c"
  3685 ;; Parameters:    Size  Location     Type
  3686 ;;		None
  3687 ;; Auto vars:     Size  Location     Type
  3688 ;;  ret_val         1    0        unsigned char 
  3689 ;; Return value:  Size  Location     Type
  3690 ;;                  1    wreg      unsigned char 
  3691 ;; Registers used:
  3692 ;;		wreg, fsr2l, fsr2h, status,2, status,0, prodl, prodh, cstack
  3693 ;; Tracked objects:
  3694 ;;		On entry : 0/0
  3695 ;;		On exit  : 0/0
  3696 ;;		Unchanged: 0/0
  3697 ;; Data sizes:     COMRAM   BANK0   BANK1   BANK2   BANK3   BANK4   BANK5   BANK6   BANK7   BANK8   BANK9  BANK10  BANK1
      +1  BANK12  BANK13  BANK14  BANK15
  3698 ;;      Params:         0       0       0       0       0       0       0       0       0       0       0       0       
      +0       0       0       0       0
  3699 ;;      Locals:         0       0       0       0       0       0       0       0       0       0       0       0       
      +0       0       0       0       0
  3700 ;;      Temps:          0       0       0       0       0       0       0       0       0       0       0       0       
      +0       0       0       0       0
  3701 ;;      Totals:         0       0       0       0       0       0       0       0       0       0       0       0       
      +0       0       0       0       0
  3702 ;;Total ram usage:        0 bytes
  3703 ;; Hardware stack levels used: 1
  3704 ;; Hardware stack levels required when called: 7
  3705 ;; This function calls:
  3706 ;;		_CCP_PWM_Set_Duty
  3707 ;;		_ECU_DC_Motor_Run_Left
  3708 ;;		_Robot_Steer_Stop
  3709 ;;		_Servo_SetAngle
  3710 ;; This function is called by:
  3711 ;;		_main
  3712 ;; This function uses a non-reentrant model
  3713 ;;
  3714                           
  3715                           	psect	text21
  3716  002C34                     __ptext21:
  3717                           	callstack 0
  3718  002C34                     _Robot_Move_Backward:
  3719                           	callstack 23
  3720  002C34                     
  3721                           ;Robot/Navigation/robot_navigation.c: 60:       Movement_State = NAV_MOV_BACKW ;
  3722  002C34  0E04               	movlw	4
  3723  002C36  0100               	movlb	0	; () banked
  3724  002C38  6FDF               	movwf	_Movement_State& (0+255),b
  3725  002C3A                     
  3726                           ; BSR set to: 0
  3727                           ;Robot/Navigation/robot_navigation.c: 62:       Robot_Steer_Stop();
  3728  002C3A  ECE8  F019         	call	_Robot_Steer_Stop	;wreg free
  3729  002C3E                     
  3730                           ;Robot/Navigation/robot_navigation.c: 64:       Servo_SetAngle(&i2c_obj , &servo_driver_
      +                          obj , servo_index_1 , 90 );
  3731  002C3E  0E96               	movlw	low _i2c_obj
  3732  002C40  0100               	movlb	0	; () banked
  3733  002C42  6FE8               	movwf	Servo_SetAngle@i2c_obj& (0+255),b
  3734  002C44  0E00               	movlw	high _i2c_obj
  3735  002C46  6FE9               	movwf	(Servo_SetAngle@i2c_obj+1)& (0+255),b
  3736  002C48  0E9D               	movlw	low _servo_driver_obj
  3737  002C4A  6FEA               	movwf	Servo_SetAngle@servo_driver_obj& (0+255),b
  3738  002C4C  0E00               	movlw	high _servo_driver_obj
  3739  002C4E  6FEB               	movwf	(Servo_SetAngle@servo_driver_obj+1)& (0+255),b
  3740  002C50  0E00               	movlw	0
  3741  002C52  6FEC               	movwf	Servo_SetAngle@servo_no& (0+255),b
  3742  002C54  0E5A               	movlw	90
  3743  002C56  6FED               	movwf	Servo_SetAngle@angle& (0+255),b
  3744  002C58  ECEB  F014         	call	_Servo_SetAngle	;wreg free
  3745  002C5C                     
  3746                           ;Robot/Navigation/robot_navigation.c: 65:       Servo_SetAngle(&i2c_obj , &servo_driver_
      +                          obj , servo_index_2 , 90 );
  3747  002C5C  0E96               	movlw	low _i2c_obj
  3748  002C5E  0100               	movlb	0	; () banked
  3749  002C60  6FE8               	movwf	Servo_SetAngle@i2c_obj& (0+255),b
  3750  002C62  0E00               	movlw	high _i2c_obj
  3751  002C64  6FE9               	movwf	(Servo_SetAngle@i2c_obj+1)& (0+255),b
  3752  002C66  0E9D               	movlw	low _servo_driver_obj
  3753  002C68  6FEA               	movwf	Servo_SetAngle@servo_driver_obj& (0+255),b
  3754  002C6A  0E00               	movlw	high _servo_driver_obj
  3755  002C6C  6FEB               	movwf	(Servo_SetAngle@servo_driver_obj+1)& (0+255),b
  3756  002C6E  0E01               	movlw	1
  3757  002C70  6FEC               	movwf	Servo_SetAngle@servo_no& (0+255),b
  3758  002C72  0E5A               	movlw	90
  3759  002C74  6FED               	movwf	Servo_SetAngle@angle& (0+255),b
  3760  002C76  ECEB  F014         	call	_Servo_SetAngle	;wreg free
  3761  002C7A                     
  3762                           ;Robot/Navigation/robot_navigation.c: 66:       Servo_SetAngle(&i2c_obj , &servo_driver_
      +                          obj , servo_index_3 , 90 );
  3763  002C7A  0E96               	movlw	low _i2c_obj
  3764  002C7C  0100               	movlb	0	; () banked
  3765  002C7E  6FE8               	movwf	Servo_SetAngle@i2c_obj& (0+255),b
  3766  002C80  0E00               	movlw	high _i2c_obj
  3767  002C82  6FE9               	movwf	(Servo_SetAngle@i2c_obj+1)& (0+255),b
  3768  002C84  0E9D               	movlw	low _servo_driver_obj
  3769  002C86  6FEA               	movwf	Servo_SetAngle@servo_driver_obj& (0+255),b
  3770  002C88  0E00               	movlw	high _servo_driver_obj
  3771  002C8A  6FEB               	movwf	(Servo_SetAngle@servo_driver_obj+1)& (0+255),b
  3772  002C8C  0E02               	movlw	2
  3773  002C8E  6FEC               	movwf	Servo_SetAngle@servo_no& (0+255),b
  3774  002C90  0E5A               	movlw	90
  3775  002C92  6FED               	movwf	Servo_SetAngle@angle& (0+255),b
  3776  002C94  ECEB  F014         	call	_Servo_SetAngle	;wreg free
  3777  002C98                     
  3778                           ;Robot/Navigation/robot_navigation.c: 67:       Servo_SetAngle(&i2c_obj , &servo_driver_
      +                          obj , servo_index_4 , 90 );
  3779  002C98  0E96               	movlw	low _i2c_obj
  3780  002C9A  0100               	movlb	0	; () banked
  3781  002C9C  6FE8               	movwf	Servo_SetAngle@i2c_obj& (0+255),b
  3782  002C9E  0E00               	movlw	high _i2c_obj
  3783  002CA0  6FE9               	movwf	(Servo_SetAngle@i2c_obj+1)& (0+255),b
  3784  002CA2  0E9D               	movlw	low _servo_driver_obj
  3785  002CA4  6FEA               	movwf	Servo_SetAngle@servo_driver_obj& (0+255),b
  3786  002CA6  0E00               	movlw	high _servo_driver_obj
  3787  002CA8  6FEB               	movwf	(Servo_SetAngle@servo_driver_obj+1)& (0+255),b
  3788  002CAA  0E03               	movlw	3
  3789  002CAC  6FEC               	movwf	Servo_SetAngle@servo_no& (0+255),b
  3790  002CAE  0E5A               	movlw	90
  3791  002CB0  6FED               	movwf	Servo_SetAngle@angle& (0+255),b
  3792  002CB2  ECEB  F014         	call	_Servo_SetAngle	;wreg free
  3793  002CB6                     
  3794                           ;Robot/Navigation/robot_navigation.c: 69:       ECU_DC_Motor_Run_Left(&W1_W3_W5_Motor_Co
      +                          ntrol);
  3795  002CB6  0EA3               	movlw	low _W1_W3_W5_Motor_Control
  3796  002CB8  6E0F               	movwf	ECU_DC_Motor_Run_Left@dc_motor^0,c
  3797  002CBA  0E00               	movlw	high _W1_W3_W5_Motor_Control
  3798  002CBC  6E10               	movwf	(ECU_DC_Motor_Run_Left@dc_motor+1)^0,c
  3799  002CBE  ECD4  F019         	call	_ECU_DC_Motor_Run_Left	;wreg free
  3800  002CC2                     
  3801                           ;Robot/Navigation/robot_navigation.c: 70:       ECU_DC_Motor_Run_Left(&W2_W4_W6_Motor_Co
      +                          ntrol);
  3802  002CC2  0EA2               	movlw	low _W2_W4_W6_Motor_Control
  3803  002CC4  6E0F               	movwf	ECU_DC_Motor_Run_Left@dc_motor^0,c
  3804  002CC6  0E00               	movlw	high _W2_W4_W6_Motor_Control
  3805  002CC8  6E10               	movwf	(ECU_DC_Motor_Run_Left@dc_motor+1)^0,c
  3806  002CCA  ECD4  F019         	call	_ECU_DC_Motor_Run_Left	;wreg free
  3807  002CCE                     
  3808                           ;Robot/Navigation/robot_navigation.c: 72:       CCP_PWM_Set_Duty(&CCP1_Obj , 95);
  3809  002CCE  0E8A               	movlw	low _CCP1_Obj
  3810  002CD0  0100               	movlb	0	; () banked
  3811  002CD2  6FE8               	movwf	CCP_PWM_Set_Duty@_ccp_obj& (0+255),b
  3812  002CD4  0E00               	movlw	high _CCP1_Obj
  3813  002CD6  6FE9               	movwf	(CCP_PWM_Set_Duty@_ccp_obj+1)& (0+255),b
  3814  002CD8  0E5F               	movlw	95
  3815  002CDA  6FEA               	movwf	CCP_PWM_Set_Duty@_duty& (0+255),b
  3816  002CDC  EC04  F010         	call	_CCP_PWM_Set_Duty	;wreg free
  3817  002CE0                     
  3818                           ;Robot/Navigation/robot_navigation.c: 73:       CCP_PWM_Set_Duty(&CCP2_Obj , 95);
  3819  002CE0  0E7E               	movlw	low _CCP2_Obj
  3820  002CE2  0100               	movlb	0	; () banked
  3821  002CE4  6FE8               	movwf	CCP_PWM_Set_Duty@_ccp_obj& (0+255),b
  3822  002CE6  0E00               	movlw	high _CCP2_Obj
  3823  002CE8  6FE9               	movwf	(CCP_PWM_Set_Duty@_ccp_obj+1)& (0+255),b
  3824  002CEA  0E5F               	movlw	95
  3825  002CEC  6FEA               	movwf	CCP_PWM_Set_Duty@_duty& (0+255),b
  3826  002CEE  EC04  F010         	call	_CCP_PWM_Set_Duty	;wreg free
  3827  002CF2  0012               	return		;funcret
  3828  002CF4                     __end_of_Robot_Move_Backward:
  3829                           	callstack 0
  3830                           
  3831 ;; *************** function _Servo_SetAngle *****************
  3832 ;; Defined at:
  3833 ;;		line 43 in file "ECU/SERVO_MOTOR_CONTROL_BY_I2C/ecu_servo_motor_i2c.c"
  3834 ;; Parameters:    Size  Location     Type
  3835 ;;  i2c_obj         2    8[BANK0 ] PTR const struct .
  3836 ;;		 -> i2c_obj(7), 
  3837 ;;  servo_driver    2   10[BANK0 ] PTR const struct .
  3838 ;;		 -> servo_driver_obj(4), 
  3839 ;;  servo_no        1   12[BANK0 ] const enum E3294
  3840 ;;  angle           1   13[BANK0 ] const unsigned char 
  3841 ;; Auto vars:     Size  Location     Type
  3842 ;;  angle_in_reg    2   14[BANK0 ] unsigned short 
  3843 ;;  reg_addrees     1   16[BANK0 ] unsigned char 
  3844 ;;  ERRORSTATUS     1    0        unsigned char 
  3845 ;; Return value:  Size  Location     Type
  3846 ;;                  1    wreg      unsigned char 
  3847 ;; Registers used:
  3848 ;;		wreg, fsr2l, fsr2h, status,2, status,0, prodl, prodh, cstack
  3849 ;; Tracked objects:
  3850 ;;		On entry : 0/0
  3851 ;;		On exit  : 0/0
  3852 ;;		Unchanged: 0/0
  3853 ;; Data sizes:     COMRAM   BANK0   BANK1   BANK2   BANK3   BANK4   BANK5   BANK6   BANK7   BANK8   BANK9  BANK10  BANK1
      +1  BANK12  BANK13  BANK14  BANK15
  3854 ;;      Params:         0       6       0       0       0       0       0       0       0       0       0       0       
      +0       0       0       0       0
  3855 ;;      Locals:         0       3       0       0       0       0       0       0       0       0       0       0       
      +0       0       0       0       0
  3856 ;;      Temps:          0       0       0       0       0       0       0       0       0       0       0       0       
      +0       0       0       0       0
  3857 ;;      Totals:         0       9       0       0       0       0       0       0       0       0       0       0       
      +0       0       0       0       0
  3858 ;;Total ram usage:        9 bytes
  3859 ;; Hardware stack levels used: 1
  3860 ;; Hardware stack levels required when called: 6
  3861 ;; This function calls:
  3862 ;;		_PCA_Write_Reg
  3863 ;;		___fladd
  3864 ;;		___flmul
  3865 ;;		___fltol
  3866 ;;		___xxtofl
  3867 ;; This function is called by:
  3868 ;;		_Robot_Move_Forward
  3869 ;;		_Robot_Move_Backward
  3870 ;;		_Robot_Steer_Right_Forward
  3871 ;;		_Robot_Steer_Left_Forward
  3872 ;; This function uses a non-reentrant model
  3873 ;;
  3874                           
  3875                           	psect	text22
  3876  0029D6                     __ptext22:
  3877                           	callstack 0
  3878  0029D6                     _Servo_SetAngle:
  3879                           	callstack 23
  3880  0029D6                     
  3881                           ;ECU/SERVO_MOTOR_CONTROL_BY_I2C/ecu_servo_motor_i2c.c: 46:     if (((void*)0)==i2c_obj)
  3882  0029D6  0100               	movlb	0	; () banked
  3883  0029D8  51E8               	movf	Servo_SetAngle@i2c_obj& (0+255),w,b
  3884  0029DA  11E9               	iorwf	(Servo_SetAngle@i2c_obj+1)& (0+255),w,b
  3885  0029DC  A4D8               	btfss	status,2,c
  3886  0029DE  EFF3  F014         	goto	u8371
  3887  0029E2  EFF5  F014         	goto	u8370
  3888  0029E6                     u8371:
  3889  0029E6  EFF7  F014         	goto	l8530
  3890  0029EA                     u8370:
  3891  0029EA                     
  3892                           ; BSR set to: 0
  3893                           ;ECU/SERVO_MOTOR_CONTROL_BY_I2C/ecu_servo_motor_i2c.c: 49:     }
  3894  0029EA  EF58  F015         	goto	l310
  3895  0029EE                     l8530:
  3896                           
  3897                           ; BSR set to: 0
  3898                           ;ECU/SERVO_MOTOR_CONTROL_BY_I2C/ecu_servo_motor_i2c.c: 51:     {;ECU/SERVO_MOTOR_CONTROL
      +                          _BY_I2C/ecu_servo_motor_i2c.c: 52:         uint8 reg_addrees=6+(servo_no*4)+2;
  3899  0029EE  51EC               	movf	Servo_SetAngle@servo_no& (0+255),w,b
  3900  0029F0  0D04               	mullw	4
  3901  0029F2  50F3               	movf	243,w,c
  3902  0029F4  0F08               	addlw	8
  3903  0029F6  6FF0               	movwf	Servo_SetAngle@reg_addrees& (0+255),b
  3904  0029F8                     
  3905                           ; BSR set to: 0
  3906                           ;ECU/SERVO_MOTOR_CONTROL_BY_I2C/ecu_servo_motor_i2c.c: 54:          uint16 angle_in_reg=
      +                          (uint16)(angle*1.138+204);
  3907  0029F8  0E00               	movlw	0
  3908  0029FA  6E49               	movwf	___fladd@a^0,c
  3909  0029FC  0E00               	movlw	0
  3910  0029FE  6E4A               	movwf	(___fladd@a+1)^0,c
  3911  002A00  0E4C               	movlw	76
  3912  002A02  6E4B               	movwf	(___fladd@a+2)^0,c
  3913  002A04  0E43               	movlw	67
  3914  002A06  6E4C               	movwf	(___fladd@a+3)^0,c
  3915  002A08  0EFC               	movlw	252
  3916  002A0A  6E30               	movwf	___flmul@a^0,c
  3917  002A0C  0EA9               	movlw	169
  3918  002A0E  6E31               	movwf	(___flmul@a+1)^0,c
  3919  002A10  0E91               	movlw	145
  3920  002A12  6E32               	movwf	(___flmul@a+2)^0,c
  3921  002A14  0E3F               	movlw	63
  3922  002A16  6E33               	movwf	(___flmul@a+3)^0,c
  3923  002A18  51ED               	movf	Servo_SetAngle@angle& (0+255),w,b
  3924  002A1A  6E05               	movwf	___xxtofl@val^0,c
  3925  002A1C  6A06               	clrf	(___xxtofl@val+1)^0,c
  3926  002A1E  6A07               	clrf	(___xxtofl@val+2)^0,c
  3927  002A20  6A08               	clrf	(___xxtofl@val+3)^0,c
  3928  002A22  0E01               	movlw	1
  3929  002A24  EC66  F00E         	call	___xxtofl
  3930  002A28  C005  F02C         	movff	?___xxtofl,___flmul@b
  3931  002A2C  C006  F02D         	movff	?___xxtofl+1,___flmul@b+1
  3932  002A30  C007  F02E         	movff	?___xxtofl+2,___flmul@b+2
  3933  002A34  C008  F02F         	movff	?___xxtofl+3,___flmul@b+3
  3934  002A38  EC84  F00A         	call	___flmul	;wreg free
  3935  002A3C  C02C  F045         	movff	?___flmul,___fladd@b
  3936  002A40  C02D  F046         	movff	?___flmul+1,___fladd@b+1
  3937  002A44  C02E  F047         	movff	?___flmul+2,___fladd@b+2
  3938  002A48  C02F  F048         	movff	?___flmul+3,___fladd@b+3
  3939  002A4C  EC24  F008         	call	___fladd	;wreg free
  3940  002A50  C045  F0E0         	movff	?___fladd,___fltol@f1
  3941  002A54  C046  F0E1         	movff	?___fladd+1,___fltol@f1+1
  3942  002A58  C047  F0E2         	movff	?___fladd+2,___fltol@f1+2
  3943  002A5C  C048  F0E3         	movff	?___fladd+3,___fltol@f1+3
  3944  002A60  ECEC  F013         	call	___fltol	;wreg free
  3945  002A64  C0E0  F0EE         	movff	?___fltol,Servo_SetAngle@angle_in_reg
  3946  002A68  C0E1  F0EF         	movff	?___fltol+1,Servo_SetAngle@angle_in_reg+1
  3947  002A6C                     
  3948                           ;ECU/SERVO_MOTOR_CONTROL_BY_I2C/ecu_servo_motor_i2c.c: 61:         PCA_Write_Reg(i2c_obj
      +                          ,servo_driver_obj->slave_address,reg_addrees,((uint8)angle_in_reg));
  3949  002A6C  C0E8  F00A         	movff	Servo_SetAngle@i2c_obj,PCA_Write_Reg@i2c_obj
  3950  002A70  C0E9  F00B         	movff	Servo_SetAngle@i2c_obj+1,PCA_Write_Reg@i2c_obj+1
  3951  002A74  C0EA  FFD9         	movff	Servo_SetAngle@servo_driver_obj,fsr2l
  3952  002A78  C0EB  FFDA         	movff	Servo_SetAngle@servo_driver_obj+1,fsr2h
  3953  002A7C  50DF               	movf	indf2,w,c
  3954  002A7E  6E0C               	movwf	PCA_Write_Reg@slave_address^0,c
  3955  002A80  C0F0  F00D         	movff	Servo_SetAngle@reg_addrees,PCA_Write_Reg@reg_address
  3956  002A84  C0EE  F00E         	movff	Servo_SetAngle@angle_in_reg,PCA_Write_Reg@data
  3957  002A88  EC9C  F018         	call	_PCA_Write_Reg	;wreg free
  3958  002A8C                     
  3959                           ;ECU/SERVO_MOTOR_CONTROL_BY_I2C/ecu_servo_motor_i2c.c: 62:         reg_addrees++;
  3960  002A8C  0100               	movlb	0	; () banked
  3961  002A8E  2BF0               	incf	Servo_SetAngle@reg_addrees& (0+255),f,b
  3962  002A90                     
  3963                           ; BSR set to: 0
  3964                           ;ECU/SERVO_MOTOR_CONTROL_BY_I2C/ecu_servo_motor_i2c.c: 63:         PCA_Write_Reg(i2c_obj
      +                          ,servo_driver_obj->slave_address,reg_addrees,((uint8)(angle_in_reg>>8)));
  3965  002A90  C0E8  F00A         	movff	Servo_SetAngle@i2c_obj,PCA_Write_Reg@i2c_obj
  3966  002A94  C0E9  F00B         	movff	Servo_SetAngle@i2c_obj+1,PCA_Write_Reg@i2c_obj+1
  3967  002A98  C0EA  FFD9         	movff	Servo_SetAngle@servo_driver_obj,fsr2l
  3968  002A9C  C0EB  FFDA         	movff	Servo_SetAngle@servo_driver_obj+1,fsr2h
  3969  002AA0  50DF               	movf	indf2,w,c
  3970  002AA2  6E0C               	movwf	PCA_Write_Reg@slave_address^0,c
  3971  002AA4  C0F0  F00D         	movff	Servo_SetAngle@reg_addrees,PCA_Write_Reg@reg_address
  3972  002AA8  51EF               	movf	(Servo_SetAngle@angle_in_reg+1)& (0+255),w,b
  3973  002AAA  6E0E               	movwf	PCA_Write_Reg@data^0,c
  3974  002AAC  EC9C  F018         	call	_PCA_Write_Reg	;wreg free
  3975  002AB0                     l310:
  3976  002AB0  0012               	return		;funcret
  3977  002AB2                     __end_of_Servo_SetAngle:
  3978                           	callstack 0
  3979                           
  3980 ;; *************** function ___fladd *****************
  3981 ;; Defined at:
  3982 ;;		line 10 in file "C:\Program Files\Microchip\xc8\v2.36\pic\sources\c99\common\sprcadd.c"
  3983 ;; Parameters:    Size  Location     Type
  3984 ;;  b               4   68[COMRAM] unsigned char 
  3985 ;;  a               4   72[COMRAM] unsigned char 
  3986 ;; Auto vars:     Size  Location     Type
  3987 ;;  grs             1   83[COMRAM] unsigned char 
  3988 ;;  bexp            1   82[COMRAM] unsigned char 
  3989 ;;  aexp            1   81[COMRAM] unsigned char 
  3990 ;;  signs           1   80[COMRAM] unsigned char 
  3991 ;; Return value:  Size  Location     Type
  3992 ;;                  4   68[COMRAM] unsigned char 
  3993 ;; Registers used:
  3994 ;;		wreg, status,2, status,0
  3995 ;; Tracked objects:
  3996 ;;		On entry : 0/0
  3997 ;;		On exit  : 0/0
  3998 ;;		Unchanged: 0/0
  3999 ;; Data sizes:     COMRAM   BANK0   BANK1   BANK2   BANK3   BANK4   BANK5   BANK6   BANK7   BANK8   BANK9  BANK10  BANK1
      +1  BANK12  BANK13  BANK14  BANK15
  4000 ;;      Params:         8       0       0       0       0       0       0       0       0       0       0       0       
      +0       0       0       0       0
  4001 ;;      Locals:         4       0       0       0       0       0       0       0       0       0       0       0       
      +0       0       0       0       0
  4002 ;;      Temps:          4       0       0       0       0       0       0       0       0       0       0       0       
      +0       0       0       0       0
  4003 ;;      Totals:        16       0       0       0       0       0       0       0       0       0       0       0       
      +0       0       0       0       0
  4004 ;;Total ram usage:       16 bytes
  4005 ;; Hardware stack levels used: 1
  4006 ;; Hardware stack levels required when called: 4
  4007 ;; This function calls:
  4008 ;;		Nothing
  4009 ;; This function is called by:
  4010 ;;		_Servo_SetAngle
  4011 ;;		_I2C_Master_Mode_Clock_Configurations
  4012 ;;		_async_config_baud_rate_gen
  4013 ;; This function uses a non-reentrant model
  4014 ;;
  4015                           
  4016                           	psect	text23
  4017  001048                     __ptext23:
  4018                           	callstack 0
  4019  001048                     ___fladd:
  4020                           	callstack 21
  4021  001048  5048               	movf	(___fladd@b+3)^0,w,c
  4022  00104A  0B80               	andlw	128
  4023  00104C  6E51               	movwf	___fladd@signs^0,c
  4024  00104E  5048               	movf	(___fladd@b+3)^0,w,c
  4025  001050  2448               	addwf	(___fladd@b+3)^0,w,c
  4026  001052  6E53               	movwf	___fladd@bexp^0,c
  4027  001054  AE47               	btfss	(___fladd@b+2)^0,7,c
  4028  001056  EF2F  F008         	goto	u4851
  4029  00105A  EF31  F008         	goto	u4850
  4030  00105E                     u4851:
  4031  00105E  EF32  F008         	goto	l5872
  4032  001062                     u4850:
  4033  001062  8053               	bsf	___fladd@bexp^0,0,c
  4034  001064                     l5872:
  4035  001064  5053               	movf	___fladd@bexp^0,w,c
  4036  001066  B4D8               	btfsc	status,2,c
  4037  001068  EF38  F008         	goto	u4861
  4038  00106C  EF3A  F008         	goto	u4860
  4039  001070                     u4861:
  4040  001070  EF4F  F008         	goto	l5882
  4041  001074                     u4860:
  4042  001074  2853               	incf	___fladd@bexp^0,w,c
  4043  001076  A4D8               	btfss	status,2,c
  4044  001078  EF40  F008         	goto	u4871
  4045  00107C  EF42  F008         	goto	u4870
  4046  001080                     u4871:
  4047  001080  EF4A  F008         	goto	l5878
  4048  001084                     u4870:
  4049  001084  0E00               	movlw	0
  4050  001086  6E45               	movwf	___fladd@b^0,c
  4051  001088  0E00               	movlw	0
  4052  00108A  6E46               	movwf	(___fladd@b+1)^0,c
  4053  00108C  0E00               	movlw	0
  4054  00108E  6E47               	movwf	(___fladd@b+2)^0,c
  4055  001090  0E00               	movlw	0
  4056  001092  6E48               	movwf	(___fladd@b+3)^0,c
  4057  001094                     l5878:
  4058  001094  8E47               	bsf	(___fladd@b+2)^0,7,c
  4059  001096  0E00               	movlw	0
  4060  001098  6E48               	movwf	(___fladd@b+3)^0,c
  4061  00109A  EF57  F008         	goto	l5884
  4062  00109E                     l5882:
  4063  00109E  0E00               	movlw	0
  4064  0010A0  6E45               	movwf	___fladd@b^0,c
  4065  0010A2  0E00               	movlw	0
  4066  0010A4  6E46               	movwf	(___fladd@b+1)^0,c
  4067  0010A6  0E00               	movlw	0
  4068  0010A8  6E47               	movwf	(___fladd@b+2)^0,c
  4069  0010AA  0E00               	movlw	0
  4070  0010AC  6E48               	movwf	(___fladd@b+3)^0,c
  4071  0010AE                     l5884:
  4072  0010AE  504C               	movf	(___fladd@a+3)^0,w,c
  4073  0010B0  0B80               	andlw	128
  4074  0010B2  6E52               	movwf	___fladd@aexp^0,c
  4075  0010B4  5051               	movf	___fladd@signs^0,w,c
  4076  0010B6  1852               	xorwf	___fladd@aexp^0,w,c
  4077  0010B8  B4D8               	btfsc	status,2,c
  4078  0010BA  EF61  F008         	goto	u4881
  4079  0010BE  EF63  F008         	goto	u4880
  4080  0010C2                     u4881:
  4081  0010C2  EF64  F008         	goto	l5890
  4082  0010C6                     u4880:
  4083  0010C6  8C51               	bsf	___fladd@signs^0,6,c
  4084  0010C8                     l5890:
  4085  0010C8  504C               	movf	(___fladd@a+3)^0,w,c
  4086  0010CA  244C               	addwf	(___fladd@a+3)^0,w,c
  4087  0010CC  6E52               	movwf	___fladd@aexp^0,c
  4088  0010CE  AE4B               	btfss	(___fladd@a+2)^0,7,c
  4089  0010D0  EF6C  F008         	goto	u4891
  4090  0010D4  EF6E  F008         	goto	u4890
  4091  0010D8                     u4891:
  4092  0010D8  EF6F  F008         	goto	l5896
  4093  0010DC                     u4890:
  4094  0010DC  8052               	bsf	___fladd@aexp^0,0,c
  4095  0010DE                     l5896:
  4096  0010DE  5052               	movf	___fladd@aexp^0,w,c
  4097  0010E0  B4D8               	btfsc	status,2,c
  4098  0010E2  EF75  F008         	goto	u4901
  4099  0010E6  EF77  F008         	goto	u4900
  4100  0010EA                     u4901:
  4101  0010EA  EF8C  F008         	goto	l5906
  4102  0010EE                     u4900:
  4103  0010EE  2852               	incf	___fladd@aexp^0,w,c
  4104  0010F0  A4D8               	btfss	status,2,c
  4105  0010F2  EF7D  F008         	goto	u4911
  4106  0010F6  EF7F  F008         	goto	u4910
  4107  0010FA                     u4911:
  4108  0010FA  EF87  F008         	goto	l5902
  4109  0010FE                     u4910:
  4110  0010FE  0E00               	movlw	0
  4111  001100  6E49               	movwf	___fladd@a^0,c
  4112  001102  0E00               	movlw	0
  4113  001104  6E4A               	movwf	(___fladd@a+1)^0,c
  4114  001106  0E00               	movlw	0
  4115  001108  6E4B               	movwf	(___fladd@a+2)^0,c
  4116  00110A  0E00               	movlw	0
  4117  00110C  6E4C               	movwf	(___fladd@a+3)^0,c
  4118  00110E                     l5902:
  4119  00110E  8E4B               	bsf	(___fladd@a+2)^0,7,c
  4120  001110  0E00               	movlw	0
  4121  001112  6E4C               	movwf	(___fladd@a+3)^0,c
  4122  001114  EF94  F008         	goto	l5908
  4123  001118                     l5906:
  4124  001118  0E00               	movlw	0
  4125  00111A  6E49               	movwf	___fladd@a^0,c
  4126  00111C  0E00               	movlw	0
  4127  00111E  6E4A               	movwf	(___fladd@a+1)^0,c
  4128  001120  0E00               	movlw	0
  4129  001122  6E4B               	movwf	(___fladd@a+2)^0,c
  4130  001124  0E00               	movlw	0
  4131  001126  6E4C               	movwf	(___fladd@a+3)^0,c
  4132  001128                     l5908:
  4133  001128  5053               	movf	___fladd@bexp^0,w,c
  4134  00112A  5C52               	subwf	___fladd@aexp^0,w,c
  4135  00112C  B0D8               	btfsc	status,0,c
  4136  00112E  EF9B  F008         	goto	u4921
  4137  001132  EF9D  F008         	goto	u4920
  4138  001136                     u4921:
  4139  001136  EFC4  F008         	goto	l5944
  4140  00113A                     u4920:
  4141  00113A  AC51               	btfss	___fladd@signs^0,6,c
  4142  00113C  EFA2  F008         	goto	u4931
  4143  001140  EFA4  F008         	goto	u4930
  4144  001144                     u4931:
  4145  001144  EFA6  F008         	goto	l5914
  4146  001148                     u4930:
  4147  001148  0E80               	movlw	128
  4148  00114A  1A51               	xorwf	___fladd@signs^0,f,c
  4149  00114C                     l5914:
  4150  00114C  C053  F054         	movff	___fladd@bexp,___fladd@grs
  4151  001150  C052  F053         	movff	___fladd@aexp,___fladd@bexp
  4152  001154  C054  F052         	movff	___fladd@grs,___fladd@aexp
  4153  001158  C045  F054         	movff	___fladd@b,___fladd@grs
  4154  00115C  C049  F045         	movff	___fladd@a,___fladd@b
  4155  001160  C054  F049         	movff	___fladd@grs,___fladd@a
  4156  001164  C046  F054         	movff	___fladd@b+1,___fladd@grs
  4157  001168  C04A  F046         	movff	___fladd@a+1,___fladd@b+1
  4158  00116C  C054  F04A         	movff	___fladd@grs,___fladd@a+1
  4159  001170  C047  F054         	movff	___fladd@b+2,___fladd@grs
  4160  001174  C04B  F047         	movff	___fladd@a+2,___fladd@b+2
  4161  001178  C054  F04B         	movff	___fladd@grs,___fladd@a+2
  4162  00117C  C048  F054         	movff	___fladd@b+3,___fladd@grs
  4163  001180  C04C  F048         	movff	___fladd@a+3,___fladd@b+3
  4164  001184  C054  F04C         	movff	___fladd@grs,___fladd@a+3
  4165  001188                     l5944:
  4166  001188  0E00               	movlw	0
  4167  00118A  6E54               	movwf	___fladd@grs^0,c
  4168  00118C  5053               	movf	___fladd@bexp^0,w,c
  4169  00118E  C052  F04D         	movff	___fladd@aexp,??___fladd
  4170  001192  6A4E               	clrf	(??___fladd+1)^0,c
  4171  001194  5E4D               	subwf	??___fladd^0,f,c
  4172  001196  0E00               	movlw	0
  4173  001198  5A4E               	subwfb	(??___fladd+1)^0,f,c
  4174  00119A  BE4E               	btfsc	(??___fladd+1)^0,7,c
  4175  00119C  EFD9  F008         	goto	u4941
  4176  0011A0  504E               	movf	(??___fladd+1)^0,w,c
  4177  0011A2  E109               	bnz	u4940
  4178  0011A4  0E1A               	movlw	26
  4179  0011A6  5C4D               	subwf	??___fladd^0,w,c
  4180  0011A8  A0D8               	btfss	status,0,c
  4181  0011AA  EFD9  F008         	goto	u4941
  4182  0011AE  EFDB  F008         	goto	u4940
  4183  0011B2                     u4941:
  4184  0011B2  EF12  F009         	goto	l2367
  4185  0011B6                     u4940:
  4186  0011B6  5045               	movf	___fladd@b^0,w,c
  4187  0011B8  1046               	iorwf	(___fladd@b+1)^0,w,c
  4188  0011BA  1047               	iorwf	(___fladd@b+2)^0,w,c
  4189  0011BC  1048               	iorwf	(___fladd@b+3)^0,w,c
  4190  0011BE  A4D8               	btfss	status,2,c
  4191  0011C0  EFE4  F008         	goto	u4951
  4192  0011C4  EFE7  F008         	goto	u4950
  4193  0011C8                     u4951:
  4194  0011C8  0E01               	movlw	1
  4195  0011CA  EFE8  F008         	goto	u4960
  4196  0011CE                     u4950:
  4197  0011CE  0E00               	movlw	0
  4198  0011D0                     u4960:
  4199  0011D0  6E54               	movwf	___fladd@grs^0,c
  4200  0011D2  0E00               	movlw	0
  4201  0011D4  6E45               	movwf	___fladd@b^0,c
  4202  0011D6  0E00               	movlw	0
  4203  0011D8  6E46               	movwf	(___fladd@b+1)^0,c
  4204  0011DA  0E00               	movlw	0
  4205  0011DC  6E47               	movwf	(___fladd@b+2)^0,c
  4206  0011DE  0E00               	movlw	0
  4207  0011E0  6E48               	movwf	(___fladd@b+3)^0,c
  4208  0011E2  C052  F053         	movff	___fladd@aexp,___fladd@bexp
  4209  0011E6  EF1B  F009         	goto	l2366
  4210  0011EA                     l2368:
  4211  0011EA  A054               	btfss	___fladd@grs^0,0,c
  4212  0011EC  EFFA  F008         	goto	u4971
  4213  0011F0  EFFC  F008         	goto	u4970
  4214  0011F4                     u4971:
  4215  0011F4  EF02  F009         	goto	l5956
  4216  0011F8                     u4970:
  4217  0011F8  90D8               	bcf	status,0,c
  4218  0011FA  3054               	rrcf	___fladd@grs^0,w,c
  4219  0011FC  0901               	iorlw	1
  4220  0011FE  6E54               	movwf	___fladd@grs^0,c
  4221  001200  EF04  F009         	goto	l5958
  4222  001204                     l5956:
  4223  001204  90D8               	bcf	status,0,c
  4224  001206  3254               	rrcf	___fladd@grs^0,f,c
  4225  001208                     l5958:
  4226  001208  A045               	btfss	___fladd@b^0,0,c
  4227  00120A  EF09  F009         	goto	u4981
  4228  00120E  EF0B  F009         	goto	u4980
  4229  001212                     u4981:
  4230  001212  EF0C  F009         	goto	l5962
  4231  001216                     u4980:
  4232  001216  8E54               	bsf	___fladd@grs^0,7,c
  4233  001218                     l5962:
  4234  001218  3448               	rlcf	(___fladd@b+3)^0,w,c
  4235  00121A  3248               	rrcf	(___fladd@b+3)^0,f,c
  4236  00121C  3247               	rrcf	(___fladd@b+2)^0,f,c
  4237  00121E  3246               	rrcf	(___fladd@b+1)^0,f,c
  4238  001220  3245               	rrcf	___fladd@b^0,f,c
  4239  001222  2A53               	incf	___fladd@bexp^0,f,c
  4240  001224                     l2367:
  4241  001224  5052               	movf	___fladd@aexp^0,w,c
  4242  001226  5C53               	subwf	___fladd@bexp^0,w,c
  4243  001228  A0D8               	btfss	status,0,c
  4244  00122A  EF19  F009         	goto	u4991
  4245  00122E  EF1B  F009         	goto	u4990
  4246  001232                     u4991:
  4247  001232  EFF5  F008         	goto	l2368
  4248  001236                     u4990:
  4249  001236                     l2366:
  4250  001236  BC51               	btfsc	___fladd@signs^0,6,c
  4251  001238  EF20  F009         	goto	u5001
  4252  00123C  EF22  F009         	goto	u5000
  4253  001240                     u5001:
  4254  001240  EF62  F009         	goto	l5990
  4255  001244                     u5000:
  4256  001244  5053               	movf	___fladd@bexp^0,w,c
  4257  001246  A4D8               	btfss	status,2,c
  4258  001248  EF28  F009         	goto	u5011
  4259  00124C  EF2A  F009         	goto	u5010
  4260  001250                     u5011:
  4261  001250  EF34  F009         	goto	l5972
  4262  001254                     u5010:
  4263  001254  0E00               	movlw	0
  4264  001256  6E45               	movwf	?___fladd^0,c
  4265  001258  0E00               	movlw	0
  4266  00125A  6E46               	movwf	(?___fladd+1)^0,c
  4267  00125C  0E00               	movlw	0
  4268  00125E  6E47               	movwf	(?___fladd+2)^0,c
  4269  001260  0E00               	movlw	0
  4270  001262  6E48               	movwf	(?___fladd+3)^0,c
  4271  001264  EF83  F00A         	goto	l2375
  4272  001268                     l5972:
  4273  001268  5049               	movf	___fladd@a^0,w,c
  4274  00126A  2645               	addwf	___fladd@b^0,f,c
  4275  00126C  504A               	movf	(___fladd@a+1)^0,w,c
  4276  00126E  2246               	addwfc	(___fladd@b+1)^0,f,c
  4277  001270  504B               	movf	(___fladd@a+2)^0,w,c
  4278  001272  2247               	addwfc	(___fladd@b+2)^0,f,c
  4279  001274  504C               	movf	(___fladd@a+3)^0,w,c
  4280  001276  2248               	addwfc	(___fladd@b+3)^0,f,c
  4281  001278  A048               	btfss	(___fladd@b+3)^0,0,c
  4282  00127A  EF41  F009         	goto	u5021
  4283  00127E  EF43  F009         	goto	u5020
  4284  001282                     u5021:
  4285  001282  EFEF  F009         	goto	l6026
  4286  001286                     u5020:
  4287  001286  A054               	btfss	___fladd@grs^0,0,c
  4288  001288  EF48  F009         	goto	u5031
  4289  00128C  EF4A  F009         	goto	u5030
  4290  001290                     u5031:
  4291  001290  EF50  F009         	goto	l5980
  4292  001294                     u5030:
  4293  001294  90D8               	bcf	status,0,c
  4294  001296  3054               	rrcf	___fladd@grs^0,w,c
  4295  001298  0901               	iorlw	1
  4296  00129A  6E54               	movwf	___fladd@grs^0,c
  4297  00129C  EF52  F009         	goto	l5982
  4298  0012A0                     l5980:
  4299  0012A0  90D8               	bcf	status,0,c
  4300  0012A2  3254               	rrcf	___fladd@grs^0,f,c
  4301  0012A4                     l5982:
  4302  0012A4  A045               	btfss	___fladd@b^0,0,c
  4303  0012A6  EF57  F009         	goto	u5041
  4304  0012AA  EF59  F009         	goto	u5040
  4305  0012AE                     u5041:
  4306  0012AE  EF5A  F009         	goto	l5986
  4307  0012B2                     u5040:
  4308  0012B2  8E54               	bsf	___fladd@grs^0,7,c
  4309  0012B4                     l5986:
  4310  0012B4  3448               	rlcf	(___fladd@b+3)^0,w,c
  4311  0012B6  3248               	rrcf	(___fladd@b+3)^0,f,c
  4312  0012B8  3247               	rrcf	(___fladd@b+2)^0,f,c
  4313  0012BA  3246               	rrcf	(___fladd@b+1)^0,f,c
  4314  0012BC  3245               	rrcf	___fladd@b^0,f,c
  4315  0012BE  2A53               	incf	___fladd@bexp^0,f,c
  4316  0012C0  EFEF  F009         	goto	l6026
  4317  0012C4                     l5990:
  4318  0012C4  5049               	movf	___fladd@a^0,w,c
  4319  0012C6  5C45               	subwf	___fladd@b^0,w,c
  4320  0012C8  504A               	movf	(___fladd@a+1)^0,w,c
  4321  0012CA  5846               	subwfb	(___fladd@b+1)^0,w,c
  4322  0012CC  504B               	movf	(___fladd@a+2)^0,w,c
  4323  0012CE  5847               	subwfb	(___fladd@b+2)^0,w,c
  4324  0012D0  5048               	movf	(___fladd@b+3)^0,w,c
  4325  0012D2  0A80               	xorlw	128
  4326  0012D4  6E4D               	movwf	??___fladd^0,c
  4327  0012D6  504C               	movf	(___fladd@a+3)^0,w,c
  4328  0012D8  0A80               	xorlw	128
  4329  0012DA  584D               	subwfb	??___fladd^0,w,c
  4330  0012DC  B0D8               	btfsc	status,0,c
  4331  0012DE  EF73  F009         	goto	u5051
  4332  0012E2  EF75  F009         	goto	u5050
  4333  0012E6                     u5051:
  4334  0012E6  EFA0  F009         	goto	l6000
  4335  0012EA                     u5050:
  4336  0012EA  5045               	movf	___fladd@b^0,w,c
  4337  0012EC  5C49               	subwf	___fladd@a^0,w,c
  4338  0012EE  6E4D               	movwf	??___fladd^0,c
  4339  0012F0  5046               	movf	(___fladd@b+1)^0,w,c
  4340  0012F2  584A               	subwfb	(___fladd@a+1)^0,w,c
  4341  0012F4  6E4E               	movwf	(??___fladd+1)^0,c
  4342  0012F6  5047               	movf	(___fladd@b+2)^0,w,c
  4343  0012F8  584B               	subwfb	(___fladd@a+2)^0,w,c
  4344  0012FA  6E4F               	movwf	(??___fladd+2)^0,c
  4345  0012FC  5048               	movf	(___fladd@b+3)^0,w,c
  4346  0012FE  584C               	subwfb	(___fladd@a+3)^0,w,c
  4347  001300  6E50               	movwf	(??___fladd+3)^0,c
  4348  001302  0EFF               	movlw	255
  4349  001304  244D               	addwf	??___fladd^0,w,c
  4350  001306  6E45               	movwf	___fladd@b^0,c
  4351  001308  0EFF               	movlw	255
  4352  00130A  204E               	addwfc	(??___fladd+1)^0,w,c
  4353  00130C  6E46               	movwf	(___fladd@b+1)^0,c
  4354  00130E  0EFF               	movlw	255
  4355  001310  204F               	addwfc	(??___fladd+2)^0,w,c
  4356  001312  6E47               	movwf	(___fladd@b+2)^0,c
  4357  001314  0EFF               	movlw	255
  4358  001316  2050               	addwfc	(??___fladd+3)^0,w,c
  4359  001318  6E48               	movwf	(___fladd@b+3)^0,c
  4360  00131A  0E80               	movlw	128
  4361  00131C  1A51               	xorwf	___fladd@signs^0,f,c
  4362  00131E  6C54               	negf	___fladd@grs^0,c
  4363  001320  5054               	movf	___fladd@grs^0,w,c
  4364  001322  A4D8               	btfss	status,2,c
  4365  001324  EF96  F009         	goto	u5061
  4366  001328  EF98  F009         	goto	u5060
  4367  00132C                     u5061:
  4368  00132C  EFA8  F009         	goto	l2383
  4369  001330                     u5060:
  4370  001330  0E01               	movlw	1
  4371  001332  2645               	addwf	___fladd@b^0,f,c
  4372  001334  0E00               	movlw	0
  4373  001336  2246               	addwfc	(___fladd@b+1)^0,f,c
  4374  001338  2247               	addwfc	(___fladd@b+2)^0,f,c
  4375  00133A  2248               	addwfc	(___fladd@b+3)^0,f,c
  4376  00133C  EFA8  F009         	goto	l2383
  4377  001340                     l6000:
  4378  001340  5049               	movf	___fladd@a^0,w,c
  4379  001342  5E45               	subwf	___fladd@b^0,f,c
  4380  001344  504A               	movf	(___fladd@a+1)^0,w,c
  4381  001346  5A46               	subwfb	(___fladd@b+1)^0,f,c
  4382  001348  504B               	movf	(___fladd@a+2)^0,w,c
  4383  00134A  5A47               	subwfb	(___fladd@b+2)^0,f,c
  4384  00134C  504C               	movf	(___fladd@a+3)^0,w,c
  4385  00134E  5A48               	subwfb	(___fladd@b+3)^0,f,c
  4386  001350                     l2383:
  4387  001350  5045               	movf	___fladd@b^0,w,c
  4388  001352  1046               	iorwf	(___fladd@b+1)^0,w,c
  4389  001354  1047               	iorwf	(___fladd@b+2)^0,w,c
  4390  001356  1048               	iorwf	(___fladd@b+3)^0,w,c
  4391  001358  A4D8               	btfss	status,2,c
  4392  00135A  EFB1  F009         	goto	u5071
  4393  00135E  EFB3  F009         	goto	u5070
  4394  001362                     u5071:
  4395  001362  EFE8  F009         	goto	l6024
  4396  001366                     u5070:
  4397  001366  5054               	movf	___fladd@grs^0,w,c
  4398  001368  A4D8               	btfss	status,2,c
  4399  00136A  EFB9  F009         	goto	u5081
  4400  00136E  EFBB  F009         	goto	u5080
  4401  001372                     u5081:
  4402  001372  EFE8  F009         	goto	l6024
  4403  001376                     u5080:
  4404  001376  0E00               	movlw	0
  4405  001378  6E45               	movwf	?___fladd^0,c
  4406  00137A  0E00               	movlw	0
  4407  00137C  6E46               	movwf	(?___fladd+1)^0,c
  4408  00137E  0E00               	movlw	0
  4409  001380  6E47               	movwf	(?___fladd+2)^0,c
  4410  001382  0E00               	movlw	0
  4411  001384  6E48               	movwf	(?___fladd+3)^0,c
  4412  001386  EF83  F00A         	goto	l2375
  4413  00138A                     l6008:
  4414  00138A  90D8               	bcf	status,0,c
  4415  00138C  3645               	rlcf	___fladd@b^0,f,c
  4416  00138E  3646               	rlcf	(___fladd@b+1)^0,f,c
  4417  001390  3647               	rlcf	(___fladd@b+2)^0,f,c
  4418  001392  3648               	rlcf	(___fladd@b+3)^0,f,c
  4419  001394  AE54               	btfss	___fladd@grs^0,7,c
  4420  001396  EFCF  F009         	goto	u5091
  4421  00139A  EFD1  F009         	goto	u5090
  4422  00139E                     u5091:
  4423  00139E  EFD2  F009         	goto	l6014
  4424  0013A2                     u5090:
  4425  0013A2  8045               	bsf	___fladd@b^0,0,c
  4426  0013A4                     l6014:
  4427  0013A4  A054               	btfss	___fladd@grs^0,0,c
  4428  0013A6  EFD7  F009         	goto	u5101
  4429  0013AA  EFD9  F009         	goto	u5100
  4430  0013AE                     u5101:
  4431  0013AE  EFDD  F009         	goto	l6018
  4432  0013B2                     u5100:
  4433  0013B2  80D8               	bsf	status,0,c
  4434  0013B4  3654               	rlcf	___fladd@grs^0,f,c
  4435  0013B6  EFDF  F009         	goto	l6020
  4436  0013BA                     l6018:
  4437  0013BA  90D8               	bcf	status,0,c
  4438  0013BC  3654               	rlcf	___fladd@grs^0,f,c
  4439  0013BE                     l6020:
  4440  0013BE  5053               	movf	___fladd@bexp^0,w,c
  4441  0013C0  B4D8               	btfsc	status,2,c
  4442  0013C2  EFE5  F009         	goto	u5111
  4443  0013C6  EFE7  F009         	goto	u5110
  4444  0013CA                     u5111:
  4445  0013CA  EFE8  F009         	goto	l6024
  4446  0013CE                     u5110:
  4447  0013CE  0653               	decf	___fladd@bexp^0,f,c
  4448  0013D0                     l6024:
  4449  0013D0  AE47               	btfss	(___fladd@b+2)^0,7,c
  4450  0013D2  EFED  F009         	goto	u5121
  4451  0013D6  EFEF  F009         	goto	u5120
  4452  0013DA                     u5121:
  4453  0013DA  EFC5  F009         	goto	l6008
  4454  0013DE                     u5120:
  4455  0013DE                     l6026:
  4456  0013DE  0E00               	movlw	0
  4457  0013E0  6E52               	movwf	___fladd@aexp^0,c
  4458  0013E2  AE54               	btfss	___fladd@grs^0,7,c
  4459  0013E4  EFF6  F009         	goto	u5131
  4460  0013E8  EFF8  F009         	goto	u5130
  4461  0013EC                     u5131:
  4462  0013EC  EF10  F00A         	goto	l2392
  4463  0013F0                     u5130:
  4464  0013F0  C054  F04D         	movff	___fladd@grs,??___fladd
  4465  0013F4  0E7F               	movlw	127
  4466  0013F6  164D               	andwf	??___fladd^0,f,c
  4467  0013F8  B4D8               	btfsc	status,2,c
  4468  0013FA  EF01  F00A         	goto	u5141
  4469  0013FE  EF03  F00A         	goto	u5140
  4470  001402                     u5141:
  4471  001402  EF07  F00A         	goto	l2393
  4472  001406                     u5140:
  4473  001406                     l6032:
  4474  001406  0E01               	movlw	1
  4475  001408  6E52               	movwf	___fladd@aexp^0,c
  4476  00140A  EF10  F00A         	goto	l2392
  4477  00140E                     l2393:
  4478  00140E  A045               	btfss	___fladd@b^0,0,c
  4479  001410  EF0C  F00A         	goto	u5151
  4480  001414  EF0E  F00A         	goto	u5150
  4481  001418                     u5151:
  4482  001418  EF10  F00A         	goto	l2392
  4483  00141C                     u5150:
  4484  00141C  EF03  F00A         	goto	l6032
  4485  001420                     l2392:
  4486  001420  5052               	movf	___fladd@aexp^0,w,c
  4487  001422  B4D8               	btfsc	status,2,c
  4488  001424  EF16  F00A         	goto	u5161
  4489  001428  EF18  F00A         	goto	u5160
  4490  00142C                     u5161:
  4491  00142C  EF43  F00A         	goto	l6044
  4492  001430                     u5160:
  4493  001430  0E01               	movlw	1
  4494  001432  2645               	addwf	___fladd@b^0,f,c
  4495  001434  0E00               	movlw	0
  4496  001436  2246               	addwfc	(___fladd@b+1)^0,f,c
  4497  001438  2247               	addwfc	(___fladd@b+2)^0,f,c
  4498  00143A  2248               	addwfc	(___fladd@b+3)^0,f,c
  4499  00143C  A048               	btfss	(___fladd@b+3)^0,0,c
  4500  00143E  EF23  F00A         	goto	u5171
  4501  001442  EF25  F00A         	goto	u5170
  4502  001446                     u5171:
  4503  001446  EF43  F00A         	goto	l6044
  4504  00144A                     u5170:
  4505  00144A  C045  F04D         	movff	___fladd@b,??___fladd
  4506  00144E  C046  F04E         	movff	___fladd@b+1,??___fladd+1
  4507  001452  C047  F04F         	movff	___fladd@b+2,??___fladd+2
  4508  001456  C048  F050         	movff	___fladd@b+3,??___fladd+3
  4509  00145A  3450               	rlcf	(??___fladd+3)^0,w,c
  4510  00145C  3250               	rrcf	(??___fladd+3)^0,f,c
  4511  00145E  324F               	rrcf	(??___fladd+2)^0,f,c
  4512  001460  324E               	rrcf	(??___fladd+1)^0,f,c
  4513  001462  324D               	rrcf	??___fladd^0,f,c
  4514  001464  C04D  F045         	movff	??___fladd,___fladd@b
  4515  001468  C04E  F046         	movff	??___fladd+1,___fladd@b+1
  4516  00146C  C04F  F047         	movff	??___fladd+2,___fladd@b+2
  4517  001470  C050  F048         	movff	??___fladd+3,___fladd@b+3
  4518  001474  2853               	incf	___fladd@bexp^0,w,c
  4519  001476  B4D8               	btfsc	status,2,c
  4520  001478  EF40  F00A         	goto	u5181
  4521  00147C  EF42  F00A         	goto	u5180
  4522  001480                     u5181:
  4523  001480  EF43  F00A         	goto	l6044
  4524  001484                     u5180:
  4525  001484  2A53               	incf	___fladd@bexp^0,f,c
  4526  001486                     l6044:
  4527  001486  2853               	incf	___fladd@bexp^0,w,c
  4528  001488  B4D8               	btfsc	status,2,c
  4529  00148A  EF49  F00A         	goto	u5191
  4530  00148E  EF4B  F00A         	goto	u5190
  4531  001492                     u5191:
  4532  001492  EF53  F00A         	goto	l6048
  4533  001496                     u5190:
  4534  001496  5053               	movf	___fladd@bexp^0,w,c
  4535  001498  A4D8               	btfss	status,2,c
  4536  00149A  EF51  F00A         	goto	u5201
  4537  00149E  EF53  F00A         	goto	u5200
  4538  0014A2                     u5201:
  4539  0014A2  EF65  F00A         	goto	l6052
  4540  0014A6                     u5200:
  4541  0014A6                     l6048:
  4542  0014A6  0E00               	movlw	0
  4543  0014A8  6E45               	movwf	___fladd@b^0,c
  4544  0014AA  0E00               	movlw	0
  4545  0014AC  6E46               	movwf	(___fladd@b+1)^0,c
  4546  0014AE  0E00               	movlw	0
  4547  0014B0  6E47               	movwf	(___fladd@b+2)^0,c
  4548  0014B2  0E00               	movlw	0
  4549  0014B4  6E48               	movwf	(___fladd@b+3)^0,c
  4550  0014B6  5053               	movf	___fladd@bexp^0,w,c
  4551  0014B8  A4D8               	btfss	status,2,c
  4552  0014BA  EF61  F00A         	goto	u5211
  4553  0014BE  EF63  F00A         	goto	u5210
  4554  0014C2                     u5211:
  4555  0014C2  EF65  F00A         	goto	l6052
  4556  0014C6                     u5210:
  4557  0014C6  0E00               	movlw	0
  4558  0014C8  6E51               	movwf	___fladd@signs^0,c
  4559  0014CA                     l6052:
  4560  0014CA  A053               	btfss	___fladd@bexp^0,0,c
  4561  0014CC  EF6A  F00A         	goto	u5221
  4562  0014D0  EF6C  F00A         	goto	u5220
  4563  0014D4                     u5221:
  4564  0014D4  EF6F  F00A         	goto	l6056
  4565  0014D8                     u5220:
  4566  0014D8  8E47               	bsf	(___fladd@b+2)^0,7,c
  4567  0014DA  EF70  F00A         	goto	l6058
  4568  0014DE                     l6056:
  4569  0014DE  9E47               	bcf	(___fladd@b+2)^0,7,c
  4570  0014E0                     l6058:
  4571  0014E0  90D8               	bcf	status,0,c
  4572  0014E2  3053               	rrcf	___fladd@bexp^0,w,c
  4573  0014E4  6E48               	movwf	(___fladd@b+3)^0,c
  4574  0014E6  AE51               	btfss	___fladd@signs^0,7,c
  4575  0014E8  EF78  F00A         	goto	u5231
  4576  0014EC  EF7A  F00A         	goto	u5230
  4577  0014F0                     u5231:
  4578  0014F0  EF7B  F00A         	goto	l6064
  4579  0014F4                     u5230:
  4580  0014F4  8E48               	bsf	(___fladd@b+3)^0,7,c
  4581  0014F6                     l6064:
  4582  0014F6  C045  F045         	movff	___fladd@b,?___fladd
  4583  0014FA  C046  F046         	movff	___fladd@b+1,?___fladd+1
  4584  0014FE  C047  F047         	movff	___fladd@b+2,?___fladd+2
  4585  001502  C048  F048         	movff	___fladd@b+3,?___fladd+3
  4586  001506                     l2375:
  4587  001506  0012               	return		;funcret
  4588  001508                     __end_of___fladd:
  4589                           	callstack 0
  4590                           
  4591 ;; *************** function _PCA_Write_Reg *****************
  4592 ;; Defined at:
  4593 ;;		line 68 in file "ECU/SERVO_MOTOR_CONTROL_BY_I2C/ecu_servo_motor_i2c.c"
  4594 ;; Parameters:    Size  Location     Type
  4595 ;;  i2c_obj         2    9[COMRAM] PTR const struct .
  4596 ;;		 -> i2c_obj(7), 
  4597 ;;  slave_addres    1   11[COMRAM] unsigned char 
  4598 ;;  reg_address     1   12[COMRAM] unsigned char 
  4599 ;;  data            1   13[COMRAM] unsigned char 
  4600 ;; Auto vars:     Size  Location     Type
  4601 ;;  ack             1   14[COMRAM] unsigned char 
  4602 ;; Return value:  Size  Location     Type
  4603 ;;                  1    wreg      void 
  4604 ;; Registers used:
  4605 ;;		wreg, fsr2l, fsr2h, status,2, status,0, cstack
  4606 ;; Tracked objects:
  4607 ;;		On entry : 0/0
  4608 ;;		On exit  : 0/0
  4609 ;;		Unchanged: 0/0
  4610 ;; Data sizes:     COMRAM   BANK0   BANK1   BANK2   BANK3   BANK4   BANK5   BANK6   BANK7   BANK8   BANK9  BANK10  BANK1
      +1  BANK12  BANK13  BANK14  BANK15
  4611 ;;      Params:         5       0       0       0       0       0       0       0       0       0       0       0       
      +0       0       0       0       0
  4612 ;;      Locals:         1       0       0       0       0       0       0       0       0       0       0       0       
      +0       0       0       0       0
  4613 ;;      Temps:          0       0       0       0       0       0       0       0       0       0       0       0       
      +0       0       0       0       0
  4614 ;;      Totals:         6       0       0       0       0       0       0       0       0       0       0       0       
      +0       0       0       0       0
  4615 ;;Total ram usage:        6 bytes
  4616 ;; Hardware stack levels used: 1
  4617 ;; Hardware stack levels required when called: 5
  4618 ;; This function calls:
  4619 ;;		_MSSP_I2C_Master_Send_Start
  4620 ;;		_MSSP_I2C_Master_Send_Stop
  4621 ;;		_MSSP_I2C_Master_Write_Blocking
  4622 ;; This function is called by:
  4623 ;;		_ServoDriver_Init
  4624 ;;		_Servo_SetAngle
  4625 ;; This function uses a non-reentrant model
  4626 ;;
  4627                           
  4628                           	psect	text24
  4629  003138                     __ptext24:
  4630                           	callstack 0
  4631  003138                     _PCA_Write_Reg:
  4632                           	callstack 22
  4633  003138                     
  4634                           ;ECU/SERVO_MOTOR_CONTROL_BY_I2C/ecu_servo_motor_i2c.c: 68: static void PCA_Write_Reg(con
      +                          st mssp_i2c_st *i2c_obj,uint8 slave_address,uint8 reg_address,uint8 data);ECU/SERVO_MOTO
      +                          R_CONTROL_BY_I2C/ecu_servo_motor_i2c.c: 69: {;ECU/SERVO_MOTOR_CONTROL_BY_I2C/ecu_servo_m
      +                          otor_i2c.c: 70:     uint8 ack=6;
  4635  003138  0E06               	movlw	6
  4636  00313A  6E0F               	movwf	PCA_Write_Reg@ack^0,c
  4637  00313C                     
  4638                           ;ECU/SERVO_MOTOR_CONTROL_BY_I2C/ecu_servo_motor_i2c.c: 72:     MSSP_I2C_Master_Send_Star
      +                          t(i2c_obj);
  4639  00313C  C00A  F005         	movff	PCA_Write_Reg@i2c_obj,MSSP_I2C_Master_Send_Start@i2c_obj
  4640  003140  C00B  F006         	movff	PCA_Write_Reg@i2c_obj+1,MSSP_I2C_Master_Send_Start@i2c_obj+1
  4641  003144  EC8B  F019         	call	_MSSP_I2C_Master_Send_Start	;wreg free
  4642  003148                     
  4643                           ;ECU/SERVO_MOTOR_CONTROL_BY_I2C/ecu_servo_motor_i2c.c: 74:     MSSP_I2C_Master_Write_Blo
      +                          cking(i2c_obj,slave_address,&ack);
  4644  003148  C00A  F005         	movff	PCA_Write_Reg@i2c_obj,MSSP_I2C_Master_Write_Blocking@i2c_obj
  4645  00314C  C00B  F006         	movff	PCA_Write_Reg@i2c_obj+1,MSSP_I2C_Master_Write_Blocking@i2c_obj+1
  4646  003150  C00C  F007         	movff	PCA_Write_Reg@slave_address,MSSP_I2C_Master_Write_Blocking@i2c_data
  4647  003154  0E0F               	movlw	low PCA_Write_Reg@ack
  4648  003156  6E08               	movwf	MSSP_I2C_Master_Write_Blocking@_ack^0,c
  4649  003158  0E00               	movlw	high PCA_Write_Reg@ack
  4650  00315A  6E09               	movwf	(MSSP_I2C_Master_Write_Blocking@_ack+1)^0,c
  4651  00315C  EC68  F018         	call	_MSSP_I2C_Master_Write_Blocking	;wreg free
  4652  003160                     
  4653                           ;ECU/SERVO_MOTOR_CONTROL_BY_I2C/ecu_servo_motor_i2c.c: 76:     MSSP_I2C_Master_Write_Blo
      +                          cking(i2c_obj,reg_address,&ack);
  4654  003160  C00A  F005         	movff	PCA_Write_Reg@i2c_obj,MSSP_I2C_Master_Write_Blocking@i2c_obj
  4655  003164  C00B  F006         	movff	PCA_Write_Reg@i2c_obj+1,MSSP_I2C_Master_Write_Blocking@i2c_obj+1
  4656  003168  C00D  F007         	movff	PCA_Write_Reg@reg_address,MSSP_I2C_Master_Write_Blocking@i2c_data
  4657  00316C  0E0F               	movlw	low PCA_Write_Reg@ack
  4658  00316E  6E08               	movwf	MSSP_I2C_Master_Write_Blocking@_ack^0,c
  4659  003170  0E00               	movlw	high PCA_Write_Reg@ack
  4660  003172  6E09               	movwf	(MSSP_I2C_Master_Write_Blocking@_ack+1)^0,c
  4661  003174  EC68  F018         	call	_MSSP_I2C_Master_Write_Blocking	;wreg free
  4662  003178                     
  4663                           ;ECU/SERVO_MOTOR_CONTROL_BY_I2C/ecu_servo_motor_i2c.c: 78:     MSSP_I2C_Master_Write_Blo
      +                          cking(i2c_obj,data,&ack);
  4664  003178  C00A  F005         	movff	PCA_Write_Reg@i2c_obj,MSSP_I2C_Master_Write_Blocking@i2c_obj
  4665  00317C  C00B  F006         	movff	PCA_Write_Reg@i2c_obj+1,MSSP_I2C_Master_Write_Blocking@i2c_obj+1
  4666  003180  C00E  F007         	movff	PCA_Write_Reg@data,MSSP_I2C_Master_Write_Blocking@i2c_data
  4667  003184  0E0F               	movlw	low PCA_Write_Reg@ack
  4668  003186  6E08               	movwf	MSSP_I2C_Master_Write_Blocking@_ack^0,c
  4669  003188  0E00               	movlw	high PCA_Write_Reg@ack
  4670  00318A  6E09               	movwf	(MSSP_I2C_Master_Write_Blocking@_ack+1)^0,c
  4671  00318C  EC68  F018         	call	_MSSP_I2C_Master_Write_Blocking	;wreg free
  4672  003190                     
  4673                           ;ECU/SERVO_MOTOR_CONTROL_BY_I2C/ecu_servo_motor_i2c.c: 80:     MSSP_I2C_Master_Send_Stop
      +                          (i2c_obj);
  4674  003190  C00A  F005         	movff	PCA_Write_Reg@i2c_obj,MSSP_I2C_Master_Send_Stop@i2c_obj
  4675  003194  C00B  F006         	movff	PCA_Write_Reg@i2c_obj+1,MSSP_I2C_Master_Send_Stop@i2c_obj+1
  4676  003198  EC6F  F019         	call	_MSSP_I2C_Master_Send_Stop	;wreg free
  4677  00319C  0012               	return		;funcret
  4678  00319E                     __end_of_PCA_Write_Reg:
  4679                           	callstack 0
  4680                           
  4681 ;; *************** function _MSSP_I2C_Master_Write_Blocking *****************
  4682 ;; Defined at:
  4683 ;;		line 196 in file "MCAL/I2C/mcal_i2c.c"
  4684 ;; Parameters:    Size  Location     Type
  4685 ;;  i2c_obj         2    4[COMRAM] PTR const struct .
  4686 ;;		 -> i2c_obj(7), 
  4687 ;;  i2c_data        1    6[COMRAM] unsigned char 
  4688 ;;  _ack            2    7[COMRAM] PTR unsigned char 
  4689 ;;		 -> PCA_Write_Reg@ack(1), 
  4690 ;; Auto vars:     Size  Location     Type
  4691 ;;  ERRORSTATUS     1    0        unsigned char 
  4692 ;; Return value:  Size  Location     Type
  4693 ;;                  1    wreg      unsigned char 
  4694 ;; Registers used:
  4695 ;;		wreg, fsr2l, fsr2h, status,2, status,0
  4696 ;; Tracked objects:
  4697 ;;		On entry : 0/0
  4698 ;;		On exit  : 0/0
  4699 ;;		Unchanged: 0/0
  4700 ;; Data sizes:     COMRAM   BANK0   BANK1   BANK2   BANK3   BANK4   BANK5   BANK6   BANK7   BANK8   BANK9  BANK10  BANK1
      +1  BANK12  BANK13  BANK14  BANK15
  4701 ;;      Params:         5       0       0       0       0       0       0       0       0       0       0       0       
      +0       0       0       0       0
  4702 ;;      Locals:         0       0       0       0       0       0       0       0       0       0       0       0       
      +0       0       0       0       0
  4703 ;;      Temps:          0       0       0       0       0       0       0       0       0       0       0       0       
      +0       0       0       0       0
  4704 ;;      Totals:         5       0       0       0       0       0       0       0       0       0       0       0       
      +0       0       0       0       0
  4705 ;;Total ram usage:        5 bytes
  4706 ;; Hardware stack levels used: 1
  4707 ;; Hardware stack levels required when called: 4
  4708 ;; This function calls:
  4709 ;;		Nothing
  4710 ;; This function is called by:
  4711 ;;		_PCA_Write_Reg
  4712 ;; This function uses a non-reentrant model
  4713 ;;
  4714                           
  4715                           	psect	text25
  4716  0030D0                     __ptext25:
  4717                           	callstack 0
  4718  0030D0                     _MSSP_I2C_Master_Write_Blocking:
  4719                           	callstack 22
  4720  0030D0                     
  4721                           ;MCAL/I2C/mcal_i2c.c: 199:     if (((void*)0)==i2c_obj||((void*)0)==_ack)
  4722  0030D0  5005               	movf	MSSP_I2C_Master_Write_Blocking@i2c_obj^0,w,c
  4723  0030D2  1006               	iorwf	(MSSP_I2C_Master_Write_Blocking@i2c_obj+1)^0,w,c
  4724  0030D4  B4D8               	btfsc	status,2,c
  4725  0030D6  EF6F  F018         	goto	u5711
  4726  0030DA  EF71  F018         	goto	u5710
  4727  0030DE                     u5711:
  4728  0030DE  EF7A  F018         	goto	l6338
  4729  0030E2                     u5710:
  4730  0030E2  5008               	movf	MSSP_I2C_Master_Write_Blocking@_ack^0,w,c
  4731  0030E4  1009               	iorwf	(MSSP_I2C_Master_Write_Blocking@_ack+1)^0,w,c
  4732  0030E6  A4D8               	btfss	status,2,c
  4733  0030E8  EF78  F018         	goto	u5721
  4734  0030EC  EF7A  F018         	goto	u5720
  4735  0030F0                     u5721:
  4736  0030F0  EF7C  F018         	goto	l1024
  4737  0030F4                     u5720:
  4738  0030F4                     l6338:
  4739                           
  4740                           ;MCAL/I2C/mcal_i2c.c: 202:     }
  4741  0030F4  EF9B  F018         	goto	l1033
  4742  0030F8                     l1024:
  4743                           
  4744                           ;MCAL/I2C/mcal_i2c.c: 204:     {;MCAL/I2C/mcal_i2c.c: 206:         SSPBUF=i2c_data;
  4745  0030F8  C007  FFC9         	movff	MSSP_I2C_Master_Write_Blocking@i2c_data,4041	;volatile
  4746  0030FC                     l1028:
  4747  0030FC  B0C7               	btfsc	199,0,c	;volatile
  4748  0030FE  EF83  F018         	goto	u5731
  4749  003102  EF85  F018         	goto	u5730
  4750  003106                     u5731:
  4751  003106  EF7E  F018         	goto	l1028
  4752  00310A                     u5730:
  4753  00310A                     
  4754                           ;MCAL/I2C/mcal_i2c.c: 210:         PIR1bits.SSPIF = 0;
  4755  00310A  969E               	bcf	158,3,c	;volatile
  4756                           
  4757                           ;MCAL/I2C/mcal_i2c.c: 212:         if(0 == SSPCON2bits.ACKSTAT)
  4758  00310C  BCC5               	btfsc	197,6,c	;volatile
  4759  00310E  EF8B  F018         	goto	u5741
  4760  003112  EF8D  F018         	goto	u5740
  4761  003116                     u5741:
  4762  003116  EF95  F018         	goto	l6342
  4763  00311A                     u5740:
  4764  00311A                     
  4765                           ;MCAL/I2C/mcal_i2c.c: 213:         {;MCAL/I2C/mcal_i2c.c: 214:             *_ack = 0;
  4766  00311A  C008  FFD9         	movff	MSSP_I2C_Master_Write_Blocking@_ack,fsr2l
  4767  00311E  C009  FFDA         	movff	MSSP_I2C_Master_Write_Blocking@_ack+1,fsr2h
  4768  003122  0E00               	movlw	0
  4769  003124  6EDF               	movwf	indf2,c
  4770                           
  4771                           ;MCAL/I2C/mcal_i2c.c: 215:         }
  4772  003126  EF9B  F018         	goto	l1033
  4773  00312A                     l6342:
  4774                           
  4775                           ;MCAL/I2C/mcal_i2c.c: 217:         {;MCAL/I2C/mcal_i2c.c: 218:             *_ack = 1;
  4776  00312A  C008  FFD9         	movff	MSSP_I2C_Master_Write_Blocking@_ack,fsr2l
  4777  00312E  C009  FFDA         	movff	MSSP_I2C_Master_Write_Blocking@_ack+1,fsr2h
  4778  003132  0E01               	movlw	1
  4779  003134  6EDF               	movwf	indf2,c
  4780  003136                     l1033:
  4781  003136  0012               	return		;funcret
  4782  003138                     __end_of_MSSP_I2C_Master_Write_Blocking:
  4783                           	callstack 0
  4784                           
  4785 ;; *************** function _MSSP_I2C_Master_Send_Stop *****************
  4786 ;; Defined at:
  4787 ;;		line 166 in file "MCAL/I2C/mcal_i2c.c"
  4788 ;; Parameters:    Size  Location     Type
  4789 ;;  i2c_obj         2    4[COMRAM] PTR const struct .
  4790 ;;		 -> i2c_obj(7), 
  4791 ;; Auto vars:     Size  Location     Type
  4792 ;;  ERRORSTATUS     1    0        unsigned char 
  4793 ;; Return value:  Size  Location     Type
  4794 ;;                  1    wreg      unsigned char 
  4795 ;; Registers used:
  4796 ;;		wreg, status,2, status,0
  4797 ;; Tracked objects:
  4798 ;;		On entry : 0/0
  4799 ;;		On exit  : 0/0
  4800 ;;		Unchanged: 0/0
  4801 ;; Data sizes:     COMRAM   BANK0   BANK1   BANK2   BANK3   BANK4   BANK5   BANK6   BANK7   BANK8   BANK9  BANK10  BANK1
      +1  BANK12  BANK13  BANK14  BANK15
  4802 ;;      Params:         2       0       0       0       0       0       0       0       0       0       0       0       
      +0       0       0       0       0
  4803 ;;      Locals:         0       0       0       0       0       0       0       0       0       0       0       0       
      +0       0       0       0       0
  4804 ;;      Temps:          0       0       0       0       0       0       0       0       0       0       0       0       
      +0       0       0       0       0
  4805 ;;      Totals:         2       0       0       0       0       0       0       0       0       0       0       0       
      +0       0       0       0       0
  4806 ;;Total ram usage:        2 bytes
  4807 ;; Hardware stack levels used: 1
  4808 ;; Hardware stack levels required when called: 4
  4809 ;; This function calls:
  4810 ;;		Nothing
  4811 ;; This function is called by:
  4812 ;;		_PCA_Write_Reg
  4813 ;; This function uses a non-reentrant model
  4814 ;;
  4815                           
  4816                           	psect	text26
  4817  0032DE                     __ptext26:
  4818                           	callstack 0
  4819  0032DE                     _MSSP_I2C_Master_Send_Stop:
  4820                           	callstack 22
  4821  0032DE                     
  4822                           ;MCAL/I2C/mcal_i2c.c: 169:     if (((void*)0)==i2c_obj)
  4823  0032DE  5005               	movf	MSSP_I2C_Master_Send_Stop@i2c_obj^0,w,c
  4824  0032E0  1006               	iorwf	(MSSP_I2C_Master_Send_Stop@i2c_obj+1)^0,w,c
  4825  0032E2  A4D8               	btfss	status,2,c
  4826  0032E4  EF76  F019         	goto	u5751
  4827  0032E8  EF78  F019         	goto	u5750
  4828  0032EC                     u5751:
  4829  0032EC  EF7A  F019         	goto	l1014
  4830  0032F0                     u5750:
  4831  0032F0                     l6350:
  4832                           
  4833                           ;MCAL/I2C/mcal_i2c.c: 172:     }
  4834  0032F0  EF8A  F019         	goto	l1021
  4835  0032F4                     l1014:
  4836                           
  4837                           ;MCAL/I2C/mcal_i2c.c: 174:     {;MCAL/I2C/mcal_i2c.c: 176:         SSPCON2bits.PEN = 1;
  4838  0032F4  84C5               	bsf	197,2,c	;volatile
  4839  0032F6                     l1016:
  4840  0032F6  B4C5               	btfsc	197,2,c	;volatile
  4841  0032F8  EF80  F019         	goto	u5761
  4842  0032FC  EF82  F019         	goto	u5760
  4843  003300                     u5761:
  4844  003300  EF7B  F019         	goto	l1016
  4845  003304                     u5760:
  4846  003304                     
  4847                           ;MCAL/I2C/mcal_i2c.c: 180:         PIR1bits.SSPIF = 0;
  4848  003304  969E               	bcf	158,3,c	;volatile
  4849                           
  4850                           ;MCAL/I2C/mcal_i2c.c: 182:         if(1 == SSPSTATbits.P)
  4851  003306  A8C7               	btfss	199,4,c	;volatile
  4852  003308  EF88  F019         	goto	u5771
  4853  00330C  EF8A  F019         	goto	u5770
  4854  003310                     u5771:
  4855  003310  EF78  F019         	goto	l6350
  4856  003314                     u5770:
  4857  003314                     l1021:
  4858  003314  0012               	return		;funcret
  4859  003316                     __end_of_MSSP_I2C_Master_Send_Stop:
  4860                           	callstack 0
  4861                           
  4862 ;; *************** function _MSSP_I2C_Master_Send_Start *****************
  4863 ;; Defined at:
  4864 ;;		line 116 in file "MCAL/I2C/mcal_i2c.c"
  4865 ;; Parameters:    Size  Location     Type
  4866 ;;  i2c_obj         2    4[COMRAM] PTR const struct .
  4867 ;;		 -> i2c_obj(7), 
  4868 ;; Auto vars:     Size  Location     Type
  4869 ;;  ERRORSTATUS     1    0        unsigned char 
  4870 ;; Return value:  Size  Location     Type
  4871 ;;                  1    wreg      unsigned char 
  4872 ;; Registers used:
  4873 ;;		wreg, status,2, status,0
  4874 ;; Tracked objects:
  4875 ;;		On entry : 0/0
  4876 ;;		On exit  : 0/0
  4877 ;;		Unchanged: 0/0
  4878 ;; Data sizes:     COMRAM   BANK0   BANK1   BANK2   BANK3   BANK4   BANK5   BANK6   BANK7   BANK8   BANK9  BANK10  BANK1
      +1  BANK12  BANK13  BANK14  BANK15
  4879 ;;      Params:         2       0       0       0       0       0       0       0       0       0       0       0       
      +0       0       0       0       0
  4880 ;;      Locals:         0       0       0       0       0       0       0       0       0       0       0       0       
      +0       0       0       0       0
  4881 ;;      Temps:          0       0       0       0       0       0       0       0       0       0       0       0       
      +0       0       0       0       0
  4882 ;;      Totals:         2       0       0       0       0       0       0       0       0       0       0       0       
      +0       0       0       0       0
  4883 ;;Total ram usage:        2 bytes
  4884 ;; Hardware stack levels used: 1
  4885 ;; Hardware stack levels required when called: 4
  4886 ;; This function calls:
  4887 ;;		Nothing
  4888 ;; This function is called by:
  4889 ;;		_PCA_Write_Reg
  4890 ;; This function uses a non-reentrant model
  4891 ;;
  4892                           
  4893                           	psect	text27
  4894  003316                     __ptext27:
  4895                           	callstack 0
  4896  003316                     _MSSP_I2C_Master_Send_Start:
  4897                           	callstack 22
  4898  003316                     
  4899                           ;MCAL/I2C/mcal_i2c.c: 119:     if (((void*)0)==i2c_obj)
  4900  003316  5005               	movf	MSSP_I2C_Master_Send_Start@i2c_obj^0,w,c
  4901  003318  1006               	iorwf	(MSSP_I2C_Master_Send_Start@i2c_obj+1)^0,w,c
  4902  00331A  A4D8               	btfss	status,2,c
  4903  00331C  EF92  F019         	goto	u5681
  4904  003320  EF94  F019         	goto	u5680
  4905  003324                     u5681:
  4906  003324  EF96  F019         	goto	l996
  4907  003328                     u5680:
  4908  003328                     l6324:
  4909                           
  4910                           ;MCAL/I2C/mcal_i2c.c: 122:     }
  4911  003328  EFA6  F019         	goto	l1003
  4912  00332C                     l996:
  4913                           
  4914                           ;MCAL/I2C/mcal_i2c.c: 124:     {;MCAL/I2C/mcal_i2c.c: 126:         SSPCON2bits.SEN = 1;
  4915  00332C  80C5               	bsf	197,0,c	;volatile
  4916  00332E                     l998:
  4917  00332E  B0C5               	btfsc	197,0,c	;volatile
  4918  003330  EF9C  F019         	goto	u5691
  4919  003334  EF9E  F019         	goto	u5690
  4920  003338                     u5691:
  4921  003338  EF97  F019         	goto	l998
  4922  00333C                     u5690:
  4923  00333C                     
  4924                           ;MCAL/I2C/mcal_i2c.c: 130:         PIR1bits.SSPIF = 0;
  4925  00333C  969E               	bcf	158,3,c	;volatile
  4926                           
  4927                           ;MCAL/I2C/mcal_i2c.c: 132:         if(1 == SSPSTATbits.S)
  4928  00333E  A6C7               	btfss	199,3,c	;volatile
  4929  003340  EFA4  F019         	goto	u5701
  4930  003344  EFA6  F019         	goto	u5700
  4931  003348                     u5701:
  4932  003348  EF94  F019         	goto	l6324
  4933  00334C                     u5700:
  4934  00334C                     l1003:
  4935  00334C  0012               	return		;funcret
  4936  00334E                     __end_of_MSSP_I2C_Master_Send_Start:
  4937                           	callstack 0
  4938                           
  4939 ;; *************** function _Robot_Steer_Stop *****************
  4940 ;; Defined at:
  4941 ;;		line 122 in file "Robot/Navigation/robot_navigation.c"
  4942 ;; Parameters:    Size  Location     Type
  4943 ;;		None
  4944 ;; Auto vars:     Size  Location     Type
  4945 ;;  ret_val         1    0        unsigned char 
  4946 ;; Return value:  Size  Location     Type
  4947 ;;                  1    wreg      unsigned char 
  4948 ;; Registers used:
  4949 ;;		wreg, fsr2l, fsr2h, status,2, status,0, prodl, prodh, cstack
  4950 ;; Tracked objects:
  4951 ;;		On entry : 0/0
  4952 ;;		On exit  : 0/0
  4953 ;;		Unchanged: 0/0
  4954 ;; Data sizes:     COMRAM   BANK0   BANK1   BANK2   BANK3   BANK4   BANK5   BANK6   BANK7   BANK8   BANK9  BANK10  BANK1
      +1  BANK12  BANK13  BANK14  BANK15
  4955 ;;      Params:         0       0       0       0       0       0       0       0       0       0       0       0       
      +0       0       0       0       0
  4956 ;;      Locals:         0       0       0       0       0       0       0       0       0       0       0       0       
      +0       0       0       0       0
  4957 ;;      Temps:          0       0       0       0       0       0       0       0       0       0       0       0       
      +0       0       0       0       0
  4958 ;;      Totals:         0       0       0       0       0       0       0       0       0       0       0       0       
      +0       0       0       0       0
  4959 ;;Total ram usage:        0 bytes
  4960 ;; Hardware stack levels used: 1
  4961 ;; Hardware stack levels required when called: 6
  4962 ;; This function calls:
  4963 ;;		_CCP_PWM_Set_Duty
  4964 ;; This function is called by:
  4965 ;;		_Robot_Move_Forward
  4966 ;;		_Robot_Move_Backward
  4967 ;;		_main
  4968 ;;		_Robot_Steer_Right_Forward
  4969 ;;		_Robot_Steer_Left_Forward
  4970 ;; This function uses a non-reentrant model
  4971 ;;
  4972                           
  4973                           	psect	text28
  4974  0033D0                     __ptext28:
  4975                           	callstack 0
  4976  0033D0                     _Robot_Steer_Stop:
  4977                           	callstack 24
  4978  0033D0                     
  4979                           ;Robot/Navigation/robot_navigation.c: 125:             CCP_PWM_Set_Duty(&CCP1_Obj , 0);
  4980  0033D0  0E8A               	movlw	low _CCP1_Obj
  4981  0033D2  0100               	movlb	0	; () banked
  4982  0033D4  6FE8               	movwf	CCP_PWM_Set_Duty@_ccp_obj& (0+255),b
  4983  0033D6  0E00               	movlw	high _CCP1_Obj
  4984  0033D8  6FE9               	movwf	(CCP_PWM_Set_Duty@_ccp_obj+1)& (0+255),b
  4985  0033DA  0E00               	movlw	0
  4986  0033DC  6FEA               	movwf	CCP_PWM_Set_Duty@_duty& (0+255),b
  4987  0033DE  EC04  F010         	call	_CCP_PWM_Set_Duty	;wreg free
  4988  0033E2                     
  4989                           ;Robot/Navigation/robot_navigation.c: 126:             CCP_PWM_Set_Duty(&CCP2_Obj , 0);
  4990  0033E2  0E7E               	movlw	low _CCP2_Obj
  4991  0033E4  0100               	movlb	0	; () banked
  4992  0033E6  6FE8               	movwf	CCP_PWM_Set_Duty@_ccp_obj& (0+255),b
  4993  0033E8  0E00               	movlw	high _CCP2_Obj
  4994  0033EA  6FE9               	movwf	(CCP_PWM_Set_Duty@_ccp_obj+1)& (0+255),b
  4995  0033EC  0E00               	movlw	0
  4996  0033EE  6FEA               	movwf	CCP_PWM_Set_Duty@_duty& (0+255),b
  4997  0033F0  EC04  F010         	call	_CCP_PWM_Set_Duty	;wreg free
  4998  0033F4  0012               	return		;funcret
  4999  0033F6                     __end_of_Robot_Steer_Stop:
  5000                           	callstack 0
  5001                           
  5002 ;; *************** function _CCP_PWM_Set_Duty *****************
  5003 ;; Defined at:
  5004 ;;		line 176 in file "MCAL/CCP/hal_ccp.c"
  5005 ;; Parameters:    Size  Location     Type
  5006 ;;  _ccp_obj        2    8[BANK0 ] PTR const struct .
  5007 ;;		 -> CCP2_Obj(12), CCP1_Obj(12), 
  5008 ;;  _duty           1   10[BANK0 ] const unsigned char 
  5009 ;; Auto vars:     Size  Location     Type
  5010 ;;  l_duty_temp     2   17[BANK0 ] unsigned short 
  5011 ;;  ret             1    0        unsigned char 
  5012 ;; Return value:  Size  Location     Type
  5013 ;;                  1    wreg      unsigned char 
  5014 ;; Registers used:
  5015 ;;		wreg, fsr2l, fsr2h, status,2, status,0, prodl, prodh, cstack
  5016 ;; Tracked objects:
  5017 ;;		On entry : 0/0
  5018 ;;		On exit  : 0/0
  5019 ;;		Unchanged: 0/0
  5020 ;; Data sizes:     COMRAM   BANK0   BANK1   BANK2   BANK3   BANK4   BANK5   BANK6   BANK7   BANK8   BANK9  BANK10  BANK1
      +1  BANK12  BANK13  BANK14  BANK15
  5021 ;;      Params:         0       3       0       0       0       0       0       0       0       0       0       0       
      +0       0       0       0       0
  5022 ;;      Locals:         0       6       0       0       0       0       0       0       0       0       0       0       
      +0       0       0       0       0
  5023 ;;      Temps:          0       2       0       0       0       0       0       0       0       0       0       0       
      +0       0       0       0       0
  5024 ;;      Totals:         0      11       0       0       0       0       0       0       0       0       0       0       
      +0       0       0       0       0
  5025 ;;Total ram usage:       11 bytes
  5026 ;; Hardware stack levels used: 1
  5027 ;; Hardware stack levels required when called: 5
  5028 ;; This function calls:
  5029 ;;		___fldiv
  5030 ;;		___flmul
  5031 ;;		___fltol
  5032 ;;		___xxtofl
  5033 ;; This function is called by:
  5034 ;;		_Robot_Nav_Init
  5035 ;;		_Robot_Move_Forward
  5036 ;;		_Robot_Move_Backward
  5037 ;;		_Robot_Steer_Stop
  5038 ;;		_main
  5039 ;;		_Robot_Steer_Right_Forward
  5040 ;;		_Robot_Steer_Left_Forward
  5041 ;; This function uses a non-reentrant model
  5042 ;;
  5043                           
  5044                           	psect	text29
  5045  002008                     __ptext29:
  5046                           	callstack 0
  5047  002008                     _CCP_PWM_Set_Duty:
  5048                           	callstack 23
  5049  002008                     
  5050                           ;MCAL/CCP/hal_ccp.c: 178:     uint16 l_duty_temp = 0;
  5051  002008  0E00               	movlw	0
  5052  00200A  0100               	movlb	0	; () banked
  5053  00200C  6FF2               	movwf	(CCP_PWM_Set_Duty@l_duty_temp+1)& (0+255),b
  5054  00200E  0E00               	movlw	0
  5055  002010  6FF1               	movwf	CCP_PWM_Set_Duty@l_duty_temp& (0+255),b
  5056  002012                     
  5057                           ; BSR set to: 0
  5058                           ;MCAL/CCP/hal_ccp.c: 180:     if(((void*)0) == _ccp_obj){
  5059  002012  51E8               	movf	CCP_PWM_Set_Duty@_ccp_obj& (0+255),w,b
  5060  002014  11E9               	iorwf	(CCP_PWM_Set_Duty@_ccp_obj+1)& (0+255),w,b
  5061  002016  A4D8               	btfss	status,2,c
  5062  002018  EF10  F010         	goto	u8341
  5063  00201C  EF12  F010         	goto	u8340
  5064  002020                     u8341:
  5065  002020  EF14  F010         	goto	l8510
  5066  002024                     u8340:
  5067  002024                     
  5068                           ; BSR set to: 0
  5069                           ;MCAL/CCP/hal_ccp.c: 182:     }
  5070  002024  EFC4  F010         	goto	l520
  5071  002028                     l8510:
  5072                           
  5073                           ; BSR set to: 0
  5074                           ;MCAL/CCP/hal_ccp.c: 184:         l_duty_temp = (uint16)((PR2+1)*(_duty/100.0)*4);
  5075  002028  0E00               	movlw	0
  5076  00202A  6E17               	movwf	___fldiv@a^0,c
  5077  00202C  0E00               	movlw	0
  5078  00202E  6E18               	movwf	(___fldiv@a+1)^0,c
  5079  002030  0EC8               	movlw	200
  5080  002032  6E19               	movwf	(___fldiv@a+2)^0,c
  5081  002034  0E42               	movlw	66
  5082  002036  6E1A               	movwf	(___fldiv@a+3)^0,c
  5083  002038  51EA               	movf	CCP_PWM_Set_Duty@_duty& (0+255),w,b
  5084  00203A  6E05               	movwf	___xxtofl@val^0,c
  5085  00203C  6A06               	clrf	(___xxtofl@val+1)^0,c
  5086  00203E  6A07               	clrf	(___xxtofl@val+2)^0,c
  5087  002040  6A08               	clrf	(___xxtofl@val+3)^0,c
  5088  002042  0E01               	movlw	1
  5089  002044  EC66  F00E         	call	___xxtofl
  5090  002048  C005  F013         	movff	?___xxtofl,___fldiv@b
  5091  00204C  C006  F014         	movff	?___xxtofl+1,___fldiv@b+1
  5092  002050  C007  F015         	movff	?___xxtofl+2,___fldiv@b+2
  5093  002054  C008  F016         	movff	?___xxtofl+3,___fldiv@b+3
  5094  002058  EC99  F00C         	call	___fldiv	;wreg free
  5095  00205C  C013  F030         	movff	?___fldiv,___flmul@a
  5096  002060  C014  F031         	movff	?___fldiv+1,___flmul@a+1
  5097  002064  C015  F032         	movff	?___fldiv+2,___flmul@a+2
  5098  002068  C016  F033         	movff	?___fldiv+3,___flmul@a+3
  5099  00206C  50CB               	movf	203,w,c	;volatile
  5100  00206E  0100               	movlb	0	; () banked
  5101  002070  6FEB               	movwf	??_CCP_PWM_Set_Duty& (0+255),b
  5102  002072  6BEC               	clrf	(??_CCP_PWM_Set_Duty+1)& (0+255),b
  5103  002074  0E01               	movlw	1
  5104  002076  27EB               	addwf	??_CCP_PWM_Set_Duty& (0+255),f,b
  5105  002078  0E00               	movlw	0
  5106  00207A  23EC               	addwfc	(??_CCP_PWM_Set_Duty+1)& (0+255),f,b
  5107  00207C  C0EB  F005         	movff	??_CCP_PWM_Set_Duty,___xxtofl@val
  5108  002080  C0EC  F006         	movff	??_CCP_PWM_Set_Duty+1,___xxtofl@val+1
  5109  002084  0E00               	movlw	0
  5110  002086  BE06               	btfsc	(___xxtofl@val+1)^0,7,c
  5111  002088  0EFF               	movlw	-1
  5112  00208A  6E07               	movwf	(___xxtofl@val+2)^0,c
  5113  00208C  6E08               	movwf	(___xxtofl@val+3)^0,c
  5114  00208E  0E01               	movlw	1
  5115  002090  EC66  F00E         	call	___xxtofl
  5116  002094  C005  F02C         	movff	?___xxtofl,___flmul@b
  5117  002098  C006  F02D         	movff	?___xxtofl+1,___flmul@b+1
  5118  00209C  C007  F02E         	movff	?___xxtofl+2,___flmul@b+2
  5119  0020A0  C008  F02F         	movff	?___xxtofl+3,___flmul@b+3
  5120  0020A4  EC84  F00A         	call	___flmul	;wreg free
  5121  0020A8  C02C  F0ED         	movff	?___flmul,_CCP_PWM_Set_Duty$5542
  5122  0020AC  C02D  F0EE         	movff	?___flmul+1,_CCP_PWM_Set_Duty$5542+1
  5123  0020B0  C02E  F0EF         	movff	?___flmul+2,_CCP_PWM_Set_Duty$5542+2
  5124  0020B4  C02F  F0F0         	movff	?___flmul+3,_CCP_PWM_Set_Duty$5542+3
  5125                           
  5126                           ;MCAL/CCP/hal_ccp.c: 184:         l_duty_temp = (uint16)((PR2+1)*(_duty/100.0)*4);
  5127  0020B8  0E00               	movlw	0
  5128  0020BA  6E30               	movwf	___flmul@a^0,c
  5129  0020BC  0E00               	movlw	0
  5130  0020BE  6E31               	movwf	(___flmul@a+1)^0,c
  5131  0020C0  0E80               	movlw	128
  5132  0020C2  6E32               	movwf	(___flmul@a+2)^0,c
  5133  0020C4  0E40               	movlw	64
  5134  0020C6  6E33               	movwf	(___flmul@a+3)^0,c
  5135  0020C8  C0ED  F02C         	movff	_CCP_PWM_Set_Duty$5542,___flmul@b
  5136  0020CC  C0EE  F02D         	movff	_CCP_PWM_Set_Duty$5542+1,___flmul@b+1
  5137  0020D0  C0EF  F02E         	movff	_CCP_PWM_Set_Duty$5542+2,___flmul@b+2
  5138  0020D4  C0F0  F02F         	movff	_CCP_PWM_Set_Duty$5542+3,___flmul@b+3
  5139  0020D8  EC84  F00A         	call	___flmul	;wreg free
  5140  0020DC  C02C  F0E0         	movff	?___flmul,___fltol@f1
  5141  0020E0  C02D  F0E1         	movff	?___flmul+1,___fltol@f1+1
  5142  0020E4  C02E  F0E2         	movff	?___flmul+2,___fltol@f1+2
  5143  0020E8  C02F  F0E3         	movff	?___flmul+3,___fltol@f1+3
  5144  0020EC  ECEC  F013         	call	___fltol	;wreg free
  5145  0020F0  C0E0  F0F1         	movff	?___fltol,CCP_PWM_Set_Duty@l_duty_temp
  5146  0020F4  C0E1  F0F2         	movff	?___fltol+1,CCP_PWM_Set_Duty@l_duty_temp+1
  5147  0020F8                     
  5148                           ;MCAL/CCP/hal_ccp.c: 186:         if(CCP1_INST == _ccp_obj->ccp_inst){
  5149  0020F8  C0E8  FFD9         	movff	CCP_PWM_Set_Duty@_ccp_obj,fsr2l
  5150  0020FC  C0E9  FFDA         	movff	CCP_PWM_Set_Duty@_ccp_obj+1,fsr2h
  5151  002100  50DF               	movf	indf2,w,c
  5152  002102  A4D8               	btfss	status,2,c
  5153  002104  EF86  F010         	goto	u8351
  5154  002108  EF88  F010         	goto	u8350
  5155  00210C                     u8351:
  5156  00210C  EFA1  F010         	goto	l8516
  5157  002110                     u8350:
  5158  002110                     
  5159                           ;MCAL/CCP/hal_ccp.c: 187:             CCP1CONbits.DC1B = (uint8)(l_duty_temp & 0x0003);
  5160  002110  C0F1  F0EB         	movff	CCP_PWM_Set_Duty@l_duty_temp,??_CCP_PWM_Set_Duty
  5161  002114  0E03               	movlw	3
  5162  002116  0100               	movlb	0	; () banked
  5163  002118  17EB               	andwf	??_CCP_PWM_Set_Duty& (0+255),f,b
  5164  00211A  3BEB               	swapf	??_CCP_PWM_Set_Duty& (0+255),f,b
  5165  00211C  50BD               	movf	189,w,c	;volatile
  5166  00211E  19EB               	xorwf	??_CCP_PWM_Set_Duty& (0+255),w,b
  5167  002120  0BCF               	andlw	-49
  5168  002122  19EB               	xorwf	??_CCP_PWM_Set_Duty& (0+255),w,b
  5169  002124  6EBD               	movwf	189,c	;volatile
  5170                           
  5171                           ;MCAL/CCP/hal_ccp.c: 188:             CCPR1L = (uint8)(l_duty_temp >> 2);
  5172  002126  C0F1  F0EB         	movff	CCP_PWM_Set_Duty@l_duty_temp,??_CCP_PWM_Set_Duty
  5173  00212A  C0F2  F0EC         	movff	CCP_PWM_Set_Duty@l_duty_temp+1,??_CCP_PWM_Set_Duty+1
  5174  00212E  90D8               	bcf	status,0,c
  5175  002130  33EC               	rrcf	(??_CCP_PWM_Set_Duty+1)& (0+255),f,b
  5176  002132  33EB               	rrcf	??_CCP_PWM_Set_Duty& (0+255),f,b
  5177  002134  90D8               	bcf	status,0,c
  5178  002136  33EC               	rrcf	(??_CCP_PWM_Set_Duty+1)& (0+255),f,b
  5179  002138  33EB               	rrcf	??_CCP_PWM_Set_Duty& (0+255),f,b
  5180  00213A  51EB               	movf	??_CCP_PWM_Set_Duty& (0+255),w,b
  5181  00213C  6EBE               	movwf	190,c	;volatile
  5182                           
  5183                           ;MCAL/CCP/hal_ccp.c: 189:         }
  5184  00213E  EFC4  F010         	goto	l8520
  5185  002142                     l8516:
  5186  002142  C0E8  FFD9         	movff	CCP_PWM_Set_Duty@_ccp_obj,fsr2l
  5187  002146  C0E9  FFDA         	movff	CCP_PWM_Set_Duty@_ccp_obj+1,fsr2h
  5188  00214A  04DE               	decf	postinc2,w,c
  5189  00214C  A4D8               	btfss	status,2,c
  5190  00214E  EFAB  F010         	goto	u8361
  5191  002152  EFAD  F010         	goto	u8360
  5192  002156                     u8361:
  5193  002156  EFC4  F010         	goto	l8520
  5194  00215A                     u8360:
  5195  00215A                     
  5196                           ;MCAL/CCP/hal_ccp.c: 191:             CCP2CONbits.DC2B = (uint8)(l_duty_temp & 0x0003);
  5197  00215A  C0F1  F0EB         	movff	CCP_PWM_Set_Duty@l_duty_temp,??_CCP_PWM_Set_Duty
  5198  00215E  0E03               	movlw	3
  5199  002160  0100               	movlb	0	; () banked
  5200  002162  17EB               	andwf	??_CCP_PWM_Set_Duty& (0+255),f,b
  5201  002164  3BEB               	swapf	??_CCP_PWM_Set_Duty& (0+255),f,b
  5202  002166  50BA               	movf	186,w,c	;volatile
  5203  002168  19EB               	xorwf	??_CCP_PWM_Set_Duty& (0+255),w,b
  5204  00216A  0BCF               	andlw	-49
  5205  00216C  19EB               	xorwf	??_CCP_PWM_Set_Duty& (0+255),w,b
  5206  00216E  6EBA               	movwf	186,c	;volatile
  5207                           
  5208                           ;MCAL/CCP/hal_ccp.c: 192:             CCPR2L = (uint8)(l_duty_temp >> 2);
  5209  002170  C0F1  F0EB         	movff	CCP_PWM_Set_Duty@l_duty_temp,??_CCP_PWM_Set_Duty
  5210  002174  C0F2  F0EC         	movff	CCP_PWM_Set_Duty@l_duty_temp+1,??_CCP_PWM_Set_Duty+1
  5211  002178  90D8               	bcf	status,0,c
  5212  00217A  33EC               	rrcf	(??_CCP_PWM_Set_Duty+1)& (0+255),f,b
  5213  00217C  33EB               	rrcf	??_CCP_PWM_Set_Duty& (0+255),f,b
  5214  00217E  90D8               	bcf	status,0,c
  5215  002180  33EC               	rrcf	(??_CCP_PWM_Set_Duty+1)& (0+255),f,b
  5216  002182  33EB               	rrcf	??_CCP_PWM_Set_Duty& (0+255),f,b
  5217  002184  51EB               	movf	??_CCP_PWM_Set_Duty& (0+255),w,b
  5218  002186  6EBB               	movwf	187,c	;volatile
  5219  002188                     l8520:
  5220  002188                     l520:
  5221  002188  0012               	return		;funcret
  5222  00218A                     __end_of_CCP_PWM_Set_Duty:
  5223                           	callstack 0
  5224                           
  5225 ;; *************** function ___xxtofl *****************
  5226 ;; Defined at:
  5227 ;;		line 10 in file "C:\Program Files\Microchip\xc8\v2.36\pic\sources\c99\common\xxtofl.c"
  5228 ;; Parameters:    Size  Location     Type
  5229 ;;  sign            1    wreg     unsigned char 
  5230 ;;  val             4    4[COMRAM] long 
  5231 ;; Auto vars:     Size  Location     Type
  5232 ;;  sign            1   12[COMRAM] unsigned char 
  5233 ;;  arg             4   14[COMRAM] unsigned long 
  5234 ;;  exp             1   13[COMRAM] unsigned char 
  5235 ;; Return value:  Size  Location     Type
  5236 ;;                  4    4[COMRAM] unsigned char 
  5237 ;; Registers used:
  5238 ;;		wreg, status,2, status,0
  5239 ;; Tracked objects:
  5240 ;;		On entry : 0/0
  5241 ;;		On exit  : 0/0
  5242 ;;		Unchanged: 0/0
  5243 ;; Data sizes:     COMRAM   BANK0   BANK1   BANK2   BANK3   BANK4   BANK5   BANK6   BANK7   BANK8   BANK9  BANK10  BANK1
      +1  BANK12  BANK13  BANK14  BANK15
  5244 ;;      Params:         4       0       0       0       0       0       0       0       0       0       0       0       
      +0       0       0       0       0
  5245 ;;      Locals:         6       0       0       0       0       0       0       0       0       0       0       0       
      +0       0       0       0       0
  5246 ;;      Temps:          4       0       0       0       0       0       0       0       0       0       0       0       
      +0       0       0       0       0
  5247 ;;      Totals:        14       0       0       0       0       0       0       0       0       0       0       0       
      +0       0       0       0       0
  5248 ;;Total ram usage:       14 bytes
  5249 ;; Hardware stack levels used: 1
  5250 ;; Hardware stack levels required when called: 4
  5251 ;; This function calls:
  5252 ;;		Nothing
  5253 ;; This function is called by:
  5254 ;;		_Servo_SetAngle
  5255 ;;		_CCP_PWM_Set_Duty
  5256 ;;		_I2C_Master_Mode_Clock_Configurations
  5257 ;;		_async_config_baud_rate_gen
  5258 ;;		_Get_Distance
  5259 ;; This function uses a non-reentrant model
  5260 ;;
  5261                           
  5262                           	psect	text30
  5263  001CCC                     __ptext30:
  5264                           	callstack 0
  5265  001CCC                     ___xxtofl:
  5266                           	callstack 21
  5267                           
  5268                           ;incstack = 0
  5269                           ;___xxtofl@sign stored from wreg
  5270  001CCC  6E0D               	movwf	___xxtofl@sign^0,c
  5271  001CCE  500D               	movf	___xxtofl@sign^0,w,c
  5272  001CD0  B4D8               	btfsc	status,2,c
  5273  001CD2  EF6D  F00E         	goto	u5541
  5274  001CD6  EF6F  F00E         	goto	u5540
  5275  001CDA                     u5541:
  5276  001CDA  EF91  F00E         	goto	l2493
  5277  001CDE                     u5540:
  5278  001CDE  BE08               	btfsc	(___xxtofl@val+3)^0,7,c
  5279  001CE0  EF76  F00E         	goto	u5550
  5280  001CE4  EF74  F00E         	goto	u5551
  5281  001CE8                     u5551:
  5282  001CE8  EF91  F00E         	goto	l2493
  5283  001CEC                     u5550:
  5284  001CEC  C005  F009         	movff	___xxtofl@val,??___xxtofl
  5285  001CF0  C006  F00A         	movff	___xxtofl@val+1,??___xxtofl+1
  5286  001CF4  C007  F00B         	movff	___xxtofl@val+2,??___xxtofl+2
  5287  001CF8  C008  F00C         	movff	___xxtofl@val+3,??___xxtofl+3
  5288  001CFC  1E09               	comf	??___xxtofl^0,f,c
  5289  001CFE  1E0A               	comf	(??___xxtofl+1)^0,f,c
  5290  001D00  1E0B               	comf	(??___xxtofl+2)^0,f,c
  5291  001D02  1E0C               	comf	(??___xxtofl+3)^0,f,c
  5292  001D04  2A09               	incf	??___xxtofl^0,f,c
  5293  001D06  0E00               	movlw	0
  5294  001D08  220A               	addwfc	(??___xxtofl+1)^0,f,c
  5295  001D0A  220B               	addwfc	(??___xxtofl+2)^0,f,c
  5296  001D0C  220C               	addwfc	(??___xxtofl+3)^0,f,c
  5297  001D0E  C009  F00F         	movff	??___xxtofl,___xxtofl@arg
  5298  001D12  C00A  F010         	movff	??___xxtofl+1,___xxtofl@arg+1
  5299  001D16  C00B  F011         	movff	??___xxtofl+2,___xxtofl@arg+2
  5300  001D1A  C00C  F012         	movff	??___xxtofl+3,___xxtofl@arg+3
  5301  001D1E  EF99  F00E         	goto	l6256
  5302  001D22                     l2493:
  5303  001D22  C005  F00F         	movff	___xxtofl@val,___xxtofl@arg
  5304  001D26  C006  F010         	movff	___xxtofl@val+1,___xxtofl@arg+1
  5305  001D2A  C007  F011         	movff	___xxtofl@val+2,___xxtofl@arg+2
  5306  001D2E  C008  F012         	movff	___xxtofl@val+3,___xxtofl@arg+3
  5307  001D32                     l6256:
  5308  001D32  5005               	movf	___xxtofl@val^0,w,c
  5309  001D34  1006               	iorwf	(___xxtofl@val+1)^0,w,c
  5310  001D36  1007               	iorwf	(___xxtofl@val+2)^0,w,c
  5311  001D38  1008               	iorwf	(___xxtofl@val+3)^0,w,c
  5312  001D3A  A4D8               	btfss	status,2,c
  5313  001D3C  EFA2  F00E         	goto	u5561
  5314  001D40  EFA4  F00E         	goto	u5560
  5315  001D44                     u5561:
  5316  001D44  EFAE  F00E         	goto	l6262
  5317  001D48                     u5560:
  5318  001D48  0E00               	movlw	0
  5319  001D4A  6E05               	movwf	?___xxtofl^0,c
  5320  001D4C  0E00               	movlw	0
  5321  001D4E  6E06               	movwf	(?___xxtofl+1)^0,c
  5322  001D50  0E00               	movlw	0
  5323  001D52  6E07               	movwf	(?___xxtofl+2)^0,c
  5324  001D54  0E00               	movlw	0
  5325  001D56  6E08               	movwf	(?___xxtofl+3)^0,c
  5326  001D58  EF3F  F00F         	goto	l2496
  5327  001D5C                     l6262:
  5328  001D5C  0E96               	movlw	150
  5329  001D5E  6E0E               	movwf	___xxtofl@exp^0,c
  5330  001D60  EFB8  F00E         	goto	l6266
  5331  001D64                     l6264:
  5332  001D64  2A0E               	incf	___xxtofl@exp^0,f,c
  5333  001D66  90D8               	bcf	status,0,c
  5334  001D68  3212               	rrcf	(___xxtofl@arg+3)^0,f,c
  5335  001D6A  3211               	rrcf	(___xxtofl@arg+2)^0,f,c
  5336  001D6C  3210               	rrcf	(___xxtofl@arg+1)^0,f,c
  5337  001D6E  320F               	rrcf	___xxtofl@arg^0,f,c
  5338  001D70                     l6266:
  5339  001D70  0E00               	movlw	0
  5340  001D72  140F               	andwf	___xxtofl@arg^0,w,c
  5341  001D74  6E09               	movwf	??___xxtofl^0,c
  5342  001D76  0E00               	movlw	0
  5343  001D78  1410               	andwf	(___xxtofl@arg+1)^0,w,c
  5344  001D7A  6E0A               	movwf	(??___xxtofl+1)^0,c
  5345  001D7C  0E00               	movlw	0
  5346  001D7E  1411               	andwf	(___xxtofl@arg+2)^0,w,c
  5347  001D80  6E0B               	movwf	(??___xxtofl+2)^0,c
  5348  001D82  0EFE               	movlw	254
  5349  001D84  1412               	andwf	(___xxtofl@arg+3)^0,w,c
  5350  001D86  6E0C               	movwf	(??___xxtofl+3)^0,c
  5351  001D88  5009               	movf	??___xxtofl^0,w,c
  5352  001D8A  100A               	iorwf	(??___xxtofl+1)^0,w,c
  5353  001D8C  100B               	iorwf	(??___xxtofl+2)^0,w,c
  5354  001D8E  100C               	iorwf	(??___xxtofl+3)^0,w,c
  5355  001D90  A4D8               	btfss	status,2,c
  5356  001D92  EFCD  F00E         	goto	u5571
  5357  001D96  EFCF  F00E         	goto	u5570
  5358  001D9A                     u5571:
  5359  001D9A  EFB2  F00E         	goto	l6264
  5360  001D9E                     u5570:
  5361  001D9E  EFDD  F00E         	goto	l2500
  5362  001DA2                     l6268:
  5363  001DA2  2A0E               	incf	___xxtofl@exp^0,f,c
  5364  001DA4  0E01               	movlw	1
  5365  001DA6  260F               	addwf	___xxtofl@arg^0,f,c
  5366  001DA8  0E00               	movlw	0
  5367  001DAA  2210               	addwfc	(___xxtofl@arg+1)^0,f,c
  5368  001DAC  2211               	addwfc	(___xxtofl@arg+2)^0,f,c
  5369  001DAE  2212               	addwfc	(___xxtofl@arg+3)^0,f,c
  5370  001DB0  90D8               	bcf	status,0,c
  5371  001DB2  3212               	rrcf	(___xxtofl@arg+3)^0,f,c
  5372  001DB4  3211               	rrcf	(___xxtofl@arg+2)^0,f,c
  5373  001DB6  3210               	rrcf	(___xxtofl@arg+1)^0,f,c
  5374  001DB8  320F               	rrcf	___xxtofl@arg^0,f,c
  5375  001DBA                     l2500:
  5376  001DBA  0E00               	movlw	0
  5377  001DBC  140F               	andwf	___xxtofl@arg^0,w,c
  5378  001DBE  6E09               	movwf	??___xxtofl^0,c
  5379  001DC0  0E00               	movlw	0
  5380  001DC2  1410               	andwf	(___xxtofl@arg+1)^0,w,c
  5381  001DC4  6E0A               	movwf	(??___xxtofl+1)^0,c
  5382  001DC6  0E00               	movlw	0
  5383  001DC8  1411               	andwf	(___xxtofl@arg+2)^0,w,c
  5384  001DCA  6E0B               	movwf	(??___xxtofl+2)^0,c
  5385  001DCC  0EFF               	movlw	255
  5386  001DCE  1412               	andwf	(___xxtofl@arg+3)^0,w,c
  5387  001DD0  6E0C               	movwf	(??___xxtofl+3)^0,c
  5388  001DD2  5009               	movf	??___xxtofl^0,w,c
  5389  001DD4  100A               	iorwf	(??___xxtofl+1)^0,w,c
  5390  001DD6  100B               	iorwf	(??___xxtofl+2)^0,w,c
  5391  001DD8  100C               	iorwf	(??___xxtofl+3)^0,w,c
  5392  001DDA  A4D8               	btfss	status,2,c
  5393  001DDC  EFF2  F00E         	goto	u5581
  5394  001DE0  EFF4  F00E         	goto	u5580
  5395  001DE4                     u5581:
  5396  001DE4  EFD1  F00E         	goto	l6268
  5397  001DE8                     u5580:
  5398  001DE8  EFFC  F00E         	goto	l6276
  5399  001DEC                     l6274:
  5400  001DEC  060E               	decf	___xxtofl@exp^0,f,c
  5401  001DEE  90D8               	bcf	status,0,c
  5402  001DF0  360F               	rlcf	___xxtofl@arg^0,f,c
  5403  001DF2  3610               	rlcf	(___xxtofl@arg+1)^0,f,c
  5404  001DF4  3611               	rlcf	(___xxtofl@arg+2)^0,f,c
  5405  001DF6  3612               	rlcf	(___xxtofl@arg+3)^0,f,c
  5406  001DF8                     l6276:
  5407  001DF8  BE11               	btfsc	(___xxtofl@arg+2)^0,7,c
  5408  001DFA  EF01  F00F         	goto	u5591
  5409  001DFE  EF03  F00F         	goto	u5590
  5410  001E02                     u5591:
  5411  001E02  EF0B  F00F         	goto	l2507
  5412  001E06                     u5590:
  5413  001E06  0E02               	movlw	2
  5414  001E08  600E               	cpfslt	___xxtofl@exp^0,c
  5415  001E0A  EF09  F00F         	goto	u5601
  5416  001E0E  EF0B  F00F         	goto	u5600
  5417  001E12                     u5601:
  5418  001E12  EFF6  F00E         	goto	l6274
  5419  001E16                     u5600:
  5420  001E16                     l2507:
  5421  001E16  B00E               	btfsc	___xxtofl@exp^0,0,c
  5422  001E18  EF10  F00F         	goto	u5611
  5423  001E1C  EF12  F00F         	goto	u5610
  5424  001E20                     u5611:
  5425  001E20  EF13  F00F         	goto	l6282
  5426  001E24                     u5610:
  5427  001E24  9E11               	bcf	(___xxtofl@arg+2)^0,7,c
  5428  001E26                     l6282:
  5429  001E26  90D8               	bcf	status,0,c
  5430  001E28  320E               	rrcf	___xxtofl@exp^0,f,c
  5431  001E2A  C00E  F009         	movff	___xxtofl@exp,??___xxtofl
  5432  001E2E  6A0A               	clrf	(??___xxtofl+1)^0,c
  5433  001E30  6A0B               	clrf	(??___xxtofl+2)^0,c
  5434  001E32  6A0C               	clrf	(??___xxtofl+3)^0,c
  5435  001E34  C009  F00C         	movff	??___xxtofl,??___xxtofl+3
  5436  001E38  6A0B               	clrf	(??___xxtofl+2)^0,c
  5437  001E3A  6A0A               	clrf	(??___xxtofl+1)^0,c
  5438  001E3C  6A09               	clrf	??___xxtofl^0,c
  5439  001E3E  5009               	movf	??___xxtofl^0,w,c
  5440  001E40  120F               	iorwf	___xxtofl@arg^0,f,c
  5441  001E42  500A               	movf	(??___xxtofl+1)^0,w,c
  5442  001E44  1210               	iorwf	(___xxtofl@arg+1)^0,f,c
  5443  001E46  500B               	movf	(??___xxtofl+2)^0,w,c
  5444  001E48  1211               	iorwf	(___xxtofl@arg+2)^0,f,c
  5445  001E4A  500C               	movf	(??___xxtofl+3)^0,w,c
  5446  001E4C  1212               	iorwf	(___xxtofl@arg+3)^0,f,c
  5447  001E4E  500D               	movf	___xxtofl@sign^0,w,c
  5448  001E50  B4D8               	btfsc	status,2,c
  5449  001E52  EF2D  F00F         	goto	u5621
  5450  001E56  EF2F  F00F         	goto	u5620
  5451  001E5A                     u5621:
  5452  001E5A  EF37  F00F         	goto	l6292
  5453  001E5E                     u5620:
  5454  001E5E  BE08               	btfsc	(___xxtofl@val+3)^0,7,c
  5455  001E60  EF36  F00F         	goto	u5630
  5456  001E64  EF34  F00F         	goto	u5631
  5457  001E68                     u5631:
  5458  001E68  EF37  F00F         	goto	l6292
  5459  001E6C                     u5630:
  5460  001E6C  8E12               	bsf	(___xxtofl@arg+3)^0,7,c
  5461  001E6E                     l6292:
  5462  001E6E  C00F  F005         	movff	___xxtofl@arg,?___xxtofl
  5463  001E72  C010  F006         	movff	___xxtofl@arg+1,?___xxtofl+1
  5464  001E76  C011  F007         	movff	___xxtofl@arg+2,?___xxtofl+2
  5465  001E7A  C012  F008         	movff	___xxtofl@arg+3,?___xxtofl+3
  5466  001E7E                     l2496:
  5467  001E7E  0012               	return		;funcret
  5468  001E80                     __end_of___xxtofl:
  5469                           	callstack 0
  5470                           
  5471 ;; *************** function ___fltol *****************
  5472 ;; Defined at:
  5473 ;;		line 43 in file "C:\Program Files\Microchip\xc8\v2.36\pic\sources\c99\common\fltol.c"
  5474 ;; Parameters:    Size  Location     Type
  5475 ;;  f1              4    0[BANK0 ] unsigned char 
  5476 ;; Auto vars:     Size  Location     Type
  5477 ;;  exp1            1   85[COMRAM] unsigned char 
  5478 ;;  sign1           1   84[COMRAM] unsigned char 
  5479 ;; Return value:  Size  Location     Type
  5480 ;;                  4    0[BANK0 ] long 
  5481 ;; Registers used:
  5482 ;;		wreg, status,2, status,0
  5483 ;; Tracked objects:
  5484 ;;		On entry : 0/0
  5485 ;;		On exit  : 0/0
  5486 ;;		Unchanged: 0/0
  5487 ;; Data sizes:     COMRAM   BANK0   BANK1   BANK2   BANK3   BANK4   BANK5   BANK6   BANK7   BANK8   BANK9  BANK10  BANK1
      +1  BANK12  BANK13  BANK14  BANK15
  5488 ;;      Params:         0       4       0       0       0       0       0       0       0       0       0       0       
      +0       0       0       0       0
  5489 ;;      Locals:         2       0       0       0       0       0       0       0       0       0       0       0       
      +0       0       0       0       0
  5490 ;;      Temps:          0       4       0       0       0       0       0       0       0       0       0       0       
      +0       0       0       0       0
  5491 ;;      Totals:         2       8       0       0       0       0       0       0       0       0       0       0       
      +0       0       0       0       0
  5492 ;;Total ram usage:       10 bytes
  5493 ;; Hardware stack levels used: 1
  5494 ;; Hardware stack levels required when called: 4
  5495 ;; This function calls:
  5496 ;;		Nothing
  5497 ;; This function is called by:
  5498 ;;		_Servo_SetAngle
  5499 ;;		_CCP_PWM_Set_Duty
  5500 ;;		_I2C_Master_Mode_Clock_Configurations
  5501 ;;		_async_config_baud_rate_gen
  5502 ;; This function uses a non-reentrant model
  5503 ;;
  5504                           
  5505                           	psect	text31
  5506  0027D8                     __ptext31:
  5507                           	callstack 0
  5508  0027D8                     ___fltol:
  5509                           	callstack 21
  5510  0027D8  0100               	movlb	0	; () banked
  5511  0027DA  35E2               	rlcf	(___fltol@f1+2)& (0+255),w,b
  5512  0027DC  35E3               	rlcf	(___fltol@f1+3)& (0+255),w,b
  5513  0027DE  6E56               	movwf	___fltol@exp1^0,c
  5514  0027E0  5056               	movf	___fltol@exp1^0,w,c
  5515  0027E2  A4D8               	btfss	status,2,c
  5516  0027E4  EFF6  F013         	goto	u8151
  5517  0027E8  EFF8  F013         	goto	u8150
  5518  0027EC                     u8151:
  5519  0027EC  EF02  F014         	goto	l8402
  5520  0027F0                     u8150:
  5521  0027F0                     l8398:
  5522                           
  5523                           ; BSR set to: 0
  5524  0027F0  0E00               	movlw	0
  5525  0027F2  6FE0               	movwf	?___fltol& (0+255),b
  5526  0027F4  0E00               	movlw	0
  5527  0027F6  6FE1               	movwf	(?___fltol+1)& (0+255),b
  5528  0027F8  0E00               	movlw	0
  5529  0027FA  6FE2               	movwf	(?___fltol+2)& (0+255),b
  5530  0027FC  0E00               	movlw	0
  5531  0027FE  6FE3               	movwf	(?___fltol+3)& (0+255),b
  5532  002800  EF6F  F014         	goto	l2135
  5533  002804                     l8402:
  5534                           
  5535                           ; BSR set to: 0
  5536  002804  C0E0  F0E4         	movff	___fltol@f1,??___fltol
  5537  002808  C0E1  F0E5         	movff	___fltol@f1+1,??___fltol+1
  5538  00280C  C0E2  F0E6         	movff	___fltol@f1+2,??___fltol+2
  5539  002810  C0E3  F0E7         	movff	___fltol@f1+3,??___fltol+3
  5540  002814  0E20               	movlw	32
  5541  002816  EF12  F014         	goto	u8160
  5542  00281A                     u8165:
  5543  00281A  90D8               	bcf	status,0,c
  5544  00281C  33E7               	rrcf	(??___fltol+3)& (0+255),f,b
  5545  00281E  33E6               	rrcf	(??___fltol+2)& (0+255),f,b
  5546  002820  33E5               	rrcf	(??___fltol+1)& (0+255),f,b
  5547  002822  33E4               	rrcf	??___fltol& (0+255),f,b
  5548  002824                     u8160:
  5549  002824  2EE8               	decfsz	wreg,f,c
  5550  002826  EF0D  F014         	goto	u8165
  5551  00282A  51E4               	movf	??___fltol& (0+255),w,b
  5552  00282C  6E55               	movwf	___fltol@sign1^0,c
  5553  00282E                     
  5554                           ; BSR set to: 0
  5555  00282E  8FE2               	bsf	(___fltol@f1+2)& (0+255),7,b
  5556  002830                     
  5557                           ; BSR set to: 0
  5558  002830  0EFF               	movlw	255
  5559  002832  17E0               	andwf	___fltol@f1& (0+255),f,b
  5560  002834  0EFF               	movlw	255
  5561  002836  17E1               	andwf	(___fltol@f1+1)& (0+255),f,b
  5562  002838  0EFF               	movlw	255
  5563  00283A  17E2               	andwf	(___fltol@f1+2)& (0+255),f,b
  5564  00283C  0E00               	movlw	0
  5565  00283E  17E3               	andwf	(___fltol@f1+3)& (0+255),f,b
  5566  002840                     
  5567                           ; BSR set to: 0
  5568  002840  0E96               	movlw	150
  5569  002842  5E56               	subwf	___fltol@exp1^0,f,c
  5570  002844                     
  5571                           ; BSR set to: 0
  5572  002844  BE56               	btfsc	___fltol@exp1^0,7,c
  5573  002846  EF29  F014         	goto	u8170
  5574  00284A  EF27  F014         	goto	u8171
  5575  00284E                     u8171:
  5576  00284E  EF3F  F014         	goto	l8422
  5577  002852                     u8170:
  5578  002852                     
  5579                           ; BSR set to: 0
  5580  002852  5056               	movf	___fltol@exp1^0,w,c
  5581  002854  0A80               	xorlw	128
  5582  002856  0F97               	addlw	151
  5583  002858  B0D8               	btfsc	status,0,c
  5584  00285A  EF31  F014         	goto	u8181
  5585  00285E  EF33  F014         	goto	u8180
  5586  002862                     u8181:
  5587  002862  EF35  F014         	goto	l8418
  5588  002866                     u8180:
  5589  002866  EFF8  F013         	goto	l8398
  5590  00286A                     l8418:
  5591                           
  5592                           ; BSR set to: 0
  5593  00286A  90D8               	bcf	status,0,c
  5594  00286C  33E3               	rrcf	(___fltol@f1+3)& (0+255),f,b
  5595  00286E  33E2               	rrcf	(___fltol@f1+2)& (0+255),f,b
  5596  002870  33E1               	rrcf	(___fltol@f1+1)& (0+255),f,b
  5597  002872  33E0               	rrcf	___fltol@f1& (0+255),f,b
  5598  002874                     
  5599                           ; BSR set to: 0
  5600  002874  3E56               	incfsz	___fltol@exp1^0,f,c
  5601  002876  EF35  F014         	goto	l8418
  5602  00287A  EF57  F014         	goto	l8432
  5603  00287E                     l8422:
  5604                           
  5605                           ; BSR set to: 0
  5606  00287E  0E1F               	movlw	31
  5607  002880  6456               	cpfsgt	___fltol@exp1^0,c
  5608  002882  EF45  F014         	goto	u8191
  5609  002886  EF47  F014         	goto	u8190
  5610  00288A                     u8191:
  5611  00288A  EF4F  F014         	goto	l8430
  5612  00288E                     u8190:
  5613  00288E  EFF8  F013         	goto	l8398
  5614  002892                     l8428:
  5615                           
  5616                           ; BSR set to: 0
  5617  002892  90D8               	bcf	status,0,c
  5618  002894  37E0               	rlcf	___fltol@f1& (0+255),f,b
  5619  002896  37E1               	rlcf	(___fltol@f1+1)& (0+255),f,b
  5620  002898  37E2               	rlcf	(___fltol@f1+2)& (0+255),f,b
  5621  00289A  37E3               	rlcf	(___fltol@f1+3)& (0+255),f,b
  5622  00289C  0656               	decf	___fltol@exp1^0,f,c
  5623  00289E                     l8430:
  5624                           
  5625                           ; BSR set to: 0
  5626  00289E  5056               	movf	___fltol@exp1^0,w,c
  5627  0028A0  A4D8               	btfss	status,2,c
  5628  0028A2  EF55  F014         	goto	u8201
  5629  0028A6  EF57  F014         	goto	u8200
  5630  0028AA                     u8201:
  5631  0028AA  EF49  F014         	goto	l8428
  5632  0028AE                     u8200:
  5633  0028AE                     l8432:
  5634                           
  5635                           ; BSR set to: 0
  5636  0028AE  5055               	movf	___fltol@sign1^0,w,c
  5637  0028B0  B4D8               	btfsc	status,2,c
  5638  0028B2  EF5D  F014         	goto	u8211
  5639  0028B6  EF5F  F014         	goto	u8210
  5640  0028BA                     u8211:
  5641  0028BA  EF67  F014         	goto	l8436
  5642  0028BE                     u8210:
  5643  0028BE                     
  5644                           ; BSR set to: 0
  5645  0028BE  1FE3               	comf	(___fltol@f1+3)& (0+255),f,b
  5646  0028C0  1FE2               	comf	(___fltol@f1+2)& (0+255),f,b
  5647  0028C2  1FE1               	comf	(___fltol@f1+1)& (0+255),f,b
  5648  0028C4  6DE0               	negf	___fltol@f1& (0+255),b
  5649  0028C6  0E00               	movlw	0
  5650  0028C8  23E1               	addwfc	(___fltol@f1+1)& (0+255),f,b
  5651  0028CA  23E2               	addwfc	(___fltol@f1+2)& (0+255),f,b
  5652  0028CC  23E3               	addwfc	(___fltol@f1+3)& (0+255),f,b
  5653  0028CE                     l8436:
  5654                           
  5655                           ; BSR set to: 0
  5656  0028CE  C0E0  F0E0         	movff	___fltol@f1,?___fltol
  5657  0028D2  C0E1  F0E1         	movff	___fltol@f1+1,?___fltol+1
  5658  0028D6  C0E2  F0E2         	movff	___fltol@f1+2,?___fltol+2
  5659  0028DA  C0E3  F0E3         	movff	___fltol@f1+3,?___fltol+3
  5660  0028DE                     l2135:
  5661                           
  5662                           ; BSR set to: 0
  5663  0028DE  0012               	return		;funcret
  5664  0028E0                     __end_of___fltol:
  5665                           	callstack 0
  5666                           
  5667 ;; *************** function ___flmul *****************
  5668 ;; Defined at:
  5669 ;;		line 8 in file "C:\Program Files\Microchip\xc8\v2.36\pic\sources\c99\common\sprcmul.c"
  5670 ;; Parameters:    Size  Location     Type
  5671 ;;  b               4   43[COMRAM] long 
  5672 ;;  a               4   47[COMRAM] long 
  5673 ;; Auto vars:     Size  Location     Type
  5674 ;;  prod            4   62[COMRAM] struct .
  5675 ;;  grs             4   56[COMRAM] unsigned long 
  5676 ;;  temp            2   66[COMRAM] struct .
  5677 ;;  bexp            1   61[COMRAM] unsigned char 
  5678 ;;  aexp            1   60[COMRAM] unsigned char 
  5679 ;;  sign            1   55[COMRAM] unsigned char 
  5680 ;; Return value:  Size  Location     Type
  5681 ;;                  4   43[COMRAM] unsigned char 
  5682 ;; Registers used:
  5683 ;;		wreg, status,2, status,0, prodl, prodh
  5684 ;; Tracked objects:
  5685 ;;		On entry : 0/0
  5686 ;;		On exit  : 0/0
  5687 ;;		Unchanged: 0/0
  5688 ;; Data sizes:     COMRAM   BANK0   BANK1   BANK2   BANK3   BANK4   BANK5   BANK6   BANK7   BANK8   BANK9  BANK10  BANK1
      +1  BANK12  BANK13  BANK14  BANK15
  5689 ;;      Params:         8       0       0       0       0       0       0       0       0       0       0       0       
      +0       0       0       0       0
  5690 ;;      Locals:        13       0       0       0       0       0       0       0       0       0       0       0       
      +0       0       0       0       0
  5691 ;;      Temps:          4       0       0       0       0       0       0       0       0       0       0       0       
      +0       0       0       0       0
  5692 ;;      Totals:        25       0       0       0       0       0       0       0       0       0       0       0       
      +0       0       0       0       0
  5693 ;;Total ram usage:       25 bytes
  5694 ;; Hardware stack levels used: 1
  5695 ;; Hardware stack levels required when called: 4
  5696 ;; This function calls:
  5697 ;;		Nothing
  5698 ;; This function is called by:
  5699 ;;		_Servo_SetAngle
  5700 ;;		_CCP_PWM_Set_Duty
  5701 ;; This function uses a non-reentrant model
  5702 ;;
  5703                           
  5704                           	psect	text32
  5705  001508                     __ptext32:
  5706                           	callstack 0
  5707  001508                     ___flmul:
  5708                           	callstack 23
  5709  001508  502F               	movf	(___flmul@b+3)^0,w,c
  5710  00150A  0B80               	andlw	128
  5711  00150C  6E38               	movwf	___flmul@sign^0,c
  5712  00150E  502F               	movf	(___flmul@b+3)^0,w,c
  5713  001510  242F               	addwf	(___flmul@b+3)^0,w,c
  5714  001512  6E3E               	movwf	___flmul@bexp^0,c
  5715  001514  AE2E               	btfss	(___flmul@b+2)^0,7,c
  5716  001516  EF8F  F00A         	goto	u6081
  5717  00151A  EF91  F00A         	goto	u6080
  5718  00151E                     u6081:
  5719  00151E  EF92  F00A         	goto	l6618
  5720  001522                     u6080:
  5721  001522  803E               	bsf	___flmul@bexp^0,0,c
  5722  001524                     l6618:
  5723  001524  503E               	movf	___flmul@bexp^0,w,c
  5724  001526  B4D8               	btfsc	status,2,c
  5725  001528  EF98  F00A         	goto	u6091
  5726  00152C  EF9A  F00A         	goto	u6090
  5727  001530                     u6091:
  5728  001530  EFAD  F00A         	goto	l6626
  5729  001534                     u6090:
  5730  001534  283E               	incf	___flmul@bexp^0,w,c
  5731  001536  A4D8               	btfss	status,2,c
  5732  001538  EFA0  F00A         	goto	u6101
  5733  00153C  EFA2  F00A         	goto	u6100
  5734  001540                     u6101:
  5735  001540  EFAA  F00A         	goto	l6624
  5736  001544                     u6100:
  5737  001544  0E00               	movlw	0
  5738  001546  6E2C               	movwf	___flmul@b^0,c
  5739  001548  0E00               	movlw	0
  5740  00154A  6E2D               	movwf	(___flmul@b+1)^0,c
  5741  00154C  0E00               	movlw	0
  5742  00154E  6E2E               	movwf	(___flmul@b+2)^0,c
  5743  001550  0E00               	movlw	0
  5744  001552  6E2F               	movwf	(___flmul@b+3)^0,c
  5745  001554                     l6624:
  5746  001554  8E2E               	bsf	(___flmul@b+2)^0,7,c
  5747  001556  EFB5  F00A         	goto	l6628
  5748  00155A                     l6626:
  5749  00155A  0E00               	movlw	0
  5750  00155C  6E2C               	movwf	___flmul@b^0,c
  5751  00155E  0E00               	movlw	0
  5752  001560  6E2D               	movwf	(___flmul@b+1)^0,c
  5753  001562  0E00               	movlw	0
  5754  001564  6E2E               	movwf	(___flmul@b+2)^0,c
  5755  001566  0E00               	movlw	0
  5756  001568  6E2F               	movwf	(___flmul@b+3)^0,c
  5757  00156A                     l6628:
  5758  00156A  5033               	movf	(___flmul@a+3)^0,w,c
  5759  00156C  0B80               	andlw	128
  5760  00156E  1A38               	xorwf	___flmul@sign^0,f,c
  5761  001570  5033               	movf	(___flmul@a+3)^0,w,c
  5762  001572  2433               	addwf	(___flmul@a+3)^0,w,c
  5763  001574  6E3D               	movwf	___flmul@aexp^0,c
  5764  001576  AE32               	btfss	(___flmul@a+2)^0,7,c
  5765  001578  EFC0  F00A         	goto	u6111
  5766  00157C  EFC2  F00A         	goto	u6110
  5767  001580                     u6111:
  5768  001580  EFC3  F00A         	goto	l6636
  5769  001584                     u6110:
  5770  001584  803D               	bsf	___flmul@aexp^0,0,c
  5771  001586                     l6636:
  5772  001586  503D               	movf	___flmul@aexp^0,w,c
  5773  001588  B4D8               	btfsc	status,2,c
  5774  00158A  EFC9  F00A         	goto	u6121
  5775  00158E  EFCB  F00A         	goto	u6120
  5776  001592                     u6121:
  5777  001592  EFDE  F00A         	goto	l6644
  5778  001596                     u6120:
  5779  001596  283D               	incf	___flmul@aexp^0,w,c
  5780  001598  A4D8               	btfss	status,2,c
  5781  00159A  EFD1  F00A         	goto	u6131
  5782  00159E  EFD3  F00A         	goto	u6130
  5783  0015A2                     u6131:
  5784  0015A2  EFDB  F00A         	goto	l6642
  5785  0015A6                     u6130:
  5786  0015A6  0E00               	movlw	0
  5787  0015A8  6E30               	movwf	___flmul@a^0,c
  5788  0015AA  0E00               	movlw	0
  5789  0015AC  6E31               	movwf	(___flmul@a+1)^0,c
  5790  0015AE  0E00               	movlw	0
  5791  0015B0  6E32               	movwf	(___flmul@a+2)^0,c
  5792  0015B2  0E00               	movlw	0
  5793  0015B4  6E33               	movwf	(___flmul@a+3)^0,c
  5794  0015B6                     l6642:
  5795  0015B6  8E32               	bsf	(___flmul@a+2)^0,7,c
  5796  0015B8  EFE6  F00A         	goto	l2452
  5797  0015BC                     l6644:
  5798  0015BC  0E00               	movlw	0
  5799  0015BE  6E30               	movwf	___flmul@a^0,c
  5800  0015C0  0E00               	movlw	0
  5801  0015C2  6E31               	movwf	(___flmul@a+1)^0,c
  5802  0015C4  0E00               	movlw	0
  5803  0015C6  6E32               	movwf	(___flmul@a+2)^0,c
  5804  0015C8  0E00               	movlw	0
  5805  0015CA  6E33               	movwf	(___flmul@a+3)^0,c
  5806  0015CC                     l2452:
  5807  0015CC  503D               	movf	___flmul@aexp^0,w,c
  5808  0015CE  B4D8               	btfsc	status,2,c
  5809  0015D0  EFEC  F00A         	goto	u6141
  5810  0015D4  EFEE  F00A         	goto	u6140
  5811  0015D8                     u6141:
  5812  0015D8  EFF6  F00A         	goto	l6648
  5813  0015DC                     u6140:
  5814  0015DC  503E               	movf	___flmul@bexp^0,w,c
  5815  0015DE  A4D8               	btfss	status,2,c
  5816  0015E0  EFF4  F00A         	goto	u6151
  5817  0015E4  EFF6  F00A         	goto	u6150
  5818  0015E8                     u6151:
  5819  0015E8  EF00  F00B         	goto	l6652
  5820  0015EC                     u6150:
  5821  0015EC                     l6648:
  5822  0015EC  0E00               	movlw	0
  5823  0015EE  6E2C               	movwf	?___flmul^0,c
  5824  0015F0  0E00               	movlw	0
  5825  0015F2  6E2D               	movwf	(?___flmul+1)^0,c
  5826  0015F4  0E00               	movlw	0
  5827  0015F6  6E2E               	movwf	(?___flmul+2)^0,c
  5828  0015F8  0E00               	movlw	0
  5829  0015FA  6E2F               	movwf	(?___flmul+3)^0,c
  5830  0015FC  EF98  F00C         	goto	l2456
  5831  001600                     l6652:
  5832  001600  5032               	movf	(___flmul@a+2)^0,w,c
  5833  001602  022C               	mulwf	___flmul@b^0,c
  5834  001604  CFF3 F043          	movff	prodl,___flmul@temp
  5835  001608  CFF4 F044          	movff	prodh,___flmul@temp+1
  5836  00160C  5043               	movf	___flmul@temp^0,w,c
  5837  00160E  6E39               	movwf	___flmul@grs^0,c
  5838  001610  6A3A               	clrf	(___flmul@grs+1)^0,c
  5839  001612  6A3B               	clrf	(___flmul@grs+2)^0,c
  5840  001614  6A3C               	clrf	(___flmul@grs+3)^0,c
  5841  001616  5044               	movf	(___flmul@temp+1)^0,w,c
  5842  001618  6E3F               	movwf	___flmul@prod^0,c
  5843  00161A  6A40               	clrf	(___flmul@prod+1)^0,c
  5844  00161C  6A41               	clrf	(___flmul@prod+2)^0,c
  5845  00161E  6A42               	clrf	(___flmul@prod+3)^0,c
  5846  001620  5031               	movf	(___flmul@a+1)^0,w,c
  5847  001622  022D               	mulwf	(___flmul@b+1)^0,c
  5848  001624  CFF3 F043          	movff	prodl,___flmul@temp
  5849  001628  CFF4 F044          	movff	prodh,___flmul@temp+1
  5850  00162C  5043               	movf	___flmul@temp^0,w,c
  5851  00162E  2639               	addwf	___flmul@grs^0,f,c
  5852  001630  0E00               	movlw	0
  5853  001632  223A               	addwfc	(___flmul@grs+1)^0,f,c
  5854  001634  223B               	addwfc	(___flmul@grs+2)^0,f,c
  5855  001636  223C               	addwfc	(___flmul@grs+3)^0,f,c
  5856  001638  5044               	movf	(___flmul@temp+1)^0,w,c
  5857  00163A  263F               	addwf	___flmul@prod^0,f,c
  5858  00163C  0E00               	movlw	0
  5859  00163E  2240               	addwfc	(___flmul@prod+1)^0,f,c
  5860  001640  2241               	addwfc	(___flmul@prod+2)^0,f,c
  5861  001642  2242               	addwfc	(___flmul@prod+3)^0,f,c
  5862  001644  5030               	movf	___flmul@a^0,w,c
  5863  001646  022E               	mulwf	(___flmul@b+2)^0,c
  5864  001648  CFF3 F043          	movff	prodl,___flmul@temp
  5865  00164C  CFF4 F044          	movff	prodh,___flmul@temp+1
  5866  001650  5043               	movf	___flmul@temp^0,w,c
  5867  001652  2639               	addwf	___flmul@grs^0,f,c
  5868  001654  0E00               	movlw	0
  5869  001656  223A               	addwfc	(___flmul@grs+1)^0,f,c
  5870  001658  223B               	addwfc	(___flmul@grs+2)^0,f,c
  5871  00165A  223C               	addwfc	(___flmul@grs+3)^0,f,c
  5872  00165C  5044               	movf	(___flmul@temp+1)^0,w,c
  5873  00165E  263F               	addwf	___flmul@prod^0,f,c
  5874  001660  0E00               	movlw	0
  5875  001662  2240               	addwfc	(___flmul@prod+1)^0,f,c
  5876  001664  2241               	addwfc	(___flmul@prod+2)^0,f,c
  5877  001666  2242               	addwfc	(___flmul@prod+3)^0,f,c
  5878  001668  C03B  F03C         	movff	___flmul@grs+2,___flmul@grs+3
  5879  00166C  C03A  F03B         	movff	___flmul@grs+1,___flmul@grs+2
  5880  001670  C039  F03A         	movff	___flmul@grs,___flmul@grs+1
  5881  001674  6A39               	clrf	___flmul@grs^0,c
  5882  001676  5030               	movf	___flmul@a^0,w,c
  5883  001678  022D               	mulwf	(___flmul@b+1)^0,c
  5884  00167A  CFF3 F043          	movff	prodl,___flmul@temp
  5885  00167E  CFF4 F044          	movff	prodh,___flmul@temp+1
  5886  001682  5043               	movf	___flmul@temp^0,w,c
  5887  001684  2639               	addwf	___flmul@grs^0,f,c
  5888  001686  5044               	movf	(___flmul@temp+1)^0,w,c
  5889  001688  223A               	addwfc	(___flmul@grs+1)^0,f,c
  5890  00168A  0E00               	movlw	0
  5891  00168C  223B               	addwfc	(___flmul@grs+2)^0,f,c
  5892  00168E  0E00               	movlw	0
  5893  001690  223C               	addwfc	(___flmul@grs+3)^0,f,c
  5894  001692  5031               	movf	(___flmul@a+1)^0,w,c
  5895  001694  022C               	mulwf	___flmul@b^0,c
  5896  001696  CFF3 F043          	movff	prodl,___flmul@temp
  5897  00169A  CFF4 F044          	movff	prodh,___flmul@temp+1
  5898  00169E  5043               	movf	___flmul@temp^0,w,c
  5899  0016A0  2639               	addwf	___flmul@grs^0,f,c
  5900  0016A2  5044               	movf	(___flmul@temp+1)^0,w,c
  5901  0016A4  223A               	addwfc	(___flmul@grs+1)^0,f,c
  5902  0016A6  0E00               	movlw	0
  5903  0016A8  223B               	addwfc	(___flmul@grs+2)^0,f,c
  5904  0016AA  0E00               	movlw	0
  5905  0016AC  223C               	addwfc	(___flmul@grs+3)^0,f,c
  5906  0016AE  C03B  F03C         	movff	___flmul@grs+2,___flmul@grs+3
  5907  0016B2  C03A  F03B         	movff	___flmul@grs+1,___flmul@grs+2
  5908  0016B6  C039  F03A         	movff	___flmul@grs,___flmul@grs+1
  5909  0016BA  6A39               	clrf	___flmul@grs^0,c
  5910  0016BC  5030               	movf	___flmul@a^0,w,c
  5911  0016BE  022C               	mulwf	___flmul@b^0,c
  5912  0016C0  CFF3 F043          	movff	prodl,___flmul@temp
  5913  0016C4  CFF4 F044          	movff	prodh,___flmul@temp+1
  5914  0016C8  5043               	movf	___flmul@temp^0,w,c
  5915  0016CA  2639               	addwf	___flmul@grs^0,f,c
  5916  0016CC  5044               	movf	(___flmul@temp+1)^0,w,c
  5917  0016CE  223A               	addwfc	(___flmul@grs+1)^0,f,c
  5918  0016D0  0E00               	movlw	0
  5919  0016D2  223B               	addwfc	(___flmul@grs+2)^0,f,c
  5920  0016D4  0E00               	movlw	0
  5921  0016D6  223C               	addwfc	(___flmul@grs+3)^0,f,c
  5922  0016D8  5032               	movf	(___flmul@a+2)^0,w,c
  5923  0016DA  022D               	mulwf	(___flmul@b+1)^0,c
  5924  0016DC  CFF3 F043          	movff	prodl,___flmul@temp
  5925  0016E0  CFF4 F044          	movff	prodh,___flmul@temp+1
  5926  0016E4  5043               	movf	___flmul@temp^0,w,c
  5927  0016E6  263F               	addwf	___flmul@prod^0,f,c
  5928  0016E8  5044               	movf	(___flmul@temp+1)^0,w,c
  5929  0016EA  2240               	addwfc	(___flmul@prod+1)^0,f,c
  5930  0016EC  0E00               	movlw	0
  5931  0016EE  2241               	addwfc	(___flmul@prod+2)^0,f,c
  5932  0016F0  0E00               	movlw	0
  5933  0016F2  2242               	addwfc	(___flmul@prod+3)^0,f,c
  5934  0016F4  5031               	movf	(___flmul@a+1)^0,w,c
  5935  0016F6  022E               	mulwf	(___flmul@b+2)^0,c
  5936  0016F8  CFF3 F043          	movff	prodl,___flmul@temp
  5937  0016FC  CFF4 F044          	movff	prodh,___flmul@temp+1
  5938  001700  5043               	movf	___flmul@temp^0,w,c
  5939  001702  263F               	addwf	___flmul@prod^0,f,c
  5940  001704  5044               	movf	(___flmul@temp+1)^0,w,c
  5941  001706  2240               	addwfc	(___flmul@prod+1)^0,f,c
  5942  001708  0E00               	movlw	0
  5943  00170A  2241               	addwfc	(___flmul@prod+2)^0,f,c
  5944  00170C  0E00               	movlw	0
  5945  00170E  2242               	addwfc	(___flmul@prod+3)^0,f,c
  5946  001710  5032               	movf	(___flmul@a+2)^0,w,c
  5947  001712  022E               	mulwf	(___flmul@b+2)^0,c
  5948  001714  CFF3 F043          	movff	prodl,___flmul@temp
  5949  001718  CFF4 F044          	movff	prodh,___flmul@temp+1
  5950  00171C  5043               	movf	___flmul@temp^0,w,c
  5951  00171E  6E34               	movwf	??___flmul^0,c
  5952  001720  5044               	movf	(___flmul@temp+1)^0,w,c
  5953  001722  6E35               	movwf	(??___flmul+1)^0,c
  5954  001724  6A36               	clrf	(??___flmul+2)^0,c
  5955  001726  6A37               	clrf	(??___flmul+3)^0,c
  5956  001728  C036  F037         	movff	??___flmul+2,??___flmul+3
  5957  00172C  C035  F036         	movff	??___flmul+1,??___flmul+2
  5958  001730  C034  F035         	movff	??___flmul,??___flmul+1
  5959  001734  6A34               	clrf	??___flmul^0,c
  5960  001736  5034               	movf	??___flmul^0,w,c
  5961  001738  263F               	addwf	___flmul@prod^0,f,c
  5962  00173A  5035               	movf	(??___flmul+1)^0,w,c
  5963  00173C  2240               	addwfc	(___flmul@prod+1)^0,f,c
  5964  00173E  5036               	movf	(??___flmul+2)^0,w,c
  5965  001740  2241               	addwfc	(___flmul@prod+2)^0,f,c
  5966  001742  5037               	movf	(??___flmul+3)^0,w,c
  5967  001744  2242               	addwfc	(___flmul@prod+3)^0,f,c
  5968  001746  C039  F034         	movff	___flmul@grs,??___flmul
  5969  00174A  C03A  F035         	movff	___flmul@grs+1,??___flmul+1
  5970  00174E  C03B  F036         	movff	___flmul@grs+2,??___flmul+2
  5971  001752  C03C  F037         	movff	___flmul@grs+3,??___flmul+3
  5972  001756  0E19               	movlw	25
  5973  001758  EFB3  F00B         	goto	u6160
  5974  00175C                     u6165:
  5975  00175C  90D8               	bcf	status,0,c
  5976  00175E  3237               	rrcf	(??___flmul+3)^0,f,c
  5977  001760  3236               	rrcf	(??___flmul+2)^0,f,c
  5978  001762  3235               	rrcf	(??___flmul+1)^0,f,c
  5979  001764  3234               	rrcf	??___flmul^0,f,c
  5980  001766                     u6160:
  5981  001766  2EE8               	decfsz	wreg,f,c
  5982  001768  EFAE  F00B         	goto	u6165
  5983  00176C  5034               	movf	??___flmul^0,w,c
  5984  00176E  263F               	addwf	___flmul@prod^0,f,c
  5985  001770  5035               	movf	(??___flmul+1)^0,w,c
  5986  001772  2240               	addwfc	(___flmul@prod+1)^0,f,c
  5987  001774  5036               	movf	(??___flmul+2)^0,w,c
  5988  001776  2241               	addwfc	(___flmul@prod+2)^0,f,c
  5989  001778  5037               	movf	(??___flmul+3)^0,w,c
  5990  00177A  2242               	addwfc	(___flmul@prod+3)^0,f,c
  5991  00177C  C03B  F03C         	movff	___flmul@grs+2,___flmul@grs+3
  5992  001780  C03A  F03B         	movff	___flmul@grs+1,___flmul@grs+2
  5993  001784  C039  F03A         	movff	___flmul@grs,___flmul@grs+1
  5994  001788  6A39               	clrf	___flmul@grs^0,c
  5995  00178A  503D               	movf	___flmul@aexp^0,w,c
  5996  00178C  C03E  F034         	movff	___flmul@bexp,??___flmul
  5997  001790  6A35               	clrf	(??___flmul+1)^0,c
  5998  001792  2634               	addwf	??___flmul^0,f,c
  5999  001794  0E00               	movlw	0
  6000  001796  2235               	addwfc	(??___flmul+1)^0,f,c
  6001  001798  0E82               	movlw	130
  6002  00179A  2434               	addwf	??___flmul^0,w,c
  6003  00179C  6E43               	movwf	___flmul@temp^0,c
  6004  00179E  0EFF               	movlw	255
  6005  0017A0  2035               	addwfc	(??___flmul+1)^0,w,c
  6006  0017A2  6E44               	movwf	(___flmul@temp+1)^0,c
  6007  0017A4  EFE9  F00B         	goto	l6700
  6008  0017A8                     l6694:
  6009  0017A8  90D8               	bcf	status,0,c
  6010  0017AA  363F               	rlcf	___flmul@prod^0,f,c
  6011  0017AC  3640               	rlcf	(___flmul@prod+1)^0,f,c
  6012  0017AE  3641               	rlcf	(___flmul@prod+2)^0,f,c
  6013  0017B0  3642               	rlcf	(___flmul@prod+3)^0,f,c
  6014  0017B2  AE3C               	btfss	(___flmul@grs+3)^0,7,c
  6015  0017B4  EFDE  F00B         	goto	u6171
  6016  0017B8  EFE0  F00B         	goto	u6170
  6017  0017BC                     u6171:
  6018  0017BC  EFE1  F00B         	goto	l2459
  6019  0017C0                     u6170:
  6020  0017C0  803F               	bsf	___flmul@prod^0,0,c
  6021  0017C2                     l2459:
  6022  0017C2  90D8               	bcf	status,0,c
  6023  0017C4  3639               	rlcf	___flmul@grs^0,f,c
  6024  0017C6  363A               	rlcf	(___flmul@grs+1)^0,f,c
  6025  0017C8  363B               	rlcf	(___flmul@grs+2)^0,f,c
  6026  0017CA  363C               	rlcf	(___flmul@grs+3)^0,f,c
  6027  0017CC  0643               	decf	___flmul@temp^0,f,c
  6028  0017CE  A0D8               	btfss	status,0,c
  6029  0017D0  0644               	decf	(___flmul@temp+1)^0,f,c
  6030  0017D2                     l6700:
  6031  0017D2  AE41               	btfss	(___flmul@prod+2)^0,7,c
  6032  0017D4  EFEE  F00B         	goto	u6181
  6033  0017D8  EFF0  F00B         	goto	u6180
  6034  0017DC                     u6181:
  6035  0017DC  EFD4  F00B         	goto	l6694
  6036  0017E0                     u6180:
  6037  0017E0  0E00               	movlw	0
  6038  0017E2  6E3D               	movwf	___flmul@aexp^0,c
  6039  0017E4  AE3C               	btfss	(___flmul@grs+3)^0,7,c
  6040  0017E6  EFF7  F00B         	goto	u6191
  6041  0017EA  EFF9  F00B         	goto	u6190
  6042  0017EE                     u6191:
  6043  0017EE  EF1D  F00C         	goto	l2461
  6044  0017F2                     u6190:
  6045  0017F2  0EFF               	movlw	255
  6046  0017F4  1439               	andwf	___flmul@grs^0,w,c
  6047  0017F6  6E34               	movwf	??___flmul^0,c
  6048  0017F8  0EFF               	movlw	255
  6049  0017FA  143A               	andwf	(___flmul@grs+1)^0,w,c
  6050  0017FC  6E35               	movwf	(??___flmul+1)^0,c
  6051  0017FE  0EFF               	movlw	255
  6052  001800  143B               	andwf	(___flmul@grs+2)^0,w,c
  6053  001802  6E36               	movwf	(??___flmul+2)^0,c
  6054  001804  0E7F               	movlw	127
  6055  001806  143C               	andwf	(___flmul@grs+3)^0,w,c
  6056  001808  6E37               	movwf	(??___flmul+3)^0,c
  6057  00180A  5034               	movf	??___flmul^0,w,c
  6058  00180C  1035               	iorwf	(??___flmul+1)^0,w,c
  6059  00180E  1036               	iorwf	(??___flmul+2)^0,w,c
  6060  001810  1037               	iorwf	(??___flmul+3)^0,w,c
  6061  001812  B4D8               	btfsc	status,2,c
  6062  001814  EF0E  F00C         	goto	u6201
  6063  001818  EF10  F00C         	goto	u6200
  6064  00181C                     u6201:
  6065  00181C  EF14  F00C         	goto	l2462
  6066  001820                     u6200:
  6067  001820                     l6708:
  6068  001820  0E01               	movlw	1
  6069  001822  6E3D               	movwf	___flmul@aexp^0,c
  6070  001824  EF1D  F00C         	goto	l2461
  6071  001828                     l2462:
  6072  001828  A03F               	btfss	___flmul@prod^0,0,c
  6073  00182A  EF19  F00C         	goto	u6211
  6074  00182E  EF1B  F00C         	goto	u6210
  6075  001832                     u6211:
  6076  001832  EF1D  F00C         	goto	l2461
  6077  001836                     u6210:
  6078  001836  EF10  F00C         	goto	l6708
  6079  00183A                     l2461:
  6080  00183A  503D               	movf	___flmul@aexp^0,w,c
  6081  00183C  B4D8               	btfsc	status,2,c
  6082  00183E  EF23  F00C         	goto	u6221
  6083  001842  EF25  F00C         	goto	u6220
  6084  001846                     u6221:
  6085  001846  EF49  F00C         	goto	l6720
  6086  00184A                     u6220:
  6087  00184A  0E01               	movlw	1
  6088  00184C  263F               	addwf	___flmul@prod^0,f,c
  6089  00184E  0E00               	movlw	0
  6090  001850  2240               	addwfc	(___flmul@prod+1)^0,f,c
  6091  001852  2241               	addwfc	(___flmul@prod+2)^0,f,c
  6092  001854  2242               	addwfc	(___flmul@prod+3)^0,f,c
  6093  001856  A042               	btfss	(___flmul@prod+3)^0,0,c
  6094  001858  EF30  F00C         	goto	u6231
  6095  00185C  EF32  F00C         	goto	u6230
  6096  001860                     u6231:
  6097  001860  EF49  F00C         	goto	l6720
  6098  001864                     u6230:
  6099  001864  C03F  F034         	movff	___flmul@prod,??___flmul
  6100  001868  C040  F035         	movff	___flmul@prod+1,??___flmul+1
  6101  00186C  C041  F036         	movff	___flmul@prod+2,??___flmul+2
  6102  001870  C042  F037         	movff	___flmul@prod+3,??___flmul+3
  6103  001874  3437               	rlcf	(??___flmul+3)^0,w,c
  6104  001876  3237               	rrcf	(??___flmul+3)^0,f,c
  6105  001878  3236               	rrcf	(??___flmul+2)^0,f,c
  6106  00187A  3235               	rrcf	(??___flmul+1)^0,f,c
  6107  00187C  3234               	rrcf	??___flmul^0,f,c
  6108  00187E  C034  F03F         	movff	??___flmul,___flmul@prod
  6109  001882  C035  F040         	movff	??___flmul+1,___flmul@prod+1
  6110  001886  C036  F041         	movff	??___flmul+2,___flmul@prod+2
  6111  00188A  C037  F042         	movff	??___flmul+3,___flmul@prod+3
  6112  00188E  4A43               	infsnz	___flmul@temp^0,f,c
  6113  001890  2A44               	incf	(___flmul@temp+1)^0,f,c
  6114  001892                     l6720:
  6115  001892  BE44               	btfsc	(___flmul@temp+1)^0,7,c
  6116  001894  EF54  F00C         	goto	u6241
  6117  001898  5044               	movf	(___flmul@temp+1)^0,w,c
  6118  00189A  E108               	bnz	u6240
  6119  00189C  2843               	incf	___flmul@temp^0,w,c
  6120  00189E  A0D8               	btfss	status,0,c
  6121  0018A0  EF54  F00C         	goto	u6241
  6122  0018A4  EF56  F00C         	goto	u6240
  6123  0018A8                     u6241:
  6124  0018A8  EF60  F00C         	goto	l6724
  6125  0018AC                     u6240:
  6126  0018AC  0E00               	movlw	0
  6127  0018AE  6E3F               	movwf	___flmul@prod^0,c
  6128  0018B0  0E00               	movlw	0
  6129  0018B2  6E40               	movwf	(___flmul@prod+1)^0,c
  6130  0018B4  0E80               	movlw	128
  6131  0018B6  6E41               	movwf	(___flmul@prod+2)^0,c
  6132  0018B8  0E7F               	movlw	127
  6133  0018BA  6E42               	movwf	(___flmul@prod+3)^0,c
  6134  0018BC  EF8E  F00C         	goto	l6736
  6135  0018C0                     l6724:
  6136  0018C0  BE44               	btfsc	(___flmul@temp+1)^0,7,c
  6137  0018C2  EF6D  F00C         	goto	u6250
  6138  0018C6  5044               	movf	(___flmul@temp+1)^0,w,c
  6139  0018C8  E106               	bnz	u6251
  6140  0018CA  0443               	decf	___flmul@temp^0,w,c
  6141  0018CC  B0D8               	btfsc	status,0,c
  6142  0018CE  EF6B  F00C         	goto	u6251
  6143  0018D2  EF6D  F00C         	goto	u6250
  6144  0018D6                     u6251:
  6145  0018D6  EF79  F00C         	goto	l2469
  6146  0018DA                     u6250:
  6147  0018DA  0E00               	movlw	0
  6148  0018DC  6E3F               	movwf	___flmul@prod^0,c
  6149  0018DE  0E00               	movlw	0
  6150  0018E0  6E40               	movwf	(___flmul@prod+1)^0,c
  6151  0018E2  0E00               	movlw	0
  6152  0018E4  6E41               	movwf	(___flmul@prod+2)^0,c
  6153  0018E6  0E00               	movlw	0
  6154  0018E8  6E42               	movwf	(___flmul@prod+3)^0,c
  6155  0018EA  0E00               	movlw	0
  6156  0018EC  6E38               	movwf	___flmul@sign^0,c
  6157  0018EE  EF8E  F00C         	goto	l6736
  6158  0018F2                     l2469:
  6159  0018F2  C043  F03E         	movff	___flmul@temp,___flmul@bexp
  6160  0018F6  0EFF               	movlw	255
  6161  0018F8  163F               	andwf	___flmul@prod^0,f,c
  6162  0018FA  0EFF               	movlw	255
  6163  0018FC  1640               	andwf	(___flmul@prod+1)^0,f,c
  6164  0018FE  0E7F               	movlw	127
  6165  001900  1641               	andwf	(___flmul@prod+2)^0,f,c
  6166  001902  0E00               	movlw	0
  6167  001904  1642               	andwf	(___flmul@prod+3)^0,f,c
  6168  001906  A03E               	btfss	___flmul@bexp^0,0,c
  6169  001908  EF88  F00C         	goto	u6261
  6170  00190C  EF8A  F00C         	goto	u6260
  6171  001910                     u6261:
  6172  001910  EF8B  F00C         	goto	l6734
  6173  001914                     u6260:
  6174  001914  8E41               	bsf	(___flmul@prod+2)^0,7,c
  6175  001916                     l6734:
  6176  001916  90D8               	bcf	status,0,c
  6177  001918  303E               	rrcf	___flmul@bexp^0,w,c
  6178  00191A  6E42               	movwf	(___flmul@prod+3)^0,c
  6179  00191C                     l6736:
  6180  00191C  5038               	movf	___flmul@sign^0,w,c
  6181  00191E  1242               	iorwf	(___flmul@prod+3)^0,f,c
  6182  001920  C03F  F02C         	movff	___flmul@prod,?___flmul
  6183  001924  C040  F02D         	movff	___flmul@prod+1,?___flmul+1
  6184  001928  C041  F02E         	movff	___flmul@prod+2,?___flmul+2
  6185  00192C  C042  F02F         	movff	___flmul@prod+3,?___flmul+3
  6186  001930                     l2456:
  6187  001930  0012               	return		;funcret
  6188  001932                     __end_of___flmul:
  6189                           	callstack 0
  6190                           
  6191 ;; *************** function ___fldiv *****************
  6192 ;; Defined at:
  6193 ;;		line 11 in file "C:\Program Files\Microchip\xc8\v2.36\pic\sources\c99\common\sprcdiv.c"
  6194 ;; Parameters:    Size  Location     Type
  6195 ;;  b               4   18[COMRAM] unsigned char 
  6196 ;;  a               4   22[COMRAM] unsigned char 
  6197 ;; Auto vars:     Size  Location     Type
  6198 ;;  grs             4   37[COMRAM] unsigned long 
  6199 ;;  rem             4   30[COMRAM] unsigned long 
  6200 ;;  new_exp         2   35[COMRAM] short 
  6201 ;;  aexp            1   42[COMRAM] unsigned char 
  6202 ;;  bexp            1   41[COMRAM] unsigned char 
  6203 ;;  sign            1   34[COMRAM] unsigned char 
  6204 ;; Return value:  Size  Location     Type
  6205 ;;                  4   18[COMRAM] unsigned char 
  6206 ;; Registers used:
  6207 ;;		wreg, status,2, status,0
  6208 ;; Tracked objects:
  6209 ;;		On entry : 0/0
  6210 ;;		On exit  : 0/0
  6211 ;;		Unchanged: 0/0
  6212 ;; Data sizes:     COMRAM   BANK0   BANK1   BANK2   BANK3   BANK4   BANK5   BANK6   BANK7   BANK8   BANK9  BANK10  BANK1
      +1  BANK12  BANK13  BANK14  BANK15
  6213 ;;      Params:         8       0       0       0       0       0       0       0       0       0       0       0       
      +0       0       0       0       0
  6214 ;;      Locals:        13       0       0       0       0       0       0       0       0       0       0       0       
      +0       0       0       0       0
  6215 ;;      Temps:          4       0       0       0       0       0       0       0       0       0       0       0       
      +0       0       0       0       0
  6216 ;;      Totals:        25       0       0       0       0       0       0       0       0       0       0       0       
      +0       0       0       0       0
  6217 ;;Total ram usage:       25 bytes
  6218 ;; Hardware stack levels used: 1
  6219 ;; Hardware stack levels required when called: 4
  6220 ;; This function calls:
  6221 ;;		Nothing
  6222 ;; This function is called by:
  6223 ;;		_CCP_PWM_Set_Duty
  6224 ;;		_I2C_Master_Mode_Clock_Configurations
  6225 ;;		_async_config_baud_rate_gen
  6226 ;;		_Get_Distance
  6227 ;; This function uses a non-reentrant model
  6228 ;;
  6229                           
  6230                           	psect	text33
  6231  001932                     __ptext33:
  6232                           	callstack 0
  6233  001932                     ___fldiv:
  6234                           	callstack 21
  6235  001932  5016               	movf	(___fldiv@b+3)^0,w,c
  6236  001934  0B80               	andlw	128
  6237  001936  6E23               	movwf	___fldiv@sign^0,c
  6238  001938  5016               	movf	(___fldiv@b+3)^0,w,c
  6239  00193A  2416               	addwf	(___fldiv@b+3)^0,w,c
  6240  00193C  6E2A               	movwf	___fldiv@bexp^0,c
  6241  00193E  AE15               	btfss	(___fldiv@b+2)^0,7,c
  6242  001940  EFA4  F00C         	goto	u5241
  6243  001944  EFA6  F00C         	goto	u5240
  6244  001948                     u5241:
  6245  001948  EFA7  F00C         	goto	l6074
  6246  00194C                     u5240:
  6247  00194C  802A               	bsf	___fldiv@bexp^0,0,c
  6248  00194E                     l6074:
  6249  00194E  502A               	movf	___fldiv@bexp^0,w,c
  6250  001950  B4D8               	btfsc	status,2,c
  6251  001952  EFAD  F00C         	goto	u5251
  6252  001956  EFAF  F00C         	goto	u5250
  6253  00195A                     u5251:
  6254  00195A  EFC4  F00C         	goto	l6084
  6255  00195E                     u5250:
  6256  00195E  282A               	incf	___fldiv@bexp^0,w,c
  6257  001960  A4D8               	btfss	status,2,c
  6258  001962  EFB5  F00C         	goto	u5261
  6259  001966  EFB7  F00C         	goto	u5260
  6260  00196A                     u5261:
  6261  00196A  EFBF  F00C         	goto	l6080
  6262  00196E                     u5260:
  6263  00196E  0E00               	movlw	0
  6264  001970  6E13               	movwf	___fldiv@b^0,c
  6265  001972  0E00               	movlw	0
  6266  001974  6E14               	movwf	(___fldiv@b+1)^0,c
  6267  001976  0E00               	movlw	0
  6268  001978  6E15               	movwf	(___fldiv@b+2)^0,c
  6269  00197A  0E00               	movlw	0
  6270  00197C  6E16               	movwf	(___fldiv@b+3)^0,c
  6271  00197E                     l6080:
  6272  00197E  8E15               	bsf	(___fldiv@b+2)^0,7,c
  6273  001980  0E00               	movlw	0
  6274  001982  6E16               	movwf	(___fldiv@b+3)^0,c
  6275  001984  EFCC  F00C         	goto	l6086
  6276  001988                     l6084:
  6277  001988  0E00               	movlw	0
  6278  00198A  6E13               	movwf	___fldiv@b^0,c
  6279  00198C  0E00               	movlw	0
  6280  00198E  6E14               	movwf	(___fldiv@b+1)^0,c
  6281  001990  0E00               	movlw	0
  6282  001992  6E15               	movwf	(___fldiv@b+2)^0,c
  6283  001994  0E00               	movlw	0
  6284  001996  6E16               	movwf	(___fldiv@b+3)^0,c
  6285  001998                     l6086:
  6286  001998  501A               	movf	(___fldiv@a+3)^0,w,c
  6287  00199A  0B80               	andlw	128
  6288  00199C  1A23               	xorwf	___fldiv@sign^0,f,c
  6289  00199E  501A               	movf	(___fldiv@a+3)^0,w,c
  6290  0019A0  241A               	addwf	(___fldiv@a+3)^0,w,c
  6291  0019A2  6E2B               	movwf	___fldiv@aexp^0,c
  6292  0019A4  AE19               	btfss	(___fldiv@a+2)^0,7,c
  6293  0019A6  EFD7  F00C         	goto	u5271
  6294  0019AA  EFD9  F00C         	goto	u5270
  6295  0019AE                     u5271:
  6296  0019AE  EFDA  F00C         	goto	l6094
  6297  0019B2                     u5270:
  6298  0019B2  802B               	bsf	___fldiv@aexp^0,0,c
  6299  0019B4                     l6094:
  6300  0019B4  502B               	movf	___fldiv@aexp^0,w,c
  6301  0019B6  B4D8               	btfsc	status,2,c
  6302  0019B8  EFE0  F00C         	goto	u5281
  6303  0019BC  EFE2  F00C         	goto	u5280
  6304  0019C0                     u5281:
  6305  0019C0  EFF7  F00C         	goto	l6104
  6306  0019C4                     u5280:
  6307  0019C4  282B               	incf	___fldiv@aexp^0,w,c
  6308  0019C6  A4D8               	btfss	status,2,c
  6309  0019C8  EFE8  F00C         	goto	u5291
  6310  0019CC  EFEA  F00C         	goto	u5290
  6311  0019D0                     u5291:
  6312  0019D0  EFF2  F00C         	goto	l6100
  6313  0019D4                     u5290:
  6314  0019D4  0E00               	movlw	0
  6315  0019D6  6E17               	movwf	___fldiv@a^0,c
  6316  0019D8  0E00               	movlw	0
  6317  0019DA  6E18               	movwf	(___fldiv@a+1)^0,c
  6318  0019DC  0E00               	movlw	0
  6319  0019DE  6E19               	movwf	(___fldiv@a+2)^0,c
  6320  0019E0  0E00               	movlw	0
  6321  0019E2  6E1A               	movwf	(___fldiv@a+3)^0,c
  6322  0019E4                     l6100:
  6323  0019E4  8E19               	bsf	(___fldiv@a+2)^0,7,c
  6324  0019E6  0E00               	movlw	0
  6325  0019E8  6E1A               	movwf	(___fldiv@a+3)^0,c
  6326  0019EA  EFFF  F00C         	goto	l6106
  6327  0019EE                     l6104:
  6328  0019EE  0E00               	movlw	0
  6329  0019F0  6E17               	movwf	___fldiv@a^0,c
  6330  0019F2  0E00               	movlw	0
  6331  0019F4  6E18               	movwf	(___fldiv@a+1)^0,c
  6332  0019F6  0E00               	movlw	0
  6333  0019F8  6E19               	movwf	(___fldiv@a+2)^0,c
  6334  0019FA  0E00               	movlw	0
  6335  0019FC  6E1A               	movwf	(___fldiv@a+3)^0,c
  6336  0019FE                     l6106:
  6337  0019FE  5017               	movf	___fldiv@a^0,w,c
  6338  001A00  1018               	iorwf	(___fldiv@a+1)^0,w,c
  6339  001A02  1019               	iorwf	(___fldiv@a+2)^0,w,c
  6340  001A04  101A               	iorwf	(___fldiv@a+3)^0,w,c
  6341  001A06  A4D8               	btfss	status,2,c
  6342  001A08  EF08  F00D         	goto	u5301
  6343  001A0C  EF0A  F00D         	goto	u5300
  6344  001A10                     u5301:
  6345  001A10  EF22  F00D         	goto	l6118
  6346  001A14                     u5300:
  6347  001A14  0E00               	movlw	0
  6348  001A16  6E13               	movwf	___fldiv@b^0,c
  6349  001A18  0E00               	movlw	0
  6350  001A1A  6E14               	movwf	(___fldiv@b+1)^0,c
  6351  001A1C  0E00               	movlw	0
  6352  001A1E  6E15               	movwf	(___fldiv@b+2)^0,c
  6353  001A20  0E00               	movlw	0
  6354  001A22  6E16               	movwf	(___fldiv@b+3)^0,c
  6355  001A24  0E80               	movlw	128
  6356  001A26  1215               	iorwf	(___fldiv@b+2)^0,f,c
  6357  001A28  0E7F               	movlw	127
  6358  001A2A  1216               	iorwf	(___fldiv@b+3)^0,f,c
  6359  001A2C                     l6112:
  6360  001A2C  5023               	movf	___fldiv@sign^0,w,c
  6361  001A2E  1216               	iorwf	(___fldiv@b+3)^0,f,c
  6362  001A30  C013  F013         	movff	___fldiv@b,?___fldiv
  6363  001A34  C014  F014         	movff	___fldiv@b+1,?___fldiv+1
  6364  001A38  C015  F015         	movff	___fldiv@b+2,?___fldiv+2
  6365  001A3C  C016  F016         	movff	___fldiv@b+3,?___fldiv+3
  6366  001A40  EF65  F00E         	goto	l2420
  6367  001A44                     l6118:
  6368  001A44  502A               	movf	___fldiv@bexp^0,w,c
  6369  001A46  A4D8               	btfss	status,2,c
  6370  001A48  EF28  F00D         	goto	u5311
  6371  001A4C  EF2A  F00D         	goto	u5310
  6372  001A50                     u5311:
  6373  001A50  EF34  F00D         	goto	l6126
  6374  001A54                     u5310:
  6375  001A54  0E00               	movlw	0
  6376  001A56  6E13               	movwf	?___fldiv^0,c
  6377  001A58  0E00               	movlw	0
  6378  001A5A  6E14               	movwf	(?___fldiv+1)^0,c
  6379  001A5C  0E00               	movlw	0
  6380  001A5E  6E15               	movwf	(?___fldiv+2)^0,c
  6381  001A60  0E00               	movlw	0
  6382  001A62  6E16               	movwf	(?___fldiv+3)^0,c
  6383  001A64  EF65  F00E         	goto	l2420
  6384  001A68                     l6126:
  6385  001A68  502B               	movf	___fldiv@aexp^0,w,c
  6386  001A6A  C02A  F01B         	movff	___fldiv@bexp,??___fldiv
  6387  001A6E  6A1C               	clrf	(??___fldiv+1)^0,c
  6388  001A70  5E1B               	subwf	??___fldiv^0,f,c
  6389  001A72  0E00               	movlw	0
  6390  001A74  5A1C               	subwfb	(??___fldiv+1)^0,f,c
  6391  001A76  0E7F               	movlw	127
  6392  001A78  241B               	addwf	??___fldiv^0,w,c
  6393  001A7A  6E24               	movwf	___fldiv@new_exp^0,c
  6394  001A7C  0E00               	movlw	0
  6395  001A7E  201C               	addwfc	(??___fldiv+1)^0,w,c
  6396  001A80  6E25               	movwf	(___fldiv@new_exp+1)^0,c
  6397  001A82  C013  F01F         	movff	___fldiv@b,___fldiv@rem
  6398  001A86  C014  F020         	movff	___fldiv@b+1,___fldiv@rem+1
  6399  001A8A  C015  F021         	movff	___fldiv@b+2,___fldiv@rem+2
  6400  001A8E  C016  F022         	movff	___fldiv@b+3,___fldiv@rem+3
  6401  001A92  0E00               	movlw	0
  6402  001A94  6E13               	movwf	___fldiv@b^0,c
  6403  001A96  0E00               	movlw	0
  6404  001A98  6E14               	movwf	(___fldiv@b+1)^0,c
  6405  001A9A  0E00               	movlw	0
  6406  001A9C  6E15               	movwf	(___fldiv@b+2)^0,c
  6407  001A9E  0E00               	movlw	0
  6408  001AA0  6E16               	movwf	(___fldiv@b+3)^0,c
  6409  001AA2  0E00               	movlw	0
  6410  001AA4  6E26               	movwf	___fldiv@grs^0,c
  6411  001AA6  0E00               	movlw	0
  6412  001AA8  6E27               	movwf	(___fldiv@grs+1)^0,c
  6413  001AAA  0E00               	movlw	0
  6414  001AAC  6E28               	movwf	(___fldiv@grs+2)^0,c
  6415  001AAE  0E00               	movlw	0
  6416  001AB0  6E29               	movwf	(___fldiv@grs+3)^0,c
  6417  001AB2  0E00               	movlw	0
  6418  001AB4  6E2B               	movwf	___fldiv@aexp^0,c
  6419  001AB6  EF95  F00D         	goto	l2422
  6420  001ABA                     l6136:
  6421  001ABA  502B               	movf	___fldiv@aexp^0,w,c
  6422  001ABC  B4D8               	btfsc	status,2,c
  6423  001ABE  EF63  F00D         	goto	u5321
  6424  001AC2  EF65  F00D         	goto	u5320
  6425  001AC6                     u5321:
  6426  001AC6  EF7C  F00D         	goto	l6144
  6427  001ACA                     u5320:
  6428  001ACA  90D8               	bcf	status,0,c
  6429  001ACC  361F               	rlcf	___fldiv@rem^0,f,c
  6430  001ACE  3620               	rlcf	(___fldiv@rem+1)^0,f,c
  6431  001AD0  3621               	rlcf	(___fldiv@rem+2)^0,f,c
  6432  001AD2  3622               	rlcf	(___fldiv@rem+3)^0,f,c
  6433  001AD4  90D8               	bcf	status,0,c
  6434  001AD6  3613               	rlcf	___fldiv@b^0,f,c
  6435  001AD8  3614               	rlcf	(___fldiv@b+1)^0,f,c
  6436  001ADA  3615               	rlcf	(___fldiv@b+2)^0,f,c
  6437  001ADC  3616               	rlcf	(___fldiv@b+3)^0,f,c
  6438  001ADE  AE29               	btfss	(___fldiv@grs+3)^0,7,c
  6439  001AE0  EF74  F00D         	goto	u5331
  6440  001AE4  EF76  F00D         	goto	u5330
  6441  001AE8                     u5331:
  6442  001AE8  EF77  F00D         	goto	l2425
  6443  001AEC                     u5330:
  6444  001AEC  8013               	bsf	___fldiv@b^0,0,c
  6445  001AEE                     l2425:
  6446  001AEE  90D8               	bcf	status,0,c
  6447  001AF0  3626               	rlcf	___fldiv@grs^0,f,c
  6448  001AF2  3627               	rlcf	(___fldiv@grs+1)^0,f,c
  6449  001AF4  3628               	rlcf	(___fldiv@grs+2)^0,f,c
  6450  001AF6  3629               	rlcf	(___fldiv@grs+3)^0,f,c
  6451  001AF8                     l6144:
  6452  001AF8  5017               	movf	___fldiv@a^0,w,c
  6453  001AFA  5C1F               	subwf	___fldiv@rem^0,w,c
  6454  001AFC  5018               	movf	(___fldiv@a+1)^0,w,c
  6455  001AFE  5820               	subwfb	(___fldiv@rem+1)^0,w,c
  6456  001B00  5019               	movf	(___fldiv@a+2)^0,w,c
  6457  001B02  5821               	subwfb	(___fldiv@rem+2)^0,w,c
  6458  001B04  501A               	movf	(___fldiv@a+3)^0,w,c
  6459  001B06  5822               	subwfb	(___fldiv@rem+3)^0,w,c
  6460  001B08  A0D8               	btfss	status,0,c
  6461  001B0A  EF89  F00D         	goto	u5341
  6462  001B0E  EF8B  F00D         	goto	u5340
  6463  001B12                     u5341:
  6464  001B12  EF94  F00D         	goto	l6150
  6465  001B16                     u5340:
  6466  001B16  8C29               	bsf	(___fldiv@grs+3)^0,6,c
  6467  001B18  5017               	movf	___fldiv@a^0,w,c
  6468  001B1A  5E1F               	subwf	___fldiv@rem^0,f,c
  6469  001B1C  5018               	movf	(___fldiv@a+1)^0,w,c
  6470  001B1E  5A20               	subwfb	(___fldiv@rem+1)^0,f,c
  6471  001B20  5019               	movf	(___fldiv@a+2)^0,w,c
  6472  001B22  5A21               	subwfb	(___fldiv@rem+2)^0,f,c
  6473  001B24  501A               	movf	(___fldiv@a+3)^0,w,c
  6474  001B26  5A22               	subwfb	(___fldiv@rem+3)^0,f,c
  6475  001B28                     l6150:
  6476  001B28  2A2B               	incf	___fldiv@aexp^0,f,c
  6477  001B2A                     l2422:
  6478  001B2A  0E19               	movlw	25
  6479  001B2C  642B               	cpfsgt	___fldiv@aexp^0,c
  6480  001B2E  EF9B  F00D         	goto	u5351
  6481  001B32  EF9D  F00D         	goto	u5350
  6482  001B36                     u5351:
  6483  001B36  EF5D  F00D         	goto	l6136
  6484  001B3A                     u5350:
  6485  001B3A  501F               	movf	___fldiv@rem^0,w,c
  6486  001B3C  1020               	iorwf	(___fldiv@rem+1)^0,w,c
  6487  001B3E  1021               	iorwf	(___fldiv@rem+2)^0,w,c
  6488  001B40  1022               	iorwf	(___fldiv@rem+3)^0,w,c
  6489  001B42  B4D8               	btfsc	status,2,c
  6490  001B44  EFA6  F00D         	goto	u5361
  6491  001B48  EFA8  F00D         	goto	u5360
  6492  001B4C                     u5361:
  6493  001B4C  EFC0  F00D         	goto	l6162
  6494  001B50                     u5360:
  6495  001B50  8026               	bsf	___fldiv@grs^0,0,c
  6496  001B52  EFC0  F00D         	goto	l6162
  6497  001B56                     l6156:
  6498  001B56  90D8               	bcf	status,0,c
  6499  001B58  3613               	rlcf	___fldiv@b^0,f,c
  6500  001B5A  3614               	rlcf	(___fldiv@b+1)^0,f,c
  6501  001B5C  3615               	rlcf	(___fldiv@b+2)^0,f,c
  6502  001B5E  3616               	rlcf	(___fldiv@b+3)^0,f,c
  6503  001B60  AE29               	btfss	(___fldiv@grs+3)^0,7,c
  6504  001B62  EFB5  F00D         	goto	u5371
  6505  001B66  EFB7  F00D         	goto	u5370
  6506  001B6A                     u5371:
  6507  001B6A  EFB8  F00D         	goto	l2431
  6508  001B6E                     u5370:
  6509  001B6E  8013               	bsf	___fldiv@b^0,0,c
  6510  001B70                     l2431:
  6511  001B70  90D8               	bcf	status,0,c
  6512  001B72  3626               	rlcf	___fldiv@grs^0,f,c
  6513  001B74  3627               	rlcf	(___fldiv@grs+1)^0,f,c
  6514  001B76  3628               	rlcf	(___fldiv@grs+2)^0,f,c
  6515  001B78  3629               	rlcf	(___fldiv@grs+3)^0,f,c
  6516  001B7A  0624               	decf	___fldiv@new_exp^0,f,c
  6517  001B7C  A0D8               	btfss	status,0,c
  6518  001B7E  0625               	decf	(___fldiv@new_exp+1)^0,f,c
  6519  001B80                     l6162:
  6520  001B80  AE15               	btfss	(___fldiv@b+2)^0,7,c
  6521  001B82  EFC5  F00D         	goto	u5381
  6522  001B86  EFC7  F00D         	goto	u5380
  6523  001B8A                     u5381:
  6524  001B8A  EFAB  F00D         	goto	l6156
  6525  001B8E                     u5380:
  6526  001B8E  0E00               	movlw	0
  6527  001B90  6E2B               	movwf	___fldiv@aexp^0,c
  6528  001B92  AE29               	btfss	(___fldiv@grs+3)^0,7,c
  6529  001B94  EFCE  F00D         	goto	u5391
  6530  001B98  EFD0  F00D         	goto	u5390
  6531  001B9C                     u5391:
  6532  001B9C  EFF4  F00D         	goto	l2433
  6533  001BA0                     u5390:
  6534  001BA0  0EFF               	movlw	255
  6535  001BA2  1426               	andwf	___fldiv@grs^0,w,c
  6536  001BA4  6E1B               	movwf	??___fldiv^0,c
  6537  001BA6  0EFF               	movlw	255
  6538  001BA8  1427               	andwf	(___fldiv@grs+1)^0,w,c
  6539  001BAA  6E1C               	movwf	(??___fldiv+1)^0,c
  6540  001BAC  0EFF               	movlw	255
  6541  001BAE  1428               	andwf	(___fldiv@grs+2)^0,w,c
  6542  001BB0  6E1D               	movwf	(??___fldiv+2)^0,c
  6543  001BB2  0E7F               	movlw	127
  6544  001BB4  1429               	andwf	(___fldiv@grs+3)^0,w,c
  6545  001BB6  6E1E               	movwf	(??___fldiv+3)^0,c
  6546  001BB8  501B               	movf	??___fldiv^0,w,c
  6547  001BBA  101C               	iorwf	(??___fldiv+1)^0,w,c
  6548  001BBC  101D               	iorwf	(??___fldiv+2)^0,w,c
  6549  001BBE  101E               	iorwf	(??___fldiv+3)^0,w,c
  6550  001BC0  B4D8               	btfsc	status,2,c
  6551  001BC2  EFE5  F00D         	goto	u5401
  6552  001BC6  EFE7  F00D         	goto	u5400
  6553  001BCA                     u5401:
  6554  001BCA  EFEB  F00D         	goto	l2434
  6555  001BCE                     u5400:
  6556  001BCE                     l6170:
  6557  001BCE  0E01               	movlw	1
  6558  001BD0  6E2B               	movwf	___fldiv@aexp^0,c
  6559  001BD2  EFF4  F00D         	goto	l2433
  6560  001BD6                     l2434:
  6561  001BD6  A013               	btfss	___fldiv@b^0,0,c
  6562  001BD8  EFF0  F00D         	goto	u5411
  6563  001BDC  EFF2  F00D         	goto	u5410
  6564  001BE0                     u5411:
  6565  001BE0  EFF4  F00D         	goto	l2433
  6566  001BE4                     u5410:
  6567  001BE4  EFE7  F00D         	goto	l6170
  6568  001BE8                     l2433:
  6569  001BE8  502B               	movf	___fldiv@aexp^0,w,c
  6570  001BEA  B4D8               	btfsc	status,2,c
  6571  001BEC  EFFA  F00D         	goto	u5421
  6572  001BF0  EFFC  F00D         	goto	u5420
  6573  001BF4                     u5421:
  6574  001BF4  EF20  F00E         	goto	l6182
  6575  001BF8                     u5420:
  6576  001BF8  0E01               	movlw	1
  6577  001BFA  2613               	addwf	___fldiv@b^0,f,c
  6578  001BFC  0E00               	movlw	0
  6579  001BFE  2214               	addwfc	(___fldiv@b+1)^0,f,c
  6580  001C00  2215               	addwfc	(___fldiv@b+2)^0,f,c
  6581  001C02  2216               	addwfc	(___fldiv@b+3)^0,f,c
  6582  001C04  A016               	btfss	(___fldiv@b+3)^0,0,c
  6583  001C06  EF07  F00E         	goto	u5431
  6584  001C0A  EF09  F00E         	goto	u5430
  6585  001C0E                     u5431:
  6586  001C0E  EF20  F00E         	goto	l6182
  6587  001C12                     u5430:
  6588  001C12  C013  F01B         	movff	___fldiv@b,??___fldiv
  6589  001C16  C014  F01C         	movff	___fldiv@b+1,??___fldiv+1
  6590  001C1A  C015  F01D         	movff	___fldiv@b+2,??___fldiv+2
  6591  001C1E  C016  F01E         	movff	___fldiv@b+3,??___fldiv+3
  6592  001C22  341E               	rlcf	(??___fldiv+3)^0,w,c
  6593  001C24  321E               	rrcf	(??___fldiv+3)^0,f,c
  6594  001C26  321D               	rrcf	(??___fldiv+2)^0,f,c
  6595  001C28  321C               	rrcf	(??___fldiv+1)^0,f,c
  6596  001C2A  321B               	rrcf	??___fldiv^0,f,c
  6597  001C2C  C01B  F013         	movff	??___fldiv,___fldiv@b
  6598  001C30  C01C  F014         	movff	??___fldiv+1,___fldiv@b+1
  6599  001C34  C01D  F015         	movff	??___fldiv+2,___fldiv@b+2
  6600  001C38  C01E  F016         	movff	??___fldiv+3,___fldiv@b+3
  6601  001C3C  4A24               	infsnz	___fldiv@new_exp^0,f,c
  6602  001C3E  2A25               	incf	(___fldiv@new_exp+1)^0,f,c
  6603  001C40                     l6182:
  6604  001C40  BE25               	btfsc	(___fldiv@new_exp+1)^0,7,c
  6605  001C42  EF2B  F00E         	goto	u5441
  6606  001C46  5025               	movf	(___fldiv@new_exp+1)^0,w,c
  6607  001C48  E108               	bnz	u5440
  6608  001C4A  2824               	incf	___fldiv@new_exp^0,w,c
  6609  001C4C  A0D8               	btfss	status,0,c
  6610  001C4E  EF2B  F00E         	goto	u5441
  6611  001C52  EF2D  F00E         	goto	u5440
  6612  001C56                     u5441:
  6613  001C56  EF38  F00E         	goto	l6186
  6614  001C5A                     u5440:
  6615  001C5A  0E00               	movlw	0
  6616  001C5C  6E25               	movwf	(___fldiv@new_exp+1)^0,c
  6617  001C5E  6824               	setf	___fldiv@new_exp^0,c
  6618  001C60  0E00               	movlw	0
  6619  001C62  6E13               	movwf	___fldiv@b^0,c
  6620  001C64  0E00               	movlw	0
  6621  001C66  6E14               	movwf	(___fldiv@b+1)^0,c
  6622  001C68  0E00               	movlw	0
  6623  001C6A  6E15               	movwf	(___fldiv@b+2)^0,c
  6624  001C6C  0E00               	movlw	0
  6625  001C6E  6E16               	movwf	(___fldiv@b+3)^0,c
  6626  001C70                     l6186:
  6627  001C70  BE25               	btfsc	(___fldiv@new_exp+1)^0,7,c
  6628  001C72  EF45  F00E         	goto	u5450
  6629  001C76  5025               	movf	(___fldiv@new_exp+1)^0,w,c
  6630  001C78  E106               	bnz	u5451
  6631  001C7A  0424               	decf	___fldiv@new_exp^0,w,c
  6632  001C7C  B0D8               	btfsc	status,0,c
  6633  001C7E  EF43  F00E         	goto	u5451
  6634  001C82  EF45  F00E         	goto	u5450
  6635  001C86                     u5451:
  6636  001C86  EF53  F00E         	goto	l6190
  6637  001C8A                     u5450:
  6638  001C8A  0E00               	movlw	0
  6639  001C8C  6E25               	movwf	(___fldiv@new_exp+1)^0,c
  6640  001C8E  0E00               	movlw	0
  6641  001C90  6E24               	movwf	___fldiv@new_exp^0,c
  6642  001C92  0E00               	movlw	0
  6643  001C94  6E13               	movwf	___fldiv@b^0,c
  6644  001C96  0E00               	movlw	0
  6645  001C98  6E14               	movwf	(___fldiv@b+1)^0,c
  6646  001C9A  0E00               	movlw	0
  6647  001C9C  6E15               	movwf	(___fldiv@b+2)^0,c
  6648  001C9E  0E00               	movlw	0
  6649  001CA0  6E16               	movwf	(___fldiv@b+3)^0,c
  6650  001CA2  0E00               	movlw	0
  6651  001CA4  6E23               	movwf	___fldiv@sign^0,c
  6652  001CA6                     l6190:
  6653  001CA6  C024  F02A         	movff	___fldiv@new_exp,___fldiv@bexp
  6654  001CAA  A02A               	btfss	___fldiv@bexp^0,0,c
  6655  001CAC  EF5A  F00E         	goto	u5461
  6656  001CB0  EF5C  F00E         	goto	u5460
  6657  001CB4                     u5461:
  6658  001CB4  EF5F  F00E         	goto	l6196
  6659  001CB8                     u5460:
  6660  001CB8  8E15               	bsf	(___fldiv@b+2)^0,7,c
  6661  001CBA  EF60  F00E         	goto	l6198
  6662  001CBE                     l6196:
  6663  001CBE  9E15               	bcf	(___fldiv@b+2)^0,7,c
  6664  001CC0                     l6198:
  6665  001CC0  90D8               	bcf	status,0,c
  6666  001CC2  302A               	rrcf	___fldiv@bexp^0,w,c
  6667  001CC4  6E16               	movwf	(___fldiv@b+3)^0,c
  6668  001CC6  EF16  F00D         	goto	l6112
  6669  001CCA                     l2420:
  6670  001CCA  0012               	return		;funcret
  6671  001CCC                     __end_of___fldiv:
  6672                           	callstack 0
  6673                           
  6674 ;; *************** function _ECU_DC_Motor_Run_Left *****************
  6675 ;; Defined at:
  6676 ;;		line 39 in file "ECU/DC_Motor/ecu_dc_motor.c"
  6677 ;; Parameters:    Size  Location     Type
  6678 ;;  dc_motor        2   14[COMRAM] PTR const struct .
  6679 ;;		 -> W2_W4_W6_Motor_Control(1), W1_W3_W5_Motor_Control(1), 
  6680 ;; Auto vars:     Size  Location     Type
  6681 ;;  ret_value       1    0        unsigned char 
  6682 ;; Return value:  Size  Location     Type
  6683 ;;                  1    wreg      unsigned char 
  6684 ;; Registers used:
  6685 ;;		wreg, fsr2l, fsr2h, status,2, status,0, prodl, prodh, cstack
  6686 ;; Tracked objects:
  6687 ;;		On entry : 0/0
  6688 ;;		On exit  : 0/0
  6689 ;;		Unchanged: 0/0
  6690 ;; Data sizes:     COMRAM   BANK0   BANK1   BANK2   BANK3   BANK4   BANK5   BANK6   BANK7   BANK8   BANK9  BANK10  BANK1
      +1  BANK12  BANK13  BANK14  BANK15
  6691 ;;      Params:         2       0       0       0       0       0       0       0       0       0       0       0       
      +0       0       0       0       0
  6692 ;;      Locals:         0       0       0       0       0       0       0       0       0       0       0       0       
      +0       0       0       0       0
  6693 ;;      Temps:          0       0       0       0       0       0       0       0       0       0       0       0       
      +0       0       0       0       0
  6694 ;;      Totals:         2       0       0       0       0       0       0       0       0       0       0       0       
      +0       0       0       0       0
  6695 ;;Total ram usage:        2 bytes
  6696 ;; Hardware stack levels used: 1
  6697 ;; Hardware stack levels required when called: 5
  6698 ;; This function calls:
  6699 ;;		_GPIO_Pin_Write_Logic
  6700 ;; This function is called by:
  6701 ;;		_Robot_Move_Backward
  6702 ;; This function uses a non-reentrant model
  6703 ;;
  6704                           
  6705                           	psect	text34
  6706  0033A8                     __ptext34:
  6707                           	callstack 0
  6708  0033A8                     _ECU_DC_Motor_Run_Left:
  6709                           	callstack 24
  6710  0033A8                     
  6711                           ;ECU/DC_Motor/ecu_dc_motor.c: 42:     if(((void*)0) == dc_motor)
  6712  0033A8  500F               	movf	ECU_DC_Motor_Run_Left@dc_motor^0,w,c
  6713  0033AA  1010               	iorwf	(ECU_DC_Motor_Run_Left@dc_motor+1)^0,w,c
  6714  0033AC  A4D8               	btfss	status,2,c
  6715  0033AE  EFDB  F019         	goto	u6421
  6716  0033B2  EFDD  F019         	goto	u6420
  6717  0033B6                     u6421:
  6718  0033B6  EFDF  F019         	goto	l6842
  6719  0033BA                     u6420:
  6720  0033BA                     
  6721                           ;ECU/DC_Motor/ecu_dc_motor.c: 45:     }
  6722  0033BA  EFE7  F019         	goto	l60
  6723  0033BE                     l6842:
  6724                           
  6725                           ;ECU/DC_Motor/ecu_dc_motor.c: 47:     {;ECU/DC_Motor/ecu_dc_motor.c: 48:         GPIO_Pi
      +                          n_Write_Logic(&(dc_motor->dc_motor), GPIO_HIGH );
  6726  0033BE  C00F  F005         	movff	ECU_DC_Motor_Run_Left@dc_motor,GPIO_Pin_Write_Logic@_pin_config
  6727  0033C2  C010  F006         	movff	ECU_DC_Motor_Run_Left@dc_motor+1,GPIO_Pin_Write_Logic@_pin_config+1
  6728  0033C6  0E01               	movlw	1
  6729  0033C8  6E07               	movwf	GPIO_Pin_Write_Logic@logic^0,c
  6730  0033CA  EC58  F013         	call	_GPIO_Pin_Write_Logic	;wreg free
  6731  0033CE                     l60:
  6732  0033CE  0012               	return		;funcret
  6733  0033D0                     __end_of_ECU_DC_Motor_Run_Left:
  6734                           	callstack 0
  6735                           
  6736 ;; *************** function _GPIO_Pin_Write_Logic *****************
  6737 ;; Defined at:
  6738 ;;		line 82 in file "MCAL/GPIO/hal_gpio.c"
  6739 ;; Parameters:    Size  Location     Type
  6740 ;;  _pin_config     2    4[COMRAM] PTR const struct .
  6741 ;;		 -> pinc0(1), CCP2_Obj(12), CCP1_Obj(12), W2_W4_W6_Motor_Control(1), 
  6742 ;;		 -> W1_W3_W5_Motor_Control(1), 
  6743 ;;  logic           1    6[COMRAM] enum E3185
  6744 ;; Auto vars:     Size  Location     Type
  6745 ;;  ERRORSTATUS     1   13[COMRAM] unsigned char 
  6746 ;; Return value:  Size  Location     Type
  6747 ;;                  1    wreg      unsigned char 
  6748 ;; Registers used:
  6749 ;;		wreg, fsr2l, fsr2h, status,2, status,0, prodl, prodh
  6750 ;; Tracked objects:
  6751 ;;		On entry : 0/0
  6752 ;;		On exit  : 0/0
  6753 ;;		Unchanged: 0/0
  6754 ;; Data sizes:     COMRAM   BANK0   BANK1   BANK2   BANK3   BANK4   BANK5   BANK6   BANK7   BANK8   BANK9  BANK10  BANK1
      +1  BANK12  BANK13  BANK14  BANK15
  6755 ;;      Params:         3       0       0       0       0       0       0       0       0       0       0       0       
      +0       0       0       0       0
  6756 ;;      Locals:         1       0       0       0       0       0       0       0       0       0       0       0       
      +0       0       0       0       0
  6757 ;;      Temps:          6       0       0       0       0       0       0       0       0       0       0       0       
      +0       0       0       0       0
  6758 ;;      Totals:        10       0       0       0       0       0       0       0       0       0       0       0       
      +0       0       0       0       0
  6759 ;;Total ram usage:       10 bytes
  6760 ;; Hardware stack levels used: 1
  6761 ;; Hardware stack levels required when called: 4
  6762 ;; This function calls:
  6763 ;;		Nothing
  6764 ;; This function is called by:
  6765 ;;		_ECU_DC_Motor_Run_Left
  6766 ;;		_ECU_DC_Motor_Run_Right
  6767 ;;		_GPIO_Pin_Initialize
  6768 ;;		_lcd_4bit_send_command
  6769 ;;		_lcd_4bit_send_char_data
  6770 ;;		_lcd_8bit_send_command
  6771 ;;		_lcd_8bit_send_char_data
  6772 ;;		_lcd_4bits_send_enable_signal
  6773 ;;		_lcd_send_4bits
  6774 ;;		_lcd_8bits_send_enable_signal
  6775 ;;		_Ecu_Stepper_Init
  6776 ;;		_Ecu_Stepper_Step
  6777 ;;		_Ecu_Stepper_Change_Direction
  6778 ;;		_send_trig_pulse
  6779 ;; This function uses a non-reentrant model
  6780 ;;
  6781                           
  6782                           	psect	text35
  6783  0026B0                     __ptext35:
  6784                           	callstack 0
  6785  0026B0                     _GPIO_Pin_Write_Logic:
  6786                           	callstack 22
  6787  0026B0                     
  6788                           ;MCAL/GPIO/hal_gpio.c: 82: Std_ReturnType GPIO_Pin_Write_Logic (const pin_config_st * _p
      +                          in_config, logic_et logic);MCAL/GPIO/hal_gpio.c: 83: {;MCAL/GPIO/hal_gpio.c: 84:       S
      +                          td_ReturnType ERRORSTATUS = (Std_ReturnType) 0x01;
  6789  0026B0  0E01               	movlw	1
  6790  0026B2  6E0E               	movwf	GPIO_Pin_Write_Logic@ERRORSTATUS^0,c
  6791  0026B4                     
  6792                           ;MCAL/GPIO/hal_gpio.c: 85:      if ( ((void*)0)==_pin_config||_pin_config->pin> 8 -1)
  6793  0026B4  5005               	movf	GPIO_Pin_Write_Logic@_pin_config^0,w,c
  6794  0026B6  1006               	iorwf	(GPIO_Pin_Write_Logic@_pin_config+1)^0,w,c
  6795  0026B8  B4D8               	btfsc	status,2,c
  6796  0026BA  EF61  F013         	goto	u5641
  6797  0026BE  EF63  F013         	goto	u5640
  6798  0026C2                     u5641:
  6799  0026C2  EF72  F013         	goto	l6302
  6800  0026C6                     u5640:
  6801  0026C6  C005  FFD9         	movff	GPIO_Pin_Write_Logic@_pin_config,fsr2l
  6802  0026CA  C006  FFDA         	movff	GPIO_Pin_Write_Logic@_pin_config+1,fsr2h
  6803  0026CE  50DF               	movf	223,w,c
  6804  0026D0  0B07               	andlw	7
  6805  0026D2  6E08               	movwf	??_GPIO_Pin_Write_Logic^0,c
  6806  0026D4  0E07               	movlw	7
  6807  0026D6  6408               	cpfsgt	??_GPIO_Pin_Write_Logic^0,c
  6808  0026D8  EF70  F013         	goto	u5651
  6809  0026DC  EF72  F013         	goto	u5650
  6810  0026E0                     u5651:
  6811  0026E0  EFD5  F013         	goto	l6310
  6812  0026E4                     u5650:
  6813  0026E4                     l6302:
  6814                           
  6815                           ;MCAL/GPIO/hal_gpio.c: 86:     {;MCAL/GPIO/hal_gpio.c: 87:         ERRORSTATUS = (Std_Re
      +                          turnType) 0x00;
  6816  0026E4  0E00               	movlw	0
  6817  0026E6  6E0E               	movwf	GPIO_Pin_Write_Logic@ERRORSTATUS^0,c
  6818                           
  6819                           ;MCAL/GPIO/hal_gpio.c: 88:     }
  6820  0026E8  EFEA  F013         	goto	l6312
  6821  0026EC                     l6304:
  6822                           
  6823                           ;MCAL/GPIO/hal_gpio.c: 94:          (*lat_registers[_pin_config->port]&=~( (uint8)1<<_pi
      +                          n_config->pin ));
  6824  0026EC  C005  FFD9         	movff	GPIO_Pin_Write_Logic@_pin_config,fsr2l
  6825  0026F0  C006  FFDA         	movff	GPIO_Pin_Write_Logic@_pin_config+1,fsr2h
  6826  0026F4  50DF               	movf	223,w,c
  6827  0026F6  0B07               	andlw	7
  6828  0026F8  6E08               	movwf	??_GPIO_Pin_Write_Logic^0,c
  6829  0026FA  0E01               	movlw	1
  6830  0026FC  6E09               	movwf	(??_GPIO_Pin_Write_Logic+1)^0,c
  6831  0026FE  2A08               	incf	??_GPIO_Pin_Write_Logic^0,f,c
  6832  002700  EF84  F013         	goto	u5664
  6833  002704                     u5665:
  6834  002704  90D8               	bcf	status,0,c
  6835  002706  3609               	rlcf	(??_GPIO_Pin_Write_Logic+1)^0,f,c
  6836  002708                     u5664:
  6837  002708  2E08               	decfsz	??_GPIO_Pin_Write_Logic^0,f,c
  6838  00270A  EF82  F013         	goto	u5665
  6839  00270E  5009               	movf	(??_GPIO_Pin_Write_Logic+1)^0,w,c
  6840  002710  0AFF               	xorlw	255
  6841  002712  6E0A               	movwf	(??_GPIO_Pin_Write_Logic+2)^0,c
  6842  002714  C005  FFD9         	movff	GPIO_Pin_Write_Logic@_pin_config,fsr2l
  6843  002718  C006  FFDA         	movff	GPIO_Pin_Write_Logic@_pin_config+1,fsr2h
  6844  00271C  30DF               	rrcf	223,w,c
  6845  00271E  32E8               	rrcf	wreg,f,c
  6846  002720  32E8               	rrcf	wreg,f,c
  6847  002722  0B07               	andlw	7
  6848  002724  6E0B               	movwf	(??_GPIO_Pin_Write_Logic+3)^0,c
  6849  002726  500B               	movf	(??_GPIO_Pin_Write_Logic+3)^0,w,c
  6850  002728  0D02               	mullw	2
  6851  00272A  0E6A               	movlw	low _lat_registers
  6852  00272C  24F3               	addwf	243,w,c
  6853  00272E  6ED9               	movwf	fsr2l,c
  6854  002730  0E00               	movlw	high _lat_registers
  6855  002732  20F4               	addwfc	prodh,w,c
  6856  002734  6EDA               	movwf	fsr2h,c
  6857  002736  CFDE F00C          	movff	postinc2,??_GPIO_Pin_Write_Logic+4
  6858  00273A  CFDD F00D          	movff	postdec2,??_GPIO_Pin_Write_Logic+5
  6859  00273E  C00C  FFD9         	movff	??_GPIO_Pin_Write_Logic+4,fsr2l
  6860  002742  C00D  FFDA         	movff	??_GPIO_Pin_Write_Logic+5,fsr2h
  6861  002746  500A               	movf	(??_GPIO_Pin_Write_Logic+2)^0,w,c
  6862  002748  16DF               	andwf	indf2,f,c
  6863                           
  6864                           ;MCAL/GPIO/hal_gpio.c: 95:             break;
  6865  00274A  EFEA  F013         	goto	l6312
  6866  00274E                     l6306:
  6867                           
  6868                           ;MCAL/GPIO/hal_gpio.c: 97:           (*lat_registers[_pin_config->port]|=( (uint8)1<<_pi
      +                          n_config->pin ));
  6869  00274E  C005  FFD9         	movff	GPIO_Pin_Write_Logic@_pin_config,fsr2l
  6870  002752  C006  FFDA         	movff	GPIO_Pin_Write_Logic@_pin_config+1,fsr2h
  6871  002756  50DF               	movf	223,w,c
  6872  002758  0B07               	andlw	7
  6873  00275A  6E08               	movwf	??_GPIO_Pin_Write_Logic^0,c
  6874  00275C  0E01               	movlw	1
  6875  00275E  6E09               	movwf	(??_GPIO_Pin_Write_Logic+1)^0,c
  6876  002760  2A08               	incf	??_GPIO_Pin_Write_Logic^0,f,c
  6877  002762  EFB5  F013         	goto	u5674
  6878  002766                     u5675:
  6879  002766  90D8               	bcf	status,0,c
  6880  002768  3609               	rlcf	(??_GPIO_Pin_Write_Logic+1)^0,f,c
  6881  00276A                     u5674:
  6882  00276A  2E08               	decfsz	??_GPIO_Pin_Write_Logic^0,f,c
  6883  00276C  EFB3  F013         	goto	u5675
  6884  002770  C005  FFD9         	movff	GPIO_Pin_Write_Logic@_pin_config,fsr2l
  6885  002774  C006  FFDA         	movff	GPIO_Pin_Write_Logic@_pin_config+1,fsr2h
  6886  002778  30DF               	rrcf	223,w,c
  6887  00277A  32E8               	rrcf	wreg,f,c
  6888  00277C  32E8               	rrcf	wreg,f,c
  6889  00277E  0B07               	andlw	7
  6890  002780  6E0A               	movwf	(??_GPIO_Pin_Write_Logic+2)^0,c
  6891  002782  500A               	movf	(??_GPIO_Pin_Write_Logic+2)^0,w,c
  6892  002784  0D02               	mullw	2
  6893  002786  0E6A               	movlw	low _lat_registers
  6894  002788  24F3               	addwf	243,w,c
  6895  00278A  6ED9               	movwf	fsr2l,c
  6896  00278C  0E00               	movlw	high _lat_registers
  6897  00278E  20F4               	addwfc	prodh,w,c
  6898  002790  6EDA               	movwf	fsr2h,c
  6899  002792  CFDE F00B          	movff	postinc2,??_GPIO_Pin_Write_Logic+3
  6900  002796  CFDD F00C          	movff	postdec2,??_GPIO_Pin_Write_Logic+4
  6901  00279A  C00B  FFD9         	movff	??_GPIO_Pin_Write_Logic+3,fsr2l
  6902  00279E  C00C  FFDA         	movff	??_GPIO_Pin_Write_Logic+4,fsr2h
  6903  0027A2  5009               	movf	(??_GPIO_Pin_Write_Logic+1)^0,w,c
  6904  0027A4  12DF               	iorwf	indf2,f,c
  6905                           
  6906                           ;MCAL/GPIO/hal_gpio.c: 98:             break;
  6907  0027A6  EFEA  F013         	goto	l6312
  6908  0027AA                     l6310:
  6909  0027AA  5007               	movf	GPIO_Pin_Write_Logic@logic^0,w,c
  6910  0027AC  6E08               	movwf	??_GPIO_Pin_Write_Logic^0,c
  6911  0027AE  6A09               	clrf	(??_GPIO_Pin_Write_Logic+1)^0,c
  6912                           
  6913                           ; Switch on 2 bytes has been partitioned into a top level switch of size 1, and 1 sub-sw
      +                          itches
  6914                           ; Switch size 1, requested type "simple"
  6915                           ; Number of cases is 1, Range of values is 0 to 0
  6916                           ; switch strategies available:
  6917                           ; Name         Instructions Cycles
  6918                           ; simple_byte            4     3 (average)
  6919                           ;	Chosen strategy is simple_byte
  6920  0027B0  5009               	movf	(??_GPIO_Pin_Write_Logic+1)^0,w,c
  6921  0027B2  0A00               	xorlw	0	; case 0
  6922  0027B4  B4D8               	btfsc	status,2,c
  6923  0027B6  EFDF  F013         	goto	l8880
  6924  0027BA  EF72  F013         	goto	l6302
  6925  0027BE                     l8880:
  6926                           
  6927                           ; Switch size 1, requested type "simple"
  6928                           ; Number of cases is 2, Range of values is 0 to 1
  6929                           ; switch strategies available:
  6930                           ; Name         Instructions Cycles
  6931                           ; simple_byte            7     4 (average)
  6932                           ;	Chosen strategy is simple_byte
  6933  0027BE  5008               	movf	??_GPIO_Pin_Write_Logic^0,w,c
  6934  0027C0  0A00               	xorlw	0	; case 0
  6935  0027C2  B4D8               	btfsc	status,2,c
  6936  0027C4  EF76  F013         	goto	l6304
  6937  0027C8  0A01               	xorlw	1	; case 1
  6938  0027CA  B4D8               	btfsc	status,2,c
  6939  0027CC  EFA7  F013         	goto	l6306
  6940  0027D0  EF72  F013         	goto	l6302
  6941  0027D4                     l6312:
  6942                           
  6943                           ;MCAL/GPIO/hal_gpio.c: 104:      return ERRORSTATUS;
  6944  0027D4  500E               	movf	GPIO_Pin_Write_Logic@ERRORSTATUS^0,w,c
  6945  0027D6  0012               	return		;funcret
  6946  0027D8                     __end_of_GPIO_Pin_Write_Logic:
  6947                           	callstack 0
  6948                           
  6949 ;; *************** function _GPIO_Pin_Toggle_Logic *****************
  6950 ;; Defined at:
  6951 ;;		line 135 in file "MCAL/GPIO/hal_gpio.c"
  6952 ;; Parameters:    Size  Location     Type
  6953 ;;  _pin_config     2    4[COMRAM] PTR const struct .
  6954 ;;		 -> pinc0(1), 
  6955 ;; Auto vars:     Size  Location     Type
  6956 ;;  ERRORSTATUS     1    0        unsigned char 
  6957 ;; Return value:  Size  Location     Type
  6958 ;;                  1    wreg      unsigned char 
  6959 ;; Registers used:
  6960 ;;		wreg, fsr2l, fsr2h, status,2, status,0, prodl, prodh
  6961 ;; Tracked objects:
  6962 ;;		On entry : 0/0
  6963 ;;		On exit  : 0/0
  6964 ;;		Unchanged: 0/0
  6965 ;; Data sizes:     COMRAM   BANK0   BANK1   BANK2   BANK3   BANK4   BANK5   BANK6   BANK7   BANK8   BANK9  BANK10  BANK1
      +1  BANK12  BANK13  BANK14  BANK15
  6966 ;;      Params:         2       0       0       0       0       0       0       0       0       0       0       0       
      +0       0       0       0       0
  6967 ;;      Locals:         0       0       0       0       0       0       0       0       0       0       0       0       
      +0       0       0       0       0
  6968 ;;      Temps:          5       0       0       0       0       0       0       0       0       0       0       0       
      +0       0       0       0       0
  6969 ;;      Totals:         7       0       0       0       0       0       0       0       0       0       0       0       
      +0       0       0       0       0
  6970 ;;Total ram usage:        7 bytes
  6971 ;; Hardware stack levels used: 1
  6972 ;; Hardware stack levels required when called: 4
  6973 ;; This function calls:
  6974 ;;		Nothing
  6975 ;; This function is called by:
  6976 ;;		_main
  6977 ;; This function uses a non-reentrant model
  6978 ;;
  6979                           
  6980                           	psect	text36
  6981  002FF2                     __ptext36:
  6982                           	callstack 0
  6983  002FF2                     _GPIO_Pin_Toggle_Logic:
  6984                           	callstack 26
  6985  002FF2                     
  6986                           ;MCAL/GPIO/hal_gpio.c: 138:           if ( ((void*)0)==_pin_config)
  6987  002FF2  5005               	movf	GPIO_Pin_Toggle_Logic@_pin_config^0,w,c
  6988  002FF4  1006               	iorwf	(GPIO_Pin_Toggle_Logic@_pin_config+1)^0,w,c
  6989  002FF6  A4D8               	btfss	status,2,c
  6990  002FF8  EF00  F018         	goto	u6651
  6991  002FFC  EF02  F018         	goto	u6650
  6992  003000                     u6651:
  6993  003000  EF04  F018         	goto	l7074
  6994  003004                     u6650:
  6995  003004                     
  6996                           ;MCAL/GPIO/hal_gpio.c: 141:     }
  6997  003004  EF30  F018         	goto	l907
  6998  003008                     l7074:
  6999                           
  7000                           ;MCAL/GPIO/hal_gpio.c: 143:     {;MCAL/GPIO/hal_gpio.c: 144:       (*lat_registers[_pin_
      +                          config->port]^=( (uint8)1<<_pin_config->pin ));
  7001  003008  C005  FFD9         	movff	GPIO_Pin_Toggle_Logic@_pin_config,fsr2l
  7002  00300C  C006  FFDA         	movff	GPIO_Pin_Toggle_Logic@_pin_config+1,fsr2h
  7003  003010  50DF               	movf	223,w,c
  7004  003012  0B07               	andlw	7
  7005  003014  6E07               	movwf	??_GPIO_Pin_Toggle_Logic^0,c
  7006  003016  0E01               	movlw	1
  7007  003018  6E08               	movwf	(??_GPIO_Pin_Toggle_Logic+1)^0,c
  7008  00301A  2A07               	incf	??_GPIO_Pin_Toggle_Logic^0,f,c
  7009  00301C  EF12  F018         	goto	u6664
  7010  003020                     u6665:
  7011  003020  90D8               	bcf	status,0,c
  7012  003022  3608               	rlcf	(??_GPIO_Pin_Toggle_Logic+1)^0,f,c
  7013  003024                     u6664:
  7014  003024  2E07               	decfsz	??_GPIO_Pin_Toggle_Logic^0,f,c
  7015  003026  EF10  F018         	goto	u6665
  7016  00302A  C005  FFD9         	movff	GPIO_Pin_Toggle_Logic@_pin_config,fsr2l
  7017  00302E  C006  FFDA         	movff	GPIO_Pin_Toggle_Logic@_pin_config+1,fsr2h
  7018  003032  30DF               	rrcf	223,w,c
  7019  003034  32E8               	rrcf	wreg,f,c
  7020  003036  32E8               	rrcf	wreg,f,c
  7021  003038  0B07               	andlw	7
  7022  00303A  6E09               	movwf	(??_GPIO_Pin_Toggle_Logic+2)^0,c
  7023  00303C  5009               	movf	(??_GPIO_Pin_Toggle_Logic+2)^0,w,c
  7024  00303E  0D02               	mullw	2
  7025  003040  0E6A               	movlw	low _lat_registers
  7026  003042  24F3               	addwf	243,w,c
  7027  003044  6ED9               	movwf	fsr2l,c
  7028  003046  0E00               	movlw	high _lat_registers
  7029  003048  20F4               	addwfc	prodh,w,c
  7030  00304A  6EDA               	movwf	fsr2h,c
  7031  00304C  CFDE F00A          	movff	postinc2,??_GPIO_Pin_Toggle_Logic+3
  7032  003050  CFDD F00B          	movff	postdec2,??_GPIO_Pin_Toggle_Logic+4
  7033  003054  C00A  FFD9         	movff	??_GPIO_Pin_Toggle_Logic+3,fsr2l
  7034  003058  C00B  FFDA         	movff	??_GPIO_Pin_Toggle_Logic+4,fsr2h
  7035  00305C  5008               	movf	(??_GPIO_Pin_Toggle_Logic+1)^0,w,c
  7036  00305E  1ADF               	xorwf	indf2,f,c
  7037  003060                     l907:
  7038  003060  0012               	return		;funcret
  7039  003062                     __end_of_GPIO_Pin_Toggle_Logic:
  7040                           	callstack 0
  7041                           
  7042 ;; *************** function _InterruptManagerLow *****************
  7043 ;; Defined at:
  7044 ;;		line 101 in file "MCAL/Interrupts/mcal_interrupt_manager.c"
  7045 ;; Parameters:    Size  Location     Type
  7046 ;;		None
  7047 ;; Auto vars:     Size  Location     Type
  7048 ;;		None
  7049 ;; Return value:  Size  Location     Type
  7050 ;;                  1    wreg      void 
  7051 ;; Registers used:
  7052 ;;		wreg, status,2, cstack
  7053 ;; Tracked objects:
  7054 ;;		On entry : 0/0
  7055 ;;		On exit  : 0/0
  7056 ;;		Unchanged: 0/0
  7057 ;; Data sizes:     COMRAM   BANK0   BANK1   BANK2   BANK3   BANK4   BANK5   BANK6   BANK7   BANK8   BANK9  BANK10  BANK1
      +1  BANK12  BANK13  BANK14  BANK15
  7058 ;;      Params:         0       0       0       0       0       0       0       0       0       0       0       0       
      +0       0       0       0       0
  7059 ;;      Locals:         0       0       0       0       0       0       0       0       0       0       0       0       
      +0       0       0       0       0
  7060 ;;      Temps:          3       0       0       0       0       0       0       0       0       0       0       0       
      +0       0       0       0       0
  7061 ;;      Totals:         3       0       0       0       0       0       0       0       0       0       0       0       
      +0       0       0       0       0
  7062 ;;Total ram usage:        3 bytes
  7063 ;; Hardware stack levels used: 1
  7064 ;; Hardware stack levels required when called: 3
  7065 ;; This function calls:
  7066 ;;		_ADC_ISR
  7067 ;;		_INT1_ISR
  7068 ;;		_RB4_ISR
  7069 ;;		_RB5_ISR
  7070 ;;		_RB6_ISR
  7071 ;;		_RB7_ISR
  7072 ;; This function is called by:
  7073 ;;		Interrupt level 1
  7074 ;; This function uses a non-reentrant model
  7075 ;;
  7076                           
  7077                           	psect	intcodelo
  7078  000018                     __pintcodelo:
  7079                           	callstack 0
  7080  000018                     _InterruptManagerLow:
  7081                           	callstack 21
  7082                           
  7083                           ;incstack = 0
  7084  000018  805B               	bsf	int$flags,0,c	;set compiler interrupt flag (level 1)
  7085  00001A  CFD8 F002          	movff	status,??_InterruptManagerLow
  7086  00001E  CFE8 F003          	movff	wreg,??_InterruptManagerLow+1
  7087  000022  CFE0 F004          	movff	bsr,??_InterruptManagerLow+2
  7088  000026                     
  7089                           ;MCAL/Interrupts/mcal_interrupt_manager.c: 103:     if( (1 == INTCON3bits.INT1IE) && (1 
      +                          == INTCON3bits.INT1IF) )
  7090  000026  A6F0               	btfss	240,3,c	;volatile
  7091  000028  EF18  F000         	goto	i1u759_21
  7092  00002C  EF1A  F000         	goto	i1u759_20
  7093  000030                     i1u759_21:
  7094  000030  EF23  F000         	goto	i1l1150
  7095  000034                     i1u759_20:
  7096  000034  A0F0               	btfss	240,0,c	;volatile
  7097  000036  EF1F  F000         	goto	i1u760_21
  7098  00003A  EF21  F000         	goto	i1u760_20
  7099  00003E                     i1u760_21:
  7100  00003E  EF23  F000         	goto	i1l1150
  7101  000042                     i1u760_20:
  7102  000042                     
  7103                           ;MCAL/Interrupts/mcal_interrupt_manager.c: 104:     {;MCAL/Interrupts/mcal_interrupt_man
      +                          ager.c: 105:         INT1_ISR();
  7104  000042  EC4D  F01A         	call	_INT1_ISR	;wreg free
  7105  000046                     i1l1150:
  7106                           
  7107                           ;MCAL/Interrupts/mcal_interrupt_manager.c: 111:     if( (1 == INTCONbits.RBIE) && (1 == 
      +                          INTCONbits.RBIF) &&
  7108  000046  A6F2               	btfss	242,3,c	;volatile
  7109  000048  EF28  F000         	goto	i1u761_21
  7110  00004C  EF2A  F000         	goto	i1u761_20
  7111  000050                     i1u761_21:
  7112  000050  EF43  F000         	goto	i1l1152
  7113  000054                     i1u761_20:
  7114  000054  A0F2               	btfss	242,0,c	;volatile
  7115  000056  EF2F  F000         	goto	i1u762_21
  7116  00005A  EF31  F000         	goto	i1u762_20
  7117  00005E                     i1u762_21:
  7118  00005E  EF43  F000         	goto	i1l1152
  7119  000062                     i1u762_20:
  7120  000062  A881               	btfss	129,4,c	;volatile
  7121  000064  EF36  F000         	goto	i1u763_21
  7122  000068  EF38  F000         	goto	i1u763_20
  7123  00006C                     i1u763_21:
  7124  00006C  EF43  F000         	goto	i1l1152
  7125  000070                     i1u763_20:
  7126  000070  A059               	btfss	_flags^0,0,c	;volatile
  7127  000072  EF3D  F000         	goto	i1u764_21
  7128  000076  EF3F  F000         	goto	i1u764_20
  7129  00007A                     i1u764_21:
  7130  00007A  EF43  F000         	goto	i1l1152
  7131  00007E                     i1u764_20:
  7132  00007E                     
  7133                           ;MCAL/Interrupts/mcal_interrupt_manager.c: 113:     {;MCAL/Interrupts/mcal_interrupt_man
      +                          ager.c: 114:         flags.rb4_flag = 0x00 ;
  7134  00007E  9059               	bcf	_flags^0,0,c	;volatile
  7135  000080                     
  7136                           ;MCAL/Interrupts/mcal_interrupt_manager.c: 115:         RB4_ISR(0x01);
  7137  000080  0E01               	movlw	1
  7138  000082  EC34  F01A         	call	_RB4_ISR
  7139  000086                     i1l1152:
  7140                           
  7141                           ;MCAL/Interrupts/mcal_interrupt_manager.c: 119:     if( (1 == INTCONbits.RBIE) && (1 == 
      +                          INTCONbits.RBIF) &&
  7142  000086  A6F2               	btfss	242,3,c	;volatile
  7143  000088  EF48  F000         	goto	i1u765_21
  7144  00008C  EF4A  F000         	goto	i1u765_20
  7145  000090                     i1u765_21:
  7146  000090  EF63  F000         	goto	i1l1154
  7147  000094                     i1u765_20:
  7148  000094  A0F2               	btfss	242,0,c	;volatile
  7149  000096  EF4F  F000         	goto	i1u766_21
  7150  00009A  EF51  F000         	goto	i1u766_20
  7151  00009E                     i1u766_21:
  7152  00009E  EF63  F000         	goto	i1l1154
  7153  0000A2                     i1u766_20:
  7154  0000A2  B881               	btfsc	129,4,c	;volatile
  7155  0000A4  EF56  F000         	goto	i1u767_21
  7156  0000A8  EF58  F000         	goto	i1u767_20
  7157  0000AC                     i1u767_21:
  7158  0000AC  EF63  F000         	goto	i1l1154
  7159  0000B0                     i1u767_20:
  7160  0000B0  B059               	btfsc	_flags^0,0,c	;volatile
  7161  0000B2  EF5D  F000         	goto	i1u768_21
  7162  0000B6  EF5F  F000         	goto	i1u768_20
  7163  0000BA                     i1u768_21:
  7164  0000BA  EF63  F000         	goto	i1l1154
  7165  0000BE                     i1u768_20:
  7166  0000BE                     
  7167                           ;MCAL/Interrupts/mcal_interrupt_manager.c: 121:     {;MCAL/Interrupts/mcal_interrupt_man
      +                          ager.c: 122:         flags.rb4_flag = 0x01 ;
  7168  0000BE  8059               	bsf	_flags^0,0,c	;volatile
  7169  0000C0                     
  7170                           ;MCAL/Interrupts/mcal_interrupt_manager.c: 123:         RB4_ISR(0x00);
  7171  0000C0  0E00               	movlw	0
  7172  0000C2  EC34  F01A         	call	_RB4_ISR
  7173  0000C6                     i1l1154:
  7174                           
  7175                           ;MCAL/Interrupts/mcal_interrupt_manager.c: 128:     if( (1 == INTCONbits.RBIE) && (1 == 
      +                          INTCONbits.RBIF) &&
  7176  0000C6  A6F2               	btfss	242,3,c	;volatile
  7177  0000C8  EF68  F000         	goto	i1u769_21
  7178  0000CC  EF6A  F000         	goto	i1u769_20
  7179  0000D0                     i1u769_21:
  7180  0000D0  EF83  F000         	goto	i1l1156
  7181  0000D4                     i1u769_20:
  7182  0000D4  A0F2               	btfss	242,0,c	;volatile
  7183  0000D6  EF6F  F000         	goto	i1u770_21
  7184  0000DA  EF71  F000         	goto	i1u770_20
  7185  0000DE                     i1u770_21:
  7186  0000DE  EF83  F000         	goto	i1l1156
  7187  0000E2                     i1u770_20:
  7188  0000E2  AA81               	btfss	129,5,c	;volatile
  7189  0000E4  EF76  F000         	goto	i1u771_21
  7190  0000E8  EF78  F000         	goto	i1u771_20
  7191  0000EC                     i1u771_21:
  7192  0000EC  EF83  F000         	goto	i1l1156
  7193  0000F0                     i1u771_20:
  7194  0000F0  A259               	btfss	_flags^0,1,c	;volatile
  7195  0000F2  EF7D  F000         	goto	i1u772_21
  7196  0000F6  EF7F  F000         	goto	i1u772_20
  7197  0000FA                     i1u772_21:
  7198  0000FA  EF83  F000         	goto	i1l1156
  7199  0000FE                     i1u772_20:
  7200  0000FE                     
  7201                           ;MCAL/Interrupts/mcal_interrupt_manager.c: 130:     {;MCAL/Interrupts/mcal_interrupt_man
      +                          ager.c: 131:         flags.rb5_flag = 0x00 ;
  7202  0000FE  9259               	bcf	_flags^0,1,c	;volatile
  7203  000100                     
  7204                           ;MCAL/Interrupts/mcal_interrupt_manager.c: 132:         RB5_ISR(0x01);
  7205  000100  0E01               	movlw	1
  7206  000102  EC27  F01A         	call	_RB5_ISR
  7207  000106                     i1l1156:
  7208                           
  7209                           ;MCAL/Interrupts/mcal_interrupt_manager.c: 136:     if( (1 == INTCONbits.RBIE) && (1 == 
      +                          INTCONbits.RBIF) &&
  7210  000106  A6F2               	btfss	242,3,c	;volatile
  7211  000108  EF88  F000         	goto	i1u773_21
  7212  00010C  EF8A  F000         	goto	i1u773_20
  7213  000110                     i1u773_21:
  7214  000110  EFA3  F000         	goto	i1l1158
  7215  000114                     i1u773_20:
  7216  000114  A0F2               	btfss	242,0,c	;volatile
  7217  000116  EF8F  F000         	goto	i1u774_21
  7218  00011A  EF91  F000         	goto	i1u774_20
  7219  00011E                     i1u774_21:
  7220  00011E  EFA3  F000         	goto	i1l1158
  7221  000122                     i1u774_20:
  7222  000122  BA81               	btfsc	129,5,c	;volatile
  7223  000124  EF96  F000         	goto	i1u775_21
  7224  000128  EF98  F000         	goto	i1u775_20
  7225  00012C                     i1u775_21:
  7226  00012C  EFA3  F000         	goto	i1l1158
  7227  000130                     i1u775_20:
  7228  000130  B259               	btfsc	_flags^0,1,c	;volatile
  7229  000132  EF9D  F000         	goto	i1u776_21
  7230  000136  EF9F  F000         	goto	i1u776_20
  7231  00013A                     i1u776_21:
  7232  00013A  EFA3  F000         	goto	i1l1158
  7233  00013E                     i1u776_20:
  7234  00013E                     
  7235                           ;MCAL/Interrupts/mcal_interrupt_manager.c: 138:     {;MCAL/Interrupts/mcal_interrupt_man
      +                          ager.c: 139:         flags.rb5_flag = 0x01 ;
  7236  00013E  8259               	bsf	_flags^0,1,c	;volatile
  7237  000140                     
  7238                           ;MCAL/Interrupts/mcal_interrupt_manager.c: 140:         RB5_ISR(0x00);
  7239  000140  0E00               	movlw	0
  7240  000142  EC27  F01A         	call	_RB5_ISR
  7241  000146                     i1l1158:
  7242                           
  7243                           ;MCAL/Interrupts/mcal_interrupt_manager.c: 145:     if( (1 == INTCONbits.RBIE) && (1 == 
      +                          INTCONbits.RBIF) &&
  7244  000146  A6F2               	btfss	242,3,c	;volatile
  7245  000148  EFA8  F000         	goto	i1u777_21
  7246  00014C  EFAA  F000         	goto	i1u777_20
  7247  000150                     i1u777_21:
  7248  000150  EFC3  F000         	goto	i1l1160
  7249  000154                     i1u777_20:
  7250  000154  A0F2               	btfss	242,0,c	;volatile
  7251  000156  EFAF  F000         	goto	i1u778_21
  7252  00015A  EFB1  F000         	goto	i1u778_20
  7253  00015E                     i1u778_21:
  7254  00015E  EFC3  F000         	goto	i1l1160
  7255  000162                     i1u778_20:
  7256  000162  AC81               	btfss	129,6,c	;volatile
  7257  000164  EFB6  F000         	goto	i1u779_21
  7258  000168  EFB8  F000         	goto	i1u779_20
  7259  00016C                     i1u779_21:
  7260  00016C  EFC3  F000         	goto	i1l1160
  7261  000170                     i1u779_20:
  7262  000170  A459               	btfss	_flags^0,2,c	;volatile
  7263  000172  EFBD  F000         	goto	i1u780_21
  7264  000176  EFBF  F000         	goto	i1u780_20
  7265  00017A                     i1u780_21:
  7266  00017A  EFC3  F000         	goto	i1l1160
  7267  00017E                     i1u780_20:
  7268  00017E                     
  7269                           ;MCAL/Interrupts/mcal_interrupt_manager.c: 147:     {;MCAL/Interrupts/mcal_interrupt_man
      +                          ager.c: 148:         flags.rb6_flag = 0x00 ;
  7270  00017E  9459               	bcf	_flags^0,2,c	;volatile
  7271  000180                     
  7272                           ;MCAL/Interrupts/mcal_interrupt_manager.c: 149:         RB6_ISR(0x01);
  7273  000180  0E01               	movlw	1
  7274  000182  EC1A  F01A         	call	_RB6_ISR
  7275  000186                     i1l1160:
  7276                           
  7277                           ;MCAL/Interrupts/mcal_interrupt_manager.c: 153:     if( (1 == INTCONbits.RBIE) && (1 == 
      +                          INTCONbits.RBIF) &&
  7278  000186  A6F2               	btfss	242,3,c	;volatile
  7279  000188  EFC8  F000         	goto	i1u781_21
  7280  00018C  EFCA  F000         	goto	i1u781_20
  7281  000190                     i1u781_21:
  7282  000190  EFE3  F000         	goto	i1l1162
  7283  000194                     i1u781_20:
  7284  000194  A0F2               	btfss	242,0,c	;volatile
  7285  000196  EFCF  F000         	goto	i1u782_21
  7286  00019A  EFD1  F000         	goto	i1u782_20
  7287  00019E                     i1u782_21:
  7288  00019E  EFE3  F000         	goto	i1l1162
  7289  0001A2                     i1u782_20:
  7290  0001A2  BC81               	btfsc	129,6,c	;volatile
  7291  0001A4  EFD6  F000         	goto	i1u783_21
  7292  0001A8  EFD8  F000         	goto	i1u783_20
  7293  0001AC                     i1u783_21:
  7294  0001AC  EFE3  F000         	goto	i1l1162
  7295  0001B0                     i1u783_20:
  7296  0001B0  B459               	btfsc	_flags^0,2,c	;volatile
  7297  0001B2  EFDD  F000         	goto	i1u784_21
  7298  0001B6  EFDF  F000         	goto	i1u784_20
  7299  0001BA                     i1u784_21:
  7300  0001BA  EFE3  F000         	goto	i1l1162
  7301  0001BE                     i1u784_20:
  7302  0001BE                     
  7303                           ;MCAL/Interrupts/mcal_interrupt_manager.c: 155:     {;MCAL/Interrupts/mcal_interrupt_man
      +                          ager.c: 156:         flags.rb6_flag = 0x01 ;
  7304  0001BE  8459               	bsf	_flags^0,2,c	;volatile
  7305  0001C0                     
  7306                           ;MCAL/Interrupts/mcal_interrupt_manager.c: 157:         RB6_ISR(0x00);
  7307  0001C0  0E00               	movlw	0
  7308  0001C2  EC1A  F01A         	call	_RB6_ISR
  7309  0001C6                     i1l1162:
  7310                           
  7311                           ;MCAL/Interrupts/mcal_interrupt_manager.c: 162:     if( (1 == INTCONbits.RBIE) && (1 == 
      +                          INTCONbits.RBIF) &&
  7312  0001C6  A6F2               	btfss	242,3,c	;volatile
  7313  0001C8  EFE8  F000         	goto	i1u785_21
  7314  0001CC  EFEA  F000         	goto	i1u785_20
  7315  0001D0                     i1u785_21:
  7316  0001D0  EF03  F001         	goto	i1l1164
  7317  0001D4                     i1u785_20:
  7318  0001D4  A0F2               	btfss	242,0,c	;volatile
  7319  0001D6  EFEF  F000         	goto	i1u786_21
  7320  0001DA  EFF1  F000         	goto	i1u786_20
  7321  0001DE                     i1u786_21:
  7322  0001DE  EF03  F001         	goto	i1l1164
  7323  0001E2                     i1u786_20:
  7324  0001E2  AE81               	btfss	129,7,c	;volatile
  7325  0001E4  EFF6  F000         	goto	i1u787_21
  7326  0001E8  EFF8  F000         	goto	i1u787_20
  7327  0001EC                     i1u787_21:
  7328  0001EC  EF03  F001         	goto	i1l1164
  7329  0001F0                     i1u787_20:
  7330  0001F0  A659               	btfss	_flags^0,3,c	;volatile
  7331  0001F2  EFFD  F000         	goto	i1u788_21
  7332  0001F6  EFFF  F000         	goto	i1u788_20
  7333  0001FA                     i1u788_21:
  7334  0001FA  EF03  F001         	goto	i1l1164
  7335  0001FE                     i1u788_20:
  7336  0001FE                     
  7337                           ;MCAL/Interrupts/mcal_interrupt_manager.c: 164:     {;MCAL/Interrupts/mcal_interrupt_man
      +                          ager.c: 165:         flags.rb7_flag = 0x00 ;
  7338  0001FE  9659               	bcf	_flags^0,3,c	;volatile
  7339  000200                     
  7340                           ;MCAL/Interrupts/mcal_interrupt_manager.c: 166:         RB7_ISR(0x01);
  7341  000200  0E01               	movlw	1
  7342  000202  EC0D  F01A         	call	_RB7_ISR
  7343  000206                     i1l1164:
  7344                           
  7345                           ;MCAL/Interrupts/mcal_interrupt_manager.c: 170:     if( (1 == INTCONbits.RBIE) && (1 == 
      +                          INTCONbits.RBIF) &&
  7346  000206  A6F2               	btfss	242,3,c	;volatile
  7347  000208  EF08  F001         	goto	i1u789_21
  7348  00020C  EF0A  F001         	goto	i1u789_20
  7349  000210                     i1u789_21:
  7350  000210  EF23  F001         	goto	i1l1166
  7351  000214                     i1u789_20:
  7352  000214  A0F2               	btfss	242,0,c	;volatile
  7353  000216  EF0F  F001         	goto	i1u790_21
  7354  00021A  EF11  F001         	goto	i1u790_20
  7355  00021E                     i1u790_21:
  7356  00021E  EF23  F001         	goto	i1l1166
  7357  000222                     i1u790_20:
  7358  000222  BE81               	btfsc	129,7,c	;volatile
  7359  000224  EF16  F001         	goto	i1u791_21
  7360  000228  EF18  F001         	goto	i1u791_20
  7361  00022C                     i1u791_21:
  7362  00022C  EF23  F001         	goto	i1l1166
  7363  000230                     i1u791_20:
  7364  000230  B659               	btfsc	_flags^0,3,c	;volatile
  7365  000232  EF1D  F001         	goto	i1u792_21
  7366  000236  EF1F  F001         	goto	i1u792_20
  7367  00023A                     i1u792_21:
  7368  00023A  EF23  F001         	goto	i1l1166
  7369  00023E                     i1u792_20:
  7370  00023E                     
  7371                           ;MCAL/Interrupts/mcal_interrupt_manager.c: 172:     {;MCAL/Interrupts/mcal_interrupt_man
      +                          ager.c: 173:         flags.rb7_flag = 0x01 ;
  7372  00023E  8659               	bsf	_flags^0,3,c	;volatile
  7373  000240                     
  7374                           ;MCAL/Interrupts/mcal_interrupt_manager.c: 174:         RB7_ISR(0x00);
  7375  000240  0E00               	movlw	0
  7376  000242  EC0D  F01A         	call	_RB7_ISR
  7377  000246                     i1l1166:
  7378                           
  7379                           ;MCAL/Interrupts/mcal_interrupt_manager.c: 181:     if( (1 == PIE1bits.ADIE) && (1 == PI
      +                          R1bits.ADIF) )
  7380  000246  AC9D               	btfss	157,6,c	;volatile
  7381  000248  EF28  F001         	goto	i1u793_21
  7382  00024C  EF2A  F001         	goto	i1u793_20
  7383  000250                     i1u793_21:
  7384  000250  EF33  F001         	goto	i1l1168
  7385  000254                     i1u793_20:
  7386  000254  AC9E               	btfss	158,6,c	;volatile
  7387  000256  EF2F  F001         	goto	i1u794_21
  7388  00025A  EF31  F001         	goto	i1u794_20
  7389  00025E                     i1u794_21:
  7390  00025E  EF33  F001         	goto	i1l1168
  7391  000262                     i1u794_20:
  7392  000262                     
  7393                           ;MCAL/Interrupts/mcal_interrupt_manager.c: 182:     {;MCAL/Interrupts/mcal_interrupt_man
      +                          ager.c: 183:         ADC_ISR();
  7394  000262  EC52  F01A         	call	_ADC_ISR	;wreg free
  7395  000266                     i1l1168:
  7396                           
  7397                           ;MCAL/Interrupts/mcal_interrupt_manager.c: 187:     if( (1 == PIE1bits.TMR1IE) && (1 == 
      +                          PIR1bits.TMR1IF) )
  7398  000266  A09D               	btfss	157,0,c	;volatile
  7399  000268  EF38  F001         	goto	i1u795_21
  7400  00026C  EF3A  F001         	goto	i1u795_20
  7401  000270                     i1u795_21:
  7402  000270  EF3B  F001         	goto	i1l1171
  7403  000274                     i1u795_20:
  7404  000274  509E               	movf	158,w,c	;volatile
  7405  000276                     i1l1171:
  7406  000276  C004  FFE0         	movff	??_InterruptManagerLow+2,bsr
  7407  00027A  C003  FFE8         	movff	??_InterruptManagerLow+1,wreg
  7408  00027E  C002  FFD8         	movff	??_InterruptManagerLow,status
  7409  000282  905B               	bcf	int$flags,0,c	;clear compiler interrupt flag (level 1)
  7410  000284  0010               	retfie	
  7411  000286                     __end_of_InterruptManagerLow:
  7412                           	callstack 0
  7413                           
  7414 ;; *************** function _RB7_ISR *****************
  7415 ;; Defined at:
  7416 ;;		line 175 in file "MCAL/Interrupts/mcal_external_interrupt.c"
  7417 ;; Parameters:    Size  Location     Type
  7418 ;;  Handler_Sele    1    wreg     unsigned char 
  7419 ;; Auto vars:     Size  Location     Type
  7420 ;;  Handler_Sele    1    0[COMRAM] unsigned char 
  7421 ;; Return value:  Size  Location     Type
  7422 ;;                  1    wreg      void 
  7423 ;; Registers used:
  7424 ;;		wreg, status,2
  7425 ;; Tracked objects:
  7426 ;;		On entry : 0/0
  7427 ;;		On exit  : 0/0
  7428 ;;		Unchanged: 0/0
  7429 ;; Data sizes:     COMRAM   BANK0   BANK1   BANK2   BANK3   BANK4   BANK5   BANK6   BANK7   BANK8   BANK9  BANK10  BANK1
      +1  BANK12  BANK13  BANK14  BANK15
  7430 ;;      Params:         0       0       0       0       0       0       0       0       0       0       0       0       
      +0       0       0       0       0
  7431 ;;      Locals:         1       0       0       0       0       0       0       0       0       0       0       0       
      +0       0       0       0       0
  7432 ;;      Temps:          0       0       0       0       0       0       0       0       0       0       0       0       
      +0       0       0       0       0
  7433 ;;      Totals:         1       0       0       0       0       0       0       0       0       0       0       0       
      +0       0       0       0       0
  7434 ;;Total ram usage:        1 bytes
  7435 ;; Hardware stack levels used: 1
  7436 ;; Hardware stack levels required when called: 2
  7437 ;; This function calls:
  7438 ;;		Nothing
  7439 ;; This function is called by:
  7440 ;;		_InterruptManagerLow
  7441 ;; This function uses a non-reentrant model
  7442 ;;
  7443                           
  7444                           	psect	text38
  7445  00341A                     __ptext38:
  7446                           	callstack 0
  7447  00341A                     _RB7_ISR:
  7448                           	callstack 21
  7449                           
  7450                           ;incstack = 0
  7451                           ;RB7_ISR@Handler_Select stored from wreg
  7452  00341A  6E01               	movwf	RB7_ISR@Handler_Select^0,c
  7453  00341C                     
  7454                           ;MCAL/Interrupts/mcal_external_interrupt.c: 175: void RB7_ISR(uint8_t Handler_Select);MC
      +                          AL/Interrupts/mcal_external_interrupt.c: 176: {;MCAL/Interrupts/mcal_external_interrupt.
      +                          c: 178:     (INTCONbits.RBIF = 0 );
  7455  00341C  90F2               	bcf	242,0,c	;volatile
  7456  00341E                     
  7457                           ;MCAL/Interrupts/mcal_external_interrupt.c: 182:     if(Handler_Select)
  7458  00341E  5001               	movf	RB7_ISR@Handler_Select^0,w,c
  7459  003420  B4D8               	btfsc	status,2,c
  7460  003422  EF15  F01A         	goto	i1u670_21
  7461  003426  EF17  F01A         	goto	i1u670_20
  7462  00342A                     i1u670_21:
  7463  00342A  EF19  F01A         	goto	i1l7118
  7464  00342E                     i1u670_20:
  7465  00342E  EF19  F01A         	goto	i1l1277
  7466  003432                     i1l7118:
  7467  003432                     i1l1277:
  7468  003432  0012               	return		;funcret
  7469  003434                     __end_of_RB7_ISR:
  7470                           	callstack 0
  7471                           
  7472 ;; *************** function _RB6_ISR *****************
  7473 ;; Defined at:
  7474 ;;		line 150 in file "MCAL/Interrupts/mcal_external_interrupt.c"
  7475 ;; Parameters:    Size  Location     Type
  7476 ;;  Handler_Sele    1    wreg     unsigned char 
  7477 ;; Auto vars:     Size  Location     Type
  7478 ;;  Handler_Sele    1    0[COMRAM] unsigned char 
  7479 ;; Return value:  Size  Location     Type
  7480 ;;                  1    wreg      void 
  7481 ;; Registers used:
  7482 ;;		wreg, status,2
  7483 ;; Tracked objects:
  7484 ;;		On entry : 0/0
  7485 ;;		On exit  : 0/0
  7486 ;;		Unchanged: 0/0
  7487 ;; Data sizes:     COMRAM   BANK0   BANK1   BANK2   BANK3   BANK4   BANK5   BANK6   BANK7   BANK8   BANK9  BANK10  BANK1
      +1  BANK12  BANK13  BANK14  BANK15
  7488 ;;      Params:         0       0       0       0       0       0       0       0       0       0       0       0       
      +0       0       0       0       0
  7489 ;;      Locals:         1       0       0       0       0       0       0       0       0       0       0       0       
      +0       0       0       0       0
  7490 ;;      Temps:          0       0       0       0       0       0       0       0       0       0       0       0       
      +0       0       0       0       0
  7491 ;;      Totals:         1       0       0       0       0       0       0       0       0       0       0       0       
      +0       0       0       0       0
  7492 ;;Total ram usage:        1 bytes
  7493 ;; Hardware stack levels used: 1
  7494 ;; Hardware stack levels required when called: 2
  7495 ;; This function calls:
  7496 ;;		Nothing
  7497 ;; This function is called by:
  7498 ;;		_InterruptManagerLow
  7499 ;; This function uses a non-reentrant model
  7500 ;;
  7501                           
  7502                           	psect	text39
  7503  003434                     __ptext39:
  7504                           	callstack 0
  7505  003434                     _RB6_ISR:
  7506                           	callstack 21
  7507                           
  7508                           ;incstack = 0
  7509                           ;RB6_ISR@Handler_Select stored from wreg
  7510  003434  6E01               	movwf	RB6_ISR@Handler_Select^0,c
  7511  003436                     
  7512                           ;MCAL/Interrupts/mcal_external_interrupt.c: 150: void RB6_ISR(uint8_t Handler_Select);MC
      +                          AL/Interrupts/mcal_external_interrupt.c: 151: {;MCAL/Interrupts/mcal_external_interrupt.
      +                          c: 153:     (INTCONbits.RBIF = 0 );
  7513  003436  90F2               	bcf	242,0,c	;volatile
  7514  003438                     
  7515                           ;MCAL/Interrupts/mcal_external_interrupt.c: 157:     if(Handler_Select)
  7516  003438  5001               	movf	RB6_ISR@Handler_Select^0,w,c
  7517  00343A  B4D8               	btfsc	status,2,c
  7518  00343C  EF22  F01A         	goto	i1u669_21
  7519  003440  EF24  F01A         	goto	i1u669_20
  7520  003444                     i1u669_21:
  7521  003444  EF26  F01A         	goto	i1l7108
  7522  003448                     i1u669_20:
  7523  003448  EF26  F01A         	goto	i1l1268
  7524  00344C                     i1l7108:
  7525  00344C                     i1l1268:
  7526  00344C  0012               	return		;funcret
  7527  00344E                     __end_of_RB6_ISR:
  7528                           	callstack 0
  7529                           
  7530 ;; *************** function _RB5_ISR *****************
  7531 ;; Defined at:
  7532 ;;		line 125 in file "MCAL/Interrupts/mcal_external_interrupt.c"
  7533 ;; Parameters:    Size  Location     Type
  7534 ;;  Handler_Sele    1    wreg     unsigned char 
  7535 ;; Auto vars:     Size  Location     Type
  7536 ;;  Handler_Sele    1    0[COMRAM] unsigned char 
  7537 ;; Return value:  Size  Location     Type
  7538 ;;                  1    wreg      void 
  7539 ;; Registers used:
  7540 ;;		wreg, status,2
  7541 ;; Tracked objects:
  7542 ;;		On entry : 0/0
  7543 ;;		On exit  : 0/0
  7544 ;;		Unchanged: 0/0
  7545 ;; Data sizes:     COMRAM   BANK0   BANK1   BANK2   BANK3   BANK4   BANK5   BANK6   BANK7   BANK8   BANK9  BANK10  BANK1
      +1  BANK12  BANK13  BANK14  BANK15
  7546 ;;      Params:         0       0       0       0       0       0       0       0       0       0       0       0       
      +0       0       0       0       0
  7547 ;;      Locals:         1       0       0       0       0       0       0       0       0       0       0       0       
      +0       0       0       0       0
  7548 ;;      Temps:          0       0       0       0       0       0       0       0       0       0       0       0       
      +0       0       0       0       0
  7549 ;;      Totals:         1       0       0       0       0       0       0       0       0       0       0       0       
      +0       0       0       0       0
  7550 ;;Total ram usage:        1 bytes
  7551 ;; Hardware stack levels used: 1
  7552 ;; Hardware stack levels required when called: 2
  7553 ;; This function calls:
  7554 ;;		Nothing
  7555 ;; This function is called by:
  7556 ;;		_InterruptManagerLow
  7557 ;; This function uses a non-reentrant model
  7558 ;;
  7559                           
  7560                           	psect	text40
  7561  00344E                     __ptext40:
  7562                           	callstack 0
  7563  00344E                     _RB5_ISR:
  7564                           	callstack 21
  7565                           
  7566                           ;incstack = 0
  7567                           ;RB5_ISR@Handler_Select stored from wreg
  7568  00344E  6E01               	movwf	RB5_ISR@Handler_Select^0,c
  7569  003450                     
  7570                           ;MCAL/Interrupts/mcal_external_interrupt.c: 125: void RB5_ISR(uint8_t Handler_Select);MC
      +                          AL/Interrupts/mcal_external_interrupt.c: 126: {;MCAL/Interrupts/mcal_external_interrupt.
      +                          c: 128:     (INTCONbits.RBIF = 0 );
  7571  003450  90F2               	bcf	242,0,c	;volatile
  7572  003452                     
  7573                           ;MCAL/Interrupts/mcal_external_interrupt.c: 132:     if(Handler_Select)
  7574  003452  5001               	movf	RB5_ISR@Handler_Select^0,w,c
  7575  003454  B4D8               	btfsc	status,2,c
  7576  003456  EF2F  F01A         	goto	i1u668_21
  7577  00345A  EF31  F01A         	goto	i1u668_20
  7578  00345E                     i1u668_21:
  7579  00345E  EF33  F01A         	goto	i1l7098
  7580  003462                     i1u668_20:
  7581  003462  EF33  F01A         	goto	i1l1259
  7582  003466                     i1l7098:
  7583  003466                     i1l1259:
  7584  003466  0012               	return		;funcret
  7585  003468                     __end_of_RB5_ISR:
  7586                           	callstack 0
  7587                           
  7588 ;; *************** function _RB4_ISR *****************
  7589 ;; Defined at:
  7590 ;;		line 101 in file "MCAL/Interrupts/mcal_external_interrupt.c"
  7591 ;; Parameters:    Size  Location     Type
  7592 ;;  Handler_Sele    1    wreg     unsigned char 
  7593 ;; Auto vars:     Size  Location     Type
  7594 ;;  Handler_Sele    1    0[COMRAM] unsigned char 
  7595 ;; Return value:  Size  Location     Type
  7596 ;;                  1    wreg      void 
  7597 ;; Registers used:
  7598 ;;		wreg, status,2
  7599 ;; Tracked objects:
  7600 ;;		On entry : 0/0
  7601 ;;		On exit  : 0/0
  7602 ;;		Unchanged: 0/0
  7603 ;; Data sizes:     COMRAM   BANK0   BANK1   BANK2   BANK3   BANK4   BANK5   BANK6   BANK7   BANK8   BANK9  BANK10  BANK1
      +1  BANK12  BANK13  BANK14  BANK15
  7604 ;;      Params:         0       0       0       0       0       0       0       0       0       0       0       0       
      +0       0       0       0       0
  7605 ;;      Locals:         1       0       0       0       0       0       0       0       0       0       0       0       
      +0       0       0       0       0
  7606 ;;      Temps:          0       0       0       0       0       0       0       0       0       0       0       0       
      +0       0       0       0       0
  7607 ;;      Totals:         1       0       0       0       0       0       0       0       0       0       0       0       
      +0       0       0       0       0
  7608 ;;Total ram usage:        1 bytes
  7609 ;; Hardware stack levels used: 1
  7610 ;; Hardware stack levels required when called: 2
  7611 ;; This function calls:
  7612 ;;		Nothing
  7613 ;; This function is called by:
  7614 ;;		_InterruptManagerLow
  7615 ;; This function uses a non-reentrant model
  7616 ;;
  7617                           
  7618                           	psect	text41
  7619  003468                     __ptext41:
  7620                           	callstack 0
  7621  003468                     _RB4_ISR:
  7622                           	callstack 21
  7623                           
  7624                           ;incstack = 0
  7625                           ;RB4_ISR@Handler_Select stored from wreg
  7626  003468  6E01               	movwf	RB4_ISR@Handler_Select^0,c
  7627  00346A                     
  7628                           ;MCAL/Interrupts/mcal_external_interrupt.c: 101: void RB4_ISR(uint8_t Handler_Select);MC
      +                          AL/Interrupts/mcal_external_interrupt.c: 102: {;MCAL/Interrupts/mcal_external_interrupt.
      +                          c: 104:     (INTCONbits.RBIF = 0 );
  7629  00346A  90F2               	bcf	242,0,c	;volatile
  7630  00346C                     
  7631                           ;MCAL/Interrupts/mcal_external_interrupt.c: 108:     if(Handler_Select)
  7632  00346C  5001               	movf	RB4_ISR@Handler_Select^0,w,c
  7633  00346E  B4D8               	btfsc	status,2,c
  7634  003470  EF3C  F01A         	goto	i1u667_21
  7635  003474  EF3E  F01A         	goto	i1u667_20
  7636  003478                     i1u667_21:
  7637  003478  EF40  F01A         	goto	i1l7088
  7638  00347C                     i1u667_20:
  7639  00347C  EF40  F01A         	goto	i1l1250
  7640  003480                     i1l7088:
  7641  003480                     i1l1250:
  7642  003480  0012               	return		;funcret
  7643  003482                     __end_of_RB4_ISR:
  7644                           	callstack 0
  7645                           
  7646 ;; *************** function _INT1_ISR *****************
  7647 ;; Defined at:
  7648 ;;		line 73 in file "MCAL/Interrupts/mcal_external_interrupt.c"
  7649 ;; Parameters:    Size  Location     Type
  7650 ;;		None
  7651 ;; Auto vars:     Size  Location     Type
  7652 ;;		None
  7653 ;; Return value:  Size  Location     Type
  7654 ;;                  1    wreg      void 
  7655 ;; Registers used:
  7656 ;;		None
  7657 ;; Tracked objects:
  7658 ;;		On entry : 0/0
  7659 ;;		On exit  : 0/0
  7660 ;;		Unchanged: 0/0
  7661 ;; Data sizes:     COMRAM   BANK0   BANK1   BANK2   BANK3   BANK4   BANK5   BANK6   BANK7   BANK8   BANK9  BANK10  BANK1
      +1  BANK12  BANK13  BANK14  BANK15
  7662 ;;      Params:         0       0       0       0       0       0       0       0       0       0       0       0       
      +0       0       0       0       0
  7663 ;;      Locals:         0       0       0       0       0       0       0       0       0       0       0       0       
      +0       0       0       0       0
  7664 ;;      Temps:          0       0       0       0       0       0       0       0       0       0       0       0       
      +0       0       0       0       0
  7665 ;;      Totals:         0       0       0       0       0       0       0       0       0       0       0       0       
      +0       0       0       0       0
  7666 ;;Total ram usage:        0 bytes
  7667 ;; Hardware stack levels used: 1
  7668 ;; Hardware stack levels required when called: 2
  7669 ;; This function calls:
  7670 ;;		Nothing
  7671 ;; This function is called by:
  7672 ;;		_InterruptManagerLow
  7673 ;; This function uses a non-reentrant model
  7674 ;;
  7675                           
  7676                           	psect	text42
  7677  00349A                     __ptext42:
  7678                           	callstack 0
  7679  00349A                     _INT1_ISR:
  7680                           	callstack 21
  7681  00349A                     
  7682                           ;MCAL/Interrupts/mcal_external_interrupt.c: 76:     (INTCON3bits.INT1IF = 0 );
  7683  00349A  90F0               	bcf	240,0,c	;volatile
  7684  00349C  0012               	return		;funcret
  7685  00349E                     __end_of_INT1_ISR:
  7686                           	callstack 0
  7687                           
  7688 ;; *************** function _ADC_ISR *****************
  7689 ;; Defined at:
  7690 ;;		line 341 in file "MCAL/ADC/mcal_adc.c"
  7691 ;; Parameters:    Size  Location     Type
  7692 ;;		None
  7693 ;; Auto vars:     Size  Location     Type
  7694 ;;		None
  7695 ;; Return value:  Size  Location     Type
  7696 ;;                  1    wreg      void 
  7697 ;; Registers used:
  7698 ;;		None
  7699 ;; Tracked objects:
  7700 ;;		On entry : 0/0
  7701 ;;		On exit  : 0/0
  7702 ;;		Unchanged: 0/0
  7703 ;; Data sizes:     COMRAM   BANK0   BANK1   BANK2   BANK3   BANK4   BANK5   BANK6   BANK7   BANK8   BANK9  BANK10  BANK1
      +1  BANK12  BANK13  BANK14  BANK15
  7704 ;;      Params:         0       0       0       0       0       0       0       0       0       0       0       0       
      +0       0       0       0       0
  7705 ;;      Locals:         0       0       0       0       0       0       0       0       0       0       0       0       
      +0       0       0       0       0
  7706 ;;      Temps:          0       0       0       0       0       0       0       0       0       0       0       0       
      +0       0       0       0       0
  7707 ;;      Totals:         0       0       0       0       0       0       0       0       0       0       0       0       
      +0       0       0       0       0
  7708 ;;Total ram usage:        0 bytes
  7709 ;; Hardware stack levels used: 1
  7710 ;; Hardware stack levels required when called: 2
  7711 ;; This function calls:
  7712 ;;		Nothing
  7713 ;; This function is called by:
  7714 ;;		_InterruptManagerLow
  7715 ;; This function uses a non-reentrant model
  7716 ;;
  7717                           
  7718                           	psect	text43
  7719  0034A4                     __ptext43:
  7720                           	callstack 0
  7721  0034A4                     _ADC_ISR:
  7722                           	callstack 21
  7723  0034A4  0012               	return		;funcret
  7724  0034A6                     __end_of_ADC_ISR:
  7725                           	callstack 0
  7726                           
  7727 ;; *************** function _InterruptManagerHigh *****************
  7728 ;; Defined at:
  7729 ;;		line 33 in file "MCAL/Interrupts/mcal_interrupt_manager.c"
  7730 ;; Parameters:    Size  Location     Type
  7731 ;;		None
  7732 ;; Auto vars:     Size  Location     Type
  7733 ;;		None
  7734 ;; Return value:  Size  Location     Type
  7735 ;;                  1    wreg      void 
  7736 ;; Registers used:
  7737 ;;		wreg, status,2, status,0, cstack
  7738 ;; Tracked objects:
  7739 ;;		On entry : 0/0
  7740 ;;		On exit  : 0/0
  7741 ;;		Unchanged: 0/0
  7742 ;; Data sizes:     COMRAM   BANK0   BANK1   BANK2   BANK3   BANK4   BANK5   BANK6   BANK7   BANK8   BANK9  BANK10  BANK1
      +1  BANK12  BANK13  BANK14  BANK15
  7743 ;;      Params:         0       0       0       0       0       0       0       0       0       0       0       0       
      +0       0       0       0       0
  7744 ;;      Locals:         0       0       0       0       0       0       0       0       0       0       0       0       
      +0       0       0       0       0
  7745 ;;      Temps:          0       0       0       0       0       0       0       0       0       0       0       0       
      +0       0       0       0       0
  7746 ;;      Totals:         0       0       0       0       0       0       0       0       0       0       0       0       
      +0       0       0       0       0
  7747 ;;Total ram usage:        0 bytes
  7748 ;; Hardware stack levels used: 1
  7749 ;; Hardware stack levels required when called: 1
  7750 ;; This function calls:
  7751 ;;		_EUSART_Rx_ISR
  7752 ;;		_EUSART_Tx_ISR
  7753 ;;		_TMR0_ISR
  7754 ;; This function is called by:
  7755 ;;		Interrupt level 2
  7756 ;; This function uses a non-reentrant model
  7757 ;;
  7758                           
  7759                           	psect	intcode
  7760  000008                     __pintcode:
  7761                           	callstack 0
  7762  000008                     _InterruptManagerHigh:
  7763                           	callstack 21
  7764                           
  7765                           ;incstack = 0
  7766  000008  825B               	bsf	int$flags,1,c	;set compiler interrupt flag (level 2)
  7767  00000A  EFD4  F016         	goto	int_func
  7768                           
  7769                           	psect	intcode_body
  7770  002DA8                     __pintcode_body:
  7771                           	callstack 21
  7772  002DA8                     int_func:
  7773                           	callstack 21
  7774  002DA8                     
  7775                           ;MCAL/Interrupts/mcal_interrupt_manager.c: 49:     if( (1 == INTCONbits.TMR0IE) && (1 ==
      +                           INTCONbits.TMR0IF) )
  7776  002DA8  AAF2               	btfss	242,5,c	;volatile
  7777  002DAA  EFD9  F016         	goto	i2u748_41
  7778  002DAE  EFDB  F016         	goto	i2u748_40
  7779  002DB2                     i2u748_41:
  7780  002DB2  EFE4  F016         	goto	i2l1129
  7781  002DB6                     i2u748_40:
  7782  002DB6  A4F2               	btfss	242,2,c	;volatile
  7783  002DB8  EFE0  F016         	goto	i2u749_41
  7784  002DBC  EFE2  F016         	goto	i2u749_40
  7785  002DC0                     i2u749_41:
  7786  002DC0  EFE4  F016         	goto	i2l1129
  7787  002DC4                     i2u749_40:
  7788  002DC4                     
  7789                           ;MCAL/Interrupts/mcal_interrupt_manager.c: 50:     {;MCAL/Interrupts/mcal_interrupt_mana
      +                          ger.c: 51:         TMR0_ISR();
  7790  002DC4  EC53  F01A         	call	_TMR0_ISR	;wreg free
  7791  002DC8                     i2l1129:
  7792                           
  7793                           ;MCAL/Interrupts/mcal_interrupt_manager.c: 55:     if( (1 == PIE1bits.TMR2IE) && (1 == P
      +                          IR1bits.TMR2IF) )
  7794  002DC8  A29D               	btfss	157,1,c	;volatile
  7795  002DCA  EFE9  F016         	goto	i2u750_41
  7796  002DCE  EFEB  F016         	goto	i2u750_40
  7797  002DD2                     i2u750_41:
  7798  002DD2  EFEC  F016         	goto	i2l1131
  7799  002DD6                     i2u750_40:
  7800  002DD6  509E               	movf	158,w,c	;volatile
  7801  002DD8                     i2l1131:
  7802                           
  7803                           ;MCAL/Interrupts/mcal_interrupt_manager.c: 62:     if( (1 == PIE2bits.TMR3IE) && (1 == P
      +                          IR2bits.TMR3IF) )
  7804  002DD8  A2A0               	btfss	160,1,c	;volatile
  7805  002DDA  EFF1  F016         	goto	i2u751_41
  7806  002DDE  EFF3  F016         	goto	i2u751_40
  7807  002DE2                     i2u751_41:
  7808  002DE2  EFF4  F016         	goto	i2l1133
  7809  002DE6                     i2u751_40:
  7810  002DE6  50A1               	movf	161,w,c	;volatile
  7811  002DE8                     i2l1133:
  7812                           
  7813                           ;MCAL/Interrupts/mcal_interrupt_manager.c: 68:     if( (1 == PIE2bits.CCP2IE) && (1 == P
      +                          IR2bits.CCP2IF) )
  7814  002DE8  A0A0               	btfss	160,0,c	;volatile
  7815  002DEA  EFF9  F016         	goto	i2u752_41
  7816  002DEE  EFFB  F016         	goto	i2u752_40
  7817  002DF2                     i2u752_41:
  7818  002DF2  EFFC  F016         	goto	i2l1135
  7819  002DF6                     i2u752_40:
  7820  002DF6  50A1               	movf	161,w,c	;volatile
  7821  002DF8                     i2l1135:
  7822                           
  7823                           ;MCAL/Interrupts/mcal_interrupt_manager.c: 74:     if( (1 == PIE1bits.RCIE) && (1 == PIR
      +                          1bits.RCIF) )
  7824  002DF8  AA9D               	btfss	157,5,c	;volatile
  7825  002DFA  EF01  F017         	goto	i2u753_41
  7826  002DFE  EF03  F017         	goto	i2u753_40
  7827  002E02                     i2u753_41:
  7828  002E02  EF0C  F017         	goto	i2l1137
  7829  002E06                     i2u753_40:
  7830  002E06  AA9E               	btfss	158,5,c	;volatile
  7831  002E08  EF08  F017         	goto	i2u754_41
  7832  002E0C  EF0A  F017         	goto	i2u754_40
  7833  002E10                     i2u754_41:
  7834  002E10  EF0C  F017         	goto	i2l1137
  7835  002E14                     i2u754_40:
  7836  002E14                     
  7837                           ;MCAL/Interrupts/mcal_interrupt_manager.c: 75:     {;MCAL/Interrupts/mcal_interrupt_mana
      +                          ger.c: 76:         EUSART_Rx_ISR();
  7838  002E14  EC55  F01A         	call	_EUSART_Rx_ISR	;wreg free
  7839  002E18                     i2l1137:
  7840                           
  7841                           ;MCAL/Interrupts/mcal_interrupt_manager.c: 80:     if( (1 == PIE1bits.TXIE) && (1 == PIR
      +                          1bits.TXIF) )
  7842  002E18  A89D               	btfss	157,4,c	;volatile
  7843  002E1A  EF11  F017         	goto	i2u755_41
  7844  002E1E  EF13  F017         	goto	i2u755_40
  7845  002E22                     i2u755_41:
  7846  002E22  EF1C  F017         	goto	i2l1139
  7847  002E26                     i2u755_40:
  7848  002E26  A89E               	btfss	158,4,c	;volatile
  7849  002E28  EF18  F017         	goto	i2u756_41
  7850  002E2C  EF1A  F017         	goto	i2u756_40
  7851  002E30                     i2u756_41:
  7852  002E30  EF1C  F017         	goto	i2l1139
  7853  002E34                     i2u756_40:
  7854  002E34                     
  7855                           ;MCAL/Interrupts/mcal_interrupt_manager.c: 81:     {;MCAL/Interrupts/mcal_interrupt_mana
      +                          ger.c: 82:         EUSART_Tx_ISR();
  7856  002E34  EC54  F01A         	call	_EUSART_Tx_ISR	;wreg free
  7857  002E38                     i2l1139:
  7858                           
  7859                           ;MCAL/Interrupts/mcal_interrupt_manager.c: 86:     if( (1 == PIE2bits.BCLIE) && (1 == PI
      +                          R2bits.BCLIF) )
  7860  002E38  A6A0               	btfss	160,3,c	;volatile
  7861  002E3A  EF21  F017         	goto	i2u757_41
  7862  002E3E  EF23  F017         	goto	i2u757_40
  7863  002E42                     i2u757_41:
  7864  002E42  EF24  F017         	goto	i2l1141
  7865  002E46                     i2u757_40:
  7866  002E46  50A1               	movf	161,w,c	;volatile
  7867  002E48                     i2l1141:
  7868                           
  7869                           ;MCAL/Interrupts/mcal_interrupt_manager.c: 92:     if( (1 == PIE1bits.SSPIE) && (1 == PI
      +                          R1bits.SSPIF) )
  7870  002E48  A69D               	btfss	157,3,c	;volatile
  7871  002E4A  EF29  F017         	goto	i2u758_41
  7872  002E4E  EF2B  F017         	goto	i2u758_40
  7873  002E52                     i2u758_41:
  7874  002E52  EF2C  F017         	goto	i2l1144
  7875  002E56                     i2u758_40:
  7876  002E56  509E               	movf	158,w,c	;volatile
  7877  002E58                     i2l1144:
  7878  002E58  925B               	bcf	int$flags,1,c	;clear compiler interrupt flag (level 2)
  7879  002E5A  0011               	retfie		f
  7880  002E5C                     __end_of_InterruptManagerHigh:
  7881                           	callstack 0
  7882                           
  7883 ;; *************** function _TMR0_ISR *****************
  7884 ;; Defined at:
  7885 ;;		line 216 in file "MCAL/Timer0/hal_timer0.c"
  7886 ;; Parameters:    Size  Location     Type
  7887 ;;		None
  7888 ;; Auto vars:     Size  Location     Type
  7889 ;;		None
  7890 ;; Return value:  Size  Location     Type
  7891 ;;                  1    wreg      void 
  7892 ;; Registers used:
  7893 ;;		None
  7894 ;; Tracked objects:
  7895 ;;		On entry : 0/0
  7896 ;;		On exit  : 0/0
  7897 ;;		Unchanged: 0/0
  7898 ;; Data sizes:     COMRAM   BANK0   BANK1   BANK2   BANK3   BANK4   BANK5   BANK6   BANK7   BANK8   BANK9  BANK10  BANK1
      +1  BANK12  BANK13  BANK14  BANK15
  7899 ;;      Params:         0       0       0       0       0       0       0       0       0       0       0       0       
      +0       0       0       0       0
  7900 ;;      Locals:         0       0       0       0       0       0       0       0       0       0       0       0       
      +0       0       0       0       0
  7901 ;;      Temps:          0       0       0       0       0       0       0       0       0       0       0       0       
      +0       0       0       0       0
  7902 ;;      Totals:         0       0       0       0       0       0       0       0       0       0       0       0       
      +0       0       0       0       0
  7903 ;;Total ram usage:        0 bytes
  7904 ;; Hardware stack levels used: 1
  7905 ;; This function calls:
  7906 ;;		Nothing
  7907 ;; This function is called by:
  7908 ;;		_InterruptManagerHigh
  7909 ;; This function uses a non-reentrant model
  7910 ;;
  7911                           
  7912                           	psect	text45
  7913  0034A6                     __ptext45:
  7914                           	callstack 0
  7915  0034A6                     _TMR0_ISR:
  7916                           	callstack 21
  7917  0034A6  0012               	return		;funcret
  7918  0034A8                     __end_of_TMR0_ISR:
  7919                           	callstack 0
  7920                           
  7921 ;; *************** function _EUSART_Tx_ISR *****************
  7922 ;; Defined at:
  7923 ;;		line 685 in file "MCAL/EUSART/mcal_EUSART.c"
  7924 ;; Parameters:    Size  Location     Type
  7925 ;;		None
  7926 ;; Auto vars:     Size  Location     Type
  7927 ;;		None
  7928 ;; Return value:  Size  Location     Type
  7929 ;;                  1    wreg      void 
  7930 ;; Registers used:
  7931 ;;		None
  7932 ;; Tracked objects:
  7933 ;;		On entry : 0/0
  7934 ;;		On exit  : 0/0
  7935 ;;		Unchanged: 0/0
  7936 ;; Data sizes:     COMRAM   BANK0   BANK1   BANK2   BANK3   BANK4   BANK5   BANK6   BANK7   BANK8   BANK9  BANK10  BANK1
      +1  BANK12  BANK13  BANK14  BANK15
  7937 ;;      Params:         0       0       0       0       0       0       0       0       0       0       0       0       
      +0       0       0       0       0
  7938 ;;      Locals:         0       0       0       0       0       0       0       0       0       0       0       0       
      +0       0       0       0       0
  7939 ;;      Temps:          0       0       0       0       0       0       0       0       0       0       0       0       
      +0       0       0       0       0
  7940 ;;      Totals:         0       0       0       0       0       0       0       0       0       0       0       0       
      +0       0       0       0       0
  7941 ;;Total ram usage:        0 bytes
  7942 ;; Hardware stack levels used: 1
  7943 ;; This function calls:
  7944 ;;		Nothing
  7945 ;; This function is called by:
  7946 ;;		_InterruptManagerHigh
  7947 ;; This function uses a non-reentrant model
  7948 ;;
  7949                           
  7950                           	psect	text46
  7951  0034A8                     __ptext46:
  7952                           	callstack 0
  7953  0034A8                     _EUSART_Tx_ISR:
  7954                           	callstack 21
  7955  0034A8  0012               	return		;funcret
  7956  0034AA                     __end_of_EUSART_Tx_ISR:
  7957                           	callstack 0
  7958                           
  7959 ;; *************** function _EUSART_Rx_ISR *****************
  7960 ;; Defined at:
  7961 ;;		line 703 in file "MCAL/EUSART/mcal_EUSART.c"
  7962 ;; Parameters:    Size  Location     Type
  7963 ;;		None
  7964 ;; Auto vars:     Size  Location     Type
  7965 ;;		None
  7966 ;; Return value:  Size  Location     Type
  7967 ;;                  1    wreg      void 
  7968 ;; Registers used:
  7969 ;;		wreg, status,2, status,0
  7970 ;; Tracked objects:
  7971 ;;		On entry : 0/0
  7972 ;;		On exit  : 0/0
  7973 ;;		Unchanged: 0/0
  7974 ;; Data sizes:     COMRAM   BANK0   BANK1   BANK2   BANK3   BANK4   BANK5   BANK6   BANK7   BANK8   BANK9  BANK10  BANK1
      +1  BANK12  BANK13  BANK14  BANK15
  7975 ;;      Params:         0       0       0       0       0       0       0       0       0       0       0       0       
      +0       0       0       0       0
  7976 ;;      Locals:         0       0       0       0       0       0       0       0       0       0       0       0       
      +0       0       0       0       0
  7977 ;;      Temps:          0       0       0       0       0       0       0       0       0       0       0       0       
      +0       0       0       0       0
  7978 ;;      Totals:         0       0       0       0       0       0       0       0       0       0       0       0       
      +0       0       0       0       0
  7979 ;;Total ram usage:        0 bytes
  7980 ;; Hardware stack levels used: 1
  7981 ;; This function calls:
  7982 ;;		Nothing
  7983 ;; This function is called by:
  7984 ;;		_InterruptManagerHigh
  7985 ;; This function uses a non-reentrant model
  7986 ;;
  7987                           
  7988                           	psect	text47
  7989  0034AA                     __ptext47:
  7990                           	callstack 0
  7991  0034AA                     _EUSART_Rx_ISR:
  7992                           	callstack 21
  7993  0034AA  0012               	return		;funcret
  7994  0034AC                     __end_of_EUSART_Rx_ISR:
  7995                           	callstack 0
  7996                           
  7997                           	psect	rparam
  7998  0000                     
  7999                           	psect	temp
  8000  00005B                     btemp:
  8001                           	callstack 0
  8002  00005B                     	ds	1
  8003  0000                     int$flags	set	btemp
  8004  0000                     wtemp8	set	btemp+1
  8005  0000                     ttemp5	set	btemp+1
  8006  0000                     ttemp6	set	btemp+4
  8007  0000                     ttemp7	set	btemp+8
  8008                           
  8009                           	psect	idloc
  8010                           
  8011                           ;Config register IDLOC0 @ 0x200000
  8012                           ;	unspecified, using default values
  8013  200000                     	org	2097152
  8014  200000  FF                 	db	255
  8015                           
  8016                           ;Config register IDLOC1 @ 0x200001
  8017                           ;	unspecified, using default values
  8018  200001                     	org	2097153
  8019  200001  FF                 	db	255
  8020                           
  8021                           ;Config register IDLOC2 @ 0x200002
  8022                           ;	unspecified, using default values
  8023  200002                     	org	2097154
  8024  200002  FF                 	db	255
  8025                           
  8026                           ;Config register IDLOC3 @ 0x200003
  8027                           ;	unspecified, using default values
  8028  200003                     	org	2097155
  8029  200003  FF                 	db	255
  8030                           
  8031                           ;Config register IDLOC4 @ 0x200004
  8032                           ;	unspecified, using default values
  8033  200004                     	org	2097156
  8034  200004  FF                 	db	255
  8035                           
  8036                           ;Config register IDLOC5 @ 0x200005
  8037                           ;	unspecified, using default values
  8038  200005                     	org	2097157
  8039  200005  FF                 	db	255
  8040                           
  8041                           ;Config register IDLOC6 @ 0x200006
  8042                           ;	unspecified, using default values
  8043  200006                     	org	2097158
  8044  200006  FF                 	db	255
  8045                           
  8046                           ;Config register IDLOC7 @ 0x200007
  8047                           ;	unspecified, using default values
  8048  200007                     	org	2097159
  8049  200007  FF                 	db	255
  8050                           
  8051                           	psect	config
  8052                           
  8053                           ; Padding undefined space
  8054  300000                     	org	3145728
  8055  300000  FF                 	db	255
  8056                           
  8057                           ;Config register CONFIG1H @ 0x300001
  8058                           ;	Oscillator Selection bits
  8059                           ;	FOSC = HS, HS oscillator
  8060                           ;	Fail-Safe Clock Monitor Enable bit
  8061                           ;	FCMEN = OFF, Fail-Safe Clock Monitor disabled
  8062                           ;	Internal/External Oscillator Switchover bit
  8063                           ;	IESO = OFF, Oscillator Switchover mode disabled
  8064  300001                     	org	3145729
  8065  300001  02                 	db	2
  8066                           
  8067                           ;Config register CONFIG2L @ 0x300002
  8068                           ;	Power-up Timer Enable bit
  8069                           ;	PWRT = OFF, PWRT disabled
  8070                           ;	Brown-out Reset Enable bits
  8071                           ;	BOREN = OFF, Brown-out Reset disabled in hardware and software
  8072                           ;	Brown Out Reset Voltage bits
  8073                           ;	BORV = 18, VBOR set to 1.8 V nominal
  8074  300002                     	org	3145730
  8075  300002  19                 	db	25
  8076                           
  8077                           ;Config register CONFIG2H @ 0x300003
  8078                           ;	Watchdog Timer Enable bit
  8079                           ;	WDTEN = OFF, WDT is controlled by SWDTEN bit of the WDTCON register
  8080                           ;	Watchdog Timer Postscale Select bits
  8081                           ;	WDTPS = 32768, 1:32768
  8082  300003                     	org	3145731
  8083  300003  1E                 	db	30
  8084                           
  8085                           ; Padding undefined space
  8086  300004                     	org	3145732
  8087  300004  FF                 	db	255
  8088                           
  8089                           ;Config register CONFIG3H @ 0x300005
  8090                           ;	CCP2 MUX bit
  8091                           ;	CCP2MX = PORTC, CCP2 input/output is multiplexed with RC1
  8092                           ;	PORTB A/D Enable bit
  8093                           ;	PBADEN = OFF, PORTB<4:0> pins are configured as digital I/O on Reset
  8094                           ;	Low-Power Timer1 Oscillator Enable bit
  8095                           ;	LPT1OSC = OFF, Timer1 configured for higher power operation
  8096                           ;	HFINTOSC Fast Start-up
  8097                           ;	HFOFST = OFF, The system clock is held off until the HFINTOSC is stable.
  8098                           ;	MCLR Pin Enable bit
  8099                           ;	MCLRE = ON, MCLR pin enabled; RE3 input pin disabled
  8100  300005                     	org	3145733
  8101  300005  81                 	db	129
  8102                           
  8103                           ;Config register CONFIG4L @ 0x300006
  8104                           ;	Stack Full/Underflow Reset Enable bit
  8105                           ;	STVREN = ON, Stack full/underflow will cause Reset
  8106                           ;	Single-Supply ICSP Enable bit
  8107                           ;	LVP = OFF, Single-Supply ICSP disabled
  8108                           ;	Extended Instruction Set Enable bit
  8109                           ;	XINST = OFF, Instruction set extension and Indexed Addressing mode disabled (Legacy mo
      +                          de)
  8110                           ;	Background Debugger Enable bit
  8111                           ;	DEBUG = 0x1, unprogrammed default
  8112  300006                     	org	3145734
  8113  300006  81                 	db	129
  8114                           
  8115                           ; Padding undefined space
  8116  300007                     	org	3145735
  8117  300007  FF                 	db	255
  8118                           
  8119                           ;Config register CONFIG5L @ 0x300008
  8120                           ;	Code Protection Block 0
  8121                           ;	CP0 = OFF, Block 0 (000800-003FFFh) not code-protected
  8122                           ;	Code Protection Block 1
  8123                           ;	CP1 = OFF, Block 1 (004000-007FFFh) not code-protected
  8124                           ;	Code Protection Block 2
  8125                           ;	CP2 = OFF, Block 2 (008000-00BFFFh) not code-protected
  8126                           ;	Code Protection Block 3
  8127                           ;	CP3 = OFF, Block 3 (00C000-00FFFFh) not code-protected
  8128  300008                     	org	3145736
  8129  300008  0F                 	db	15
  8130                           
  8131                           ;Config register CONFIG5H @ 0x300009
  8132                           ;	Boot Block Code Protection bit
  8133                           ;	CPB = OFF, Boot block (000000-0007FFh) not code-protected
  8134                           ;	Data EEPROM Code Protection bit
  8135                           ;	CPD = OFF, Data EEPROM not code-protected
  8136  300009                     	org	3145737
  8137  300009  C0                 	db	192
  8138                           
  8139                           ;Config register CONFIG6L @ 0x30000A
  8140                           ;	Write Protection Block 0
  8141                           ;	WRT0 = OFF, Block 0 (000800-003FFFh) not write-protected
  8142                           ;	Write Protection Block 1
  8143                           ;	WRT1 = OFF, Block 1 (004000-007FFFh) not write-protected
  8144                           ;	Write Protection Block 2
  8145                           ;	WRT2 = OFF, Block 2 (008000-00BFFFh) not write-protected
  8146                           ;	Write Protection Block 3
  8147                           ;	WRT3 = OFF, Block 3 (00C000h-00FFFFh) not write-protected
  8148  30000A                     	org	3145738
  8149  30000A  0F                 	db	15
  8150                           
  8151                           ;Config register CONFIG6H @ 0x30000B
  8152                           ;	Configuration Register Write Protection bit
  8153                           ;	WRTC = OFF, Configuration registers (300000-3000FFh) not write-protected
  8154                           ;	Boot Block Write Protection bit
  8155                           ;	WRTB = OFF, Boot Block (000000-0007FFh) not write-protected
  8156                           ;	Data EEPROM Write Protection bit
  8157                           ;	WRTD = OFF, Data EEPROM not write-protected
  8158  30000B                     	org	3145739
  8159  30000B  E0                 	db	224
  8160                           
  8161                           ;Config register CONFIG7L @ 0x30000C
  8162                           ;	Table Read Protection Block 0
  8163                           ;	EBTR0 = OFF, Block 0 (000800-003FFFh) not protected from table reads executed in other
      +                           blocks
  8164                           ;	Table Read Protection Block 1
  8165                           ;	EBTR1 = OFF, Block 1 (004000-007FFFh) not protected from table reads executed in other
      +                           blocks
  8166                           ;	Table Read Protection Block 2
  8167                           ;	EBTR2 = OFF, Block 2 (008000-00BFFFh) not protected from table reads executed in other
      +                           blocks
  8168                           ;	Table Read Protection Block 3
  8169                           ;	EBTR3 = OFF, Block 3 (00C000-00FFFFh) not protected from table reads executed in other
      +                           blocks
  8170  30000C                     	org	3145740
  8171  30000C  0F                 	db	15
  8172                           
  8173                           ;Config register CONFIG7H @ 0x30000D
  8174                           ;	Boot Block Table Read Protection bit
  8175                           ;	EBTRB = OFF, Boot Block (000000-0007FFh) not protected from table reads executed in ot
      +                          her blocks
  8176  30000D                     	org	3145741
  8177  30000D  40                 	db	64
  8178                           tosu	equ	0xFFF
  8179                           tosh	equ	0xFFE
  8180                           tosl	equ	0xFFD
  8181                           stkptr	equ	0xFFC
  8182                           pclatu	equ	0xFFB
  8183                           pclath	equ	0xFFA
  8184                           pcl	equ	0xFF9
  8185                           tblptru	equ	0xFF8
  8186                           tblptrh	equ	0xFF7
  8187                           tblptrl	equ	0xFF6
  8188                           tablat	equ	0xFF5
  8189                           prodh	equ	0xFF4
  8190                           prodl	equ	0xFF3
  8191                           indf0	equ	0xFEF
  8192                           postinc0	equ	0xFEE
  8193                           postdec0	equ	0xFED
  8194                           preinc0	equ	0xFEC
  8195                           plusw0	equ	0xFEB
  8196                           fsr0h	equ	0xFEA
  8197                           fsr0l	equ	0xFE9
  8198                           wreg	equ	0xFE8
  8199                           indf1	equ	0xFE7
  8200                           postinc1	equ	0xFE6
  8201                           postdec1	equ	0xFE5
  8202                           preinc1	equ	0xFE4
  8203                           plusw1	equ	0xFE3
  8204                           fsr1h	equ	0xFE2
  8205                           fsr1l	equ	0xFE1
  8206                           bsr	equ	0xFE0
  8207                           indf2	equ	0xFDF
  8208                           postinc2	equ	0xFDE
  8209                           postdec2	equ	0xFDD
  8210                           preinc2	equ	0xFDC
  8211                           plusw2	equ	0xFDB
  8212                           fsr2h	equ	0xFDA
  8213                           fsr2l	equ	0xFD9
  8214                           status	equ	0xFD8

Data Sizes:
    Strings     69
    Constant    0
    Data        71
    BSS         61
    Persistent  0
    Stack       0

Auto Spaces:
    Space          Size  Autos    Used
    COMRAM           94     86      90
    BANK0           160     21     149
    BANK1           256      0       0
    BANK2           256      0       0
    BANK3           256      0       0
    BANK4           256      0       0
    BANK5           256      0       0
    BANK6           256      0       0
    BANK7           256      0       0
    BANK8           256      0       0
    BANK9           256      0       0
    BANK10          256      0       0
    BANK11          256      0       0
    BANK12          256      0       0
    BANK13          256      0       0
    BANK14          256      0       0
    BANK15           96      0       0

Pointer List with Targets:

    vfprintf$2	PTR PTR void  size(2) Largest target is 2
		 -> sprintf@ap(COMRAM[2]), 

    vfprintf$1	PTR const unsigned char  size(2) Largest target is 3
		 -> STR_10(CODE[3]), STR_9(CODE[3]), STR_8(CODE[3]), STR_7(CODE[3]), 
		 -> STR_6(CODE[3]), STR_5(CODE[3]), 

    vfprintf$0	PTR struct _IO_FILE size(2) Largest target is 11
		 -> sprintf@f(COMRAM[11]), 

    CCP_Interrupt_Config@_ccp_obj	PTR const struct . size(2) Largest target is 12
		 -> CCP2_Obj(BANK0[12]), CCP1_Obj(BANK0[12]), 

    I2C_Report_Write_Collision	PTR FTN()void  size(2) Largest target is 1
		 -> Absolute function(), 

    I2C_Report_Receive_Overflow	PTR FTN()void  size(2) Largest target is 1
		 -> Absolute function(), 

    I2C_DefaultInterruptHandler	PTR FTN()void  size(2) Largest target is 1
		 -> Absolute function(), 

    S5050$source	PTR const unsigned char  size(2) Largest target is 0

    f...source	PTR const unsigned char  size(2) Largest target is 0

    S5050$buffer	PTR unsigned char  size(2) Largest target is 0

    f...buffer	PTR unsigned char  size(2) Largest target is 0

    Timer2_Init@_timer2	PTR const struct . size(2) Largest target is 12
		 -> CCP2_Obj(BANK0[12]), CCP1_Obj(BANK0[12]), 

    Timer1_Preload_Value@_timer1.Timer1_InterruptHandler	PTR FTN()void  size(2) Largest target is 0

    Timer1_RW_Mode_Select@_timer1.Timer1_InterruptHandler	PTR FTN()void  size(2) Largest target is 0

    Timer1_Mode_Select@_timer1.Timer1_InterruptHandler	PTR FTN()void  size(2) Largest target is 0

    Timer1_Prescaler_Config@_timer1.Timer1_InterruptHandler	PTR FTN()void  size(2) Largest target is 0

    Timer1_Interrupt_Handler	PTR FTN()void  size(2) Largest target is 1
		 -> Absolute function(), 

    S3582$Timer1_InterruptHandler	PTR FTN()void  size(2) Largest target is 0

    Timer1_Init@_timer1.Timer1_InterruptHandler	PTR FTN()void  size(2) Largest target is 0

    interrupt_RBx_set_callback@int_obj.Ext_Interrupt_Handler_Low	PTR FTN()void  size(2) Largest target is 0

    interrupt_RBx_set_callback@int_obj.Ext_Interrupt_Handler_High	PTR FTN()void  size(2) Largest target is 0

    interrupt_RBx_set_priority@int_obj.Ext_Interrupt_Handler_Low	PTR FTN()void  size(2) Largest target is 0

    interrupt_RBx_set_priority@int_obj.Ext_Interrupt_Handler_High	PTR FTN()void  size(2) Largest target is 0

    interrupt_RBx_pin_init@int_obj.Ext_Interrupt_Handler_Low	PTR FTN()void  size(2) Largest target is 0

    interrupt_RBx_pin_init@int_obj.Ext_Interrupt_Handler_High	PTR FTN()void  size(2) Largest target is 0

    interrupt_RBx_disable@int_obj.Ext_Interrupt_Handler_Low	PTR FTN()void  size(2) Largest target is 0

    interrupt_RBx_disable@int_obj.Ext_Interrupt_Handler_High	PTR FTN()void  size(2) Largest target is 0

    S3077$Ext_Interrupt_Handler_Low	PTR FTN()void  size(2) Largest target is 0

    interrupt_RBx_enable@int_obj.Ext_Interrupt_Handler_Low	PTR FTN()void  size(2) Largest target is 0

    S3077$Ext_Interrupt_Handler_High	PTR FTN()void  size(2) Largest target is 0

    interrupt_RBx_enable@int_obj.Ext_Interrupt_Handler_High	PTR FTN()void  size(2) Largest target is 0

    interrupt_INTx_set_callback@int_obj.Ext_Interrupt_Handler	PTR FTN()void  size(2) Largest target is 0

    interrupt_INTx_clear_flag@int_obj.Ext_Interrupt_Handler	PTR FTN()void  size(2) Largest target is 0

    interrupt_INTx_enable@int_obj.Ext_Interrupt_Handler	PTR FTN()void  size(2) Largest target is 0

    interrupt_INTx_disable@int_obj.Ext_Interrupt_Handler	PTR FTN()void  size(2) Largest target is 0

    interrupt_INTx_set_priority@int_obj.Ext_Interrupt_Handler	PTR FTN()void  size(2) Largest target is 0

    interrupt_INTx_set_edge@int_obj.Ext_Interrupt_Handler	PTR FTN()void  size(2) Largest target is 0

    S3030$Ext_Interrupt_Handler	PTR FTN()void  size(2) Largest target is 0

    interrupt_INTx_pin_init@int_obj.Ext_Interrupt_Handler	PTR FTN()void  size(2) Largest target is 0

    RB7_InterruptHandler_LOW	PTR FTN()void  size(2) Largest target is 1
		 -> Absolute function(), 

    RB7_InterruptHandler_HIGH	PTR FTN()void  size(2) Largest target is 1
		 -> Absolute function(), 

    RB6_InterruptHandler_LOW	PTR FTN()void  size(2) Largest target is 1
		 -> Absolute function(), 

    RB6_InterruptHandler_HIGH	PTR FTN()void  size(2) Largest target is 1
		 -> Absolute function(), 

    RB5_InterruptHandler_LOW	PTR FTN()void  size(2) Largest target is 1
		 -> Absolute function(), 

    RB5_InterruptHandler_HIGH	PTR FTN()void  size(2) Largest target is 1
		 -> Absolute function(), 

    RB4_InterruptHandler_LOW	PTR FTN()void  size(2) Largest target is 1
		 -> Absolute function(), 

    RB4_InterruptHandler_HIGH	PTR FTN()void  size(2) Largest target is 1
		 -> Absolute function(), 

    INT2_InterruptHandler	PTR FTN()void  size(2) Largest target is 1
		 -> Absolute function(), 

    INT1_InterruptHandler	PTR FTN()void  size(2) Largest target is 1
		 -> Absolute function(), 

    INT0_InterruptHandler	PTR FTN()void  size(2) Largest target is 1
		 -> Absolute function(), 

    I2C_Slave_Mode_Clock_Configurations@i2c_obj	PTR const struct . size(2) Largest target is 7
		 -> i2c_obj(BANK0[7]), 

    I2C_Master_Mode_Clock_Configurations@i2c_obj	PTR const struct . size(2) Largest target is 7
		 -> i2c_obj(BANK0[7]), 

    MSSP_I2C_Master_Write_Blocking@_ack	PTR unsigned char  size(2) Largest target is 1
		 -> PCA_Write_Reg@ack(COMRAM[1]), 

    MSSP_I2C_Master_Write_Blocking@i2c_obj	PTR const struct . size(2) Largest target is 7
		 -> i2c_obj(BANK0[7]), 

    MSSP_I2C_Master_Send_Stop@i2c_obj	PTR const struct . size(2) Largest target is 7
		 -> i2c_obj(BANK0[7]), 

    MSSP_I2C_Master_Send_Start@i2c_obj	PTR const struct . size(2) Largest target is 7
		 -> i2c_obj(BANK0[7]), 

    MSSP_I2C_Init@i2c_obj	PTR const struct . size(2) Largest target is 7
		 -> i2c_obj(BANK0[7]), 

    GPIO_Pin_Initialize@_pin_config	PTR const struct . size(2) Largest target is 12
		 -> pinc0(BANK0[1]), CCP2_Obj(BANK0[12]), CCP1_Obj(BANK0[12]), W2_W4_W6_Motor_Control(BANK0[1]), 
		 -> W1_W3_W5_Motor_Control(BANK0[1]), 

    GPIO_Pin_Toggle_Logic@_pin_config	PTR const struct . size(2) Largest target is 1
		 -> pinc0(BANK0[1]), 

    GPIO_Pin_Write_Logic@_pin_config	PTR const struct . size(2) Largest target is 12
		 -> pinc0(BANK0[1]), CCP2_Obj(BANK0[12]), CCP1_Obj(BANK0[12]), W2_W4_W6_Motor_Control(BANK0[1]), 
		 -> W1_W3_W5_Motor_Control(BANK0[1]), 

    GPIO_Pin_Direction_Initialize@_pin_config	PTR const struct . size(2) Largest target is 12
		 -> pinc0(BANK0[1]), CCP2_Obj(BANK0[12]), CCP1_Obj(BANK0[12]), W2_W4_W6_Motor_Control(BANK0[1]), 
		 -> W1_W3_W5_Motor_Control(BANK0[1]), 

    port_registers	PTR volatile unsigned char [5] size(2) Largest target is 1
		 -> PORTE(BITBIGSFRllllh[1]), PORTD(BITBIGSFRllllh[1]), PORTC(BITBIGSFRllllh[1]), PORTB(BITBIGSFRllllh[1]), 
		 -> PORTA(BITBIGSFRlllll[1]), 

    lat_registers	PTR volatile unsigned char [5] size(2) Largest target is 1
		 -> LATE(BITBIGSFRlllh[1]), LATD(BITBIGSFRlllh[1]), LATC(BITBIGSFRlllh[1]), LATB(BITBIGSFRlllh[1]), 
		 -> LATA(BITBIGSFRlllll[1]), 

    tris_registers	PTR volatile unsigned char [5] size(2) Largest target is 1
		 -> TRISD(ABS[1]), TRISC(SFR[1]), TRISB(ABS[1]), TRISE(ABS[1]), 
		 -> TRISA(BITBIGSFRlllll[1]), 

    async_config_baud_rate_gen@_eusart_obj.rx_config.ferr_InterruptHandler	PTR FTN()void  size(2) Largest target is 0

    async_config_baud_rate_gen@_eusart_obj.rx_config.oerr_InterruptHandler	PTR FTN()void  size(2) Largest target is 0

    async_config_baud_rate_gen@_eusart_obj.rx_config.rx_InterruptHandler	PTR FTN()void  size(2) Largest target is 0

    Rx_config_interrupt@_rx_obj.ferr_InterruptHandler	PTR FTN()void  size(2) Largest target is 0

    Rx_config_interrupt@_rx_obj.oerr_InterruptHandler	PTR FTN()void  size(2) Largest target is 0

    Rx_config_interrupt@_rx_obj.rx_InterruptHandler	PTR FTN()void  size(2) Largest target is 0

    eusart_Rx_InterruptHandler	PTR FTN()void  size(2) Largest target is 1
		 -> Absolute function(), 

    async_Rx_config@_rx_obj.ferr_InterruptHandler	PTR FTN()void  size(2) Largest target is 0

    async_Rx_config@_rx_obj.oerr_InterruptHandler	PTR FTN()void  size(2) Largest target is 0

    async_Rx_config@_rx_obj.rx_InterruptHandler	PTR FTN()void  size(2) Largest target is 0

    eusart_frameerr_CallBack	PTR FTN()void  size(2) Largest target is 1
		 -> Absolute function(), 

    eusart_overrunerr_CallBack	PTR FTN()void  size(2) Largest target is 1
		 -> Absolute function(), 

    EUSART_Async_Read_Data@_eusart_obj.rx_config.ferr_InterruptHandler	PTR FTN()void  size(2) Largest target is 0

    EUSART_Async_Read_Data@_eusart_obj.rx_config.oerr_InterruptHandler	PTR FTN()void  size(2) Largest target is 0

    EUSART_Async_Read_Data@_eusart_obj.rx_config.rx_InterruptHandler	PTR FTN()void  size(2) Largest target is 0

    EUSART_Async_Transmit_Data@_eusart_obj.rx_config.ferr_InterruptHandler	PTR FTN()void  size(2) Largest target is 0

    EUSART_Async_Transmit_Data@_eusart_obj.rx_config.oerr_InterruptHandler	PTR FTN()void  size(2) Largest target is 0

    EUSART_Async_Transmit_Data@_eusart_obj.rx_config.rx_InterruptHandler	PTR FTN()void  size(2) Largest target is 0

    EUSART_Async_Init@_eusart_obj.rx_config.ferr_InterruptHandler	PTR FTN()void  size(2) Largest target is 0

    EUSART_Async_Init@_eusart_obj.rx_config.oerr_InterruptHandler	PTR FTN()void  size(2) Largest target is 0

    EUSART_Async_Init@_eusart_obj.rx_config.rx_InterruptHandler	PTR FTN()void  size(2) Largest target is 0

    CCP_Compare_Mode_Config@_ccp_obj	PTR const struct . size(2) Largest target is 12
		 -> CCP2_Obj(BANK0[12]), CCP1_Obj(BANK0[12]), 

    CCP_Capture_Mode_Config@_ccp_obj	PTR const struct . size(2) Largest target is 12
		 -> CCP2_Obj(BANK0[12]), CCP1_Obj(BANK0[12]), 

    CCP_Mode_Timer_Select@_ccp_obj	PTR const struct . size(2) Largest target is 12
		 -> CCP2_Obj(BANK0[12]), CCP1_Obj(BANK0[12]), 

    CCP_PWM_Mode_Config@_ccp_obj	PTR const struct . size(2) Largest target is 12
		 -> CCP2_Obj(BANK0[12]), CCP1_Obj(BANK0[12]), 

    CCP_PWM_Start@_ccp_obj	PTR const struct . size(2) Largest target is 12
		 -> CCP2_Obj(BANK0[12]), CCP1_Obj(BANK0[12]), 

    CCP_PWM_Set_Duty@_ccp_obj	PTR const struct . size(2) Largest target is 12
		 -> CCP2_Obj(BANK0[12]), CCP1_Obj(BANK0[12]), 

    CCP_Init@_ccp_obj	PTR const struct . size(2) Largest target is 12
		 -> CCP2_Obj(BANK0[12]), CCP1_Obj(BANK0[12]), 

    PCA_Write_Reg@i2c_obj	PTR const struct . size(2) Largest target is 7
		 -> i2c_obj(BANK0[7]), 

    Servo_SetAngle@servo_driver_obj	PTR const struct . size(2) Largest target is 4
		 -> servo_driver_obj(BANK0[4]), 

    Servo_SetAngle@i2c_obj	PTR const struct . size(2) Largest target is 7
		 -> i2c_obj(BANK0[7]), 

    ServoDriver_Init@servo_driver_obj	PTR const struct . size(2) Largest target is 4
		 -> servo_driver_obj(BANK0[4]), 

    ServoDriver_Init@i2c_obj	PTR const struct . size(2) Largest target is 7
		 -> i2c_obj(BANK0[7]), 

    sp__memset	PTR void  size(2) Largest target is 0

    ECU_DC_Motor_Run_Right@dc_motor	PTR const struct . size(2) Largest target is 1
		 -> W2_W4_W6_Motor_Control(BANK0[1]), W1_W3_W5_Motor_Control(BANK0[1]), 

    ECU_DC_Motor_Run_Left@dc_motor	PTR const struct . size(2) Largest target is 1
		 -> W2_W4_W6_Motor_Control(BANK0[1]), W1_W3_W5_Motor_Control(BANK0[1]), 

    ECU_DC_Motor_Init@dc_motor	PTR const struct . size(2) Largest target is 1
		 -> W2_W4_W6_Motor_Control(BANK0[1]), W1_W3_W5_Motor_Control(BANK0[1]), 

    S32$ferr_InterruptHandler	PTR FTN()void  size(2) Largest target is 0

    Bluetooth_Init@_uart_obj.rx_config.ferr_InterruptHandler	PTR FTN()void  size(2) Largest target is 0

    S32$oerr_InterruptHandler	PTR FTN()void  size(2) Largest target is 0

    Bluetooth_Init@_uart_obj.rx_config.oerr_InterruptHandler	PTR FTN()void  size(2) Largest target is 0

    S32$rx_InterruptHandler	PTR FTN()void  size(2) Largest target is 0

    Bluetooth_Init@_uart_obj.rx_config.rx_InterruptHandler	PTR FTN()void  size(2) Largest target is 0


Critical Paths under _main in COMRAM

    _I2C_Master_Mode_Clock_Configurations->___fltol
    _ECU_DC_Motor_Init->_GPIO_Pin_Initialize
    _CCP_Init->_GPIO_Pin_Initialize
    _GPIO_Pin_Initialize->_GPIO_Pin_Write_Logic
    _CCP_PWM_Mode_Config->_Timer2_Init
    _CCP_Compare_Mode_Config->_CCP_Mode_Timer_Select
    _CCP_Capture_Mode_Config->_CCP_Mode_Timer_Select
    _ECU_DC_Motor_Run_Right->_GPIO_Pin_Write_Logic
    _Servo_SetAngle->___fltol
    ___fladd->___flmul
    _PCA_Write_Reg->_MSSP_I2C_Master_Write_Blocking
    _CCP_PWM_Set_Duty->___fltol
    ___fltol->___fladd
    ___flmul->___fldiv
    ___fldiv->___xxtofl
    _ECU_DC_Motor_Run_Left->_GPIO_Pin_Write_Logic

Critical Paths under _InterruptManagerLow in COMRAM

    _InterruptManagerLow->_RB4_ISR
    _InterruptManagerLow->_RB5_ISR
    _InterruptManagerLow->_RB6_ISR
    _InterruptManagerLow->_RB7_ISR

Critical Paths under _InterruptManagerHigh in COMRAM

    None.

Critical Paths under _main in BANK0

    _main->_CCP_PWM_Set_Duty
    _Robot_Nav_Init->_CCP_PWM_Set_Duty
    _ServoDriver_Init->_MSSP_I2C_Init
    _MSSP_I2C_Init->_I2C_Master_Mode_Clock_Configurations
    _I2C_Master_Mode_Clock_Configurations->___fltol
    _Robot_Move_Forward->_CCP_PWM_Set_Duty
    _Robot_Move_Backward->_CCP_PWM_Set_Duty
    _Servo_SetAngle->___fltol
    _Robot_Steer_Stop->_CCP_PWM_Set_Duty
    _CCP_PWM_Set_Duty->___fltol

Critical Paths under _InterruptManagerLow in BANK0

    None.

Critical Paths under _InterruptManagerHigh in BANK0

    None.

Critical Paths under _main in BANK1

    None.

Critical Paths under _InterruptManagerLow in BANK1

    None.

Critical Paths under _InterruptManagerHigh in BANK1

    None.

Critical Paths under _main in BANK2

    None.

Critical Paths under _InterruptManagerLow in BANK2

    None.

Critical Paths under _InterruptManagerHigh in BANK2

    None.

Critical Paths under _main in BANK3

    None.

Critical Paths under _InterruptManagerLow in BANK3

    None.

Critical Paths under _InterruptManagerHigh in BANK3

    None.

Critical Paths under _main in BANK4

    None.

Critical Paths under _InterruptManagerLow in BANK4

    None.

Critical Paths under _InterruptManagerHigh in BANK4

    None.

Critical Paths under _main in BANK5

    None.

Critical Paths under _InterruptManagerLow in BANK5

    None.

Critical Paths under _InterruptManagerHigh in BANK5

    None.

Critical Paths under _main in BANK6

    None.

Critical Paths under _InterruptManagerLow in BANK6

    None.

Critical Paths under _InterruptManagerHigh in BANK6

    None.

Critical Paths under _main in BANK7

    None.

Critical Paths under _InterruptManagerLow in BANK7

    None.

Critical Paths under _InterruptManagerHigh in BANK7

    None.

Critical Paths under _main in BANK8

    None.

Critical Paths under _InterruptManagerLow in BANK8

    None.

Critical Paths under _InterruptManagerHigh in BANK8

    None.

Critical Paths under _main in BANK9

    None.

Critical Paths under _InterruptManagerLow in BANK9

    None.

Critical Paths under _InterruptManagerHigh in BANK9

    None.

Critical Paths under _main in BANK10

    None.

Critical Paths under _InterruptManagerLow in BANK10

    None.

Critical Paths under _InterruptManagerHigh in BANK10

    None.

Critical Paths under _main in BANK11

    None.

Critical Paths under _InterruptManagerLow in BANK11

    None.

Critical Paths under _InterruptManagerHigh in BANK11

    None.

Critical Paths under _main in BANK12

    None.

Critical Paths under _InterruptManagerLow in BANK12

    None.

Critical Paths under _InterruptManagerHigh in BANK12

    None.

Critical Paths under _main in BANK13

    None.

Critical Paths under _InterruptManagerLow in BANK13

    None.

Critical Paths under _InterruptManagerHigh in BANK13

    None.

Critical Paths under _main in BANK14

    None.

Critical Paths under _InterruptManagerLow in BANK14

    None.

Critical Paths under _InterruptManagerHigh in BANK14

    None.

Critical Paths under _main in BANK15

    None.

Critical Paths under _InterruptManagerLow in BANK15

    None.

Critical Paths under _InterruptManagerHigh in BANK15

    None.

Call Graph Tables:

 ---------------------------------------------------------------------------------
 (Depth) Function   	        Calls       Base Space   Used Autos Params    Refs
 ---------------------------------------------------------------------------------
 (0) _main                                                 2     2      0  139023
                                             19 BANK0      2     2      0
                   _CCP_PWM_Set_Duty
              _GPIO_Pin_Toggle_Logic
                _Robot_Move_Backward
                 _Robot_Move_Forward
                   _Robot_Steer_Stop
              _application_intialize
 ---------------------------------------------------------------------------------
 (1) _application_intialize                                0     0      0   40587
                _GPIO_Pin_Initialize
                     _Robot_Nav_Init
 ---------------------------------------------------------------------------------
 (2) _Robot_Nav_Init                                       1     1      0   34947
                           _CCP_Init
                   _CCP_PWM_Set_Duty
                      _CCP_PWM_Start
                  _ECU_DC_Motor_Init
                   _ServoDriver_Init
 ---------------------------------------------------------------------------------
 (3) _ServoDriver_Init                                     5     1      4   11831
                                             13 BANK0      4     0      4
                      _MSSP_I2C_Init
                      _PCA_Write_Reg
 ---------------------------------------------------------------------------------
 (4) _MSSP_I2C_Init                                        3     1      2    8481
                                             11 BANK0      2     0      2
_I2C_Master_Mode_Clock_Configuration
             _I2C_Pin_Configurations
_I2C_Slave_Mode_Clock_Configurations
 ---------------------------------------------------------------------------------
 (5) _I2C_Slave_Mode_Clock_Configurations                  4     2      2     122
                                              4 COMRAM     3     1      2
 ---------------------------------------------------------------------------------
 (5) _I2C_Pin_Configurations                               0     0      0       0
 ---------------------------------------------------------------------------------
 (5) _I2C_Master_Mode_Clock_Configurations                 4     2      2    7884
                                              8 BANK0      3     1      2
                            ___fladd
                            ___fldiv
                            ___fltol
                           ___xxtofl
 ---------------------------------------------------------------------------------
 (3) _ECU_DC_Motor_Init                                    3     1      2    5844
                                             17 COMRAM     2     0      2
                _GPIO_Pin_Initialize
 ---------------------------------------------------------------------------------
 (3) _CCP_PWM_Start                                        4     2      2     227
                                              4 COMRAM     3     1      2
 ---------------------------------------------------------------------------------
 (3) _CCP_Init                                             4     2      2    7382
                                             17 COMRAM     3     1      2
            _CCP_Capture_Mode_Config
            _CCP_Compare_Mode_Config
               _CCP_Interrupt_Config
                _CCP_PWM_Mode_Config
                _GPIO_Pin_Initialize
 ---------------------------------------------------------------------------------
 (4) _GPIO_Pin_Initialize                                  3     1      2    5640
                                             14 COMRAM     3     1      2
      _GPIO_Pin_Direction_Initialize
               _GPIO_Pin_Write_Logic
 ---------------------------------------------------------------------------------
 (5) _GPIO_Pin_Direction_Initialize                        9     7      2     483
                                              4 COMRAM     9     7      2
 ---------------------------------------------------------------------------------
 (4) _CCP_PWM_Mode_Config                                  3     1      2     402
                                              7 COMRAM     3     1      2
                        _Timer2_Init
 ---------------------------------------------------------------------------------
 (5) _Timer2_Init                                          4     2      2     194
                                              4 COMRAM     3     1      2
 ---------------------------------------------------------------------------------
 (4) _CCP_Interrupt_Config                                 2     0      2      76
                                              4 COMRAM     2     0      2
 ---------------------------------------------------------------------------------
 (4) _CCP_Compare_Mode_Config                              5     3      2     429
                                              7 COMRAM     5     3      2
              _CCP_Mode_Timer_Select
 ---------------------------------------------------------------------------------
 (4) _CCP_Capture_Mode_Config                              5     3      2     429
                                              7 COMRAM     5     3      2
              _CCP_Mode_Timer_Select
 ---------------------------------------------------------------------------------
 (5) _CCP_Mode_Timer_Select                                3     1      2     218
                                              4 COMRAM     3     1      2
 ---------------------------------------------------------------------------------
 (1) _Robot_Move_Forward                                   1     1      0   39599
                   _CCP_PWM_Set_Duty
             _ECU_DC_Motor_Run_Right
                   _Robot_Steer_Stop
                     _Servo_SetAngle
 ---------------------------------------------------------------------------------
 (2) _ECU_DC_Motor_Run_Right                               3     1      2    4487
                                             14 COMRAM     2     0      2
               _GPIO_Pin_Write_Logic
 ---------------------------------------------------------------------------------
 (1) _Robot_Move_Backward                                  1     1      0   39295
                   _CCP_PWM_Set_Duty
              _ECU_DC_Motor_Run_Left
                   _Robot_Steer_Stop
                     _Servo_SetAngle
 ---------------------------------------------------------------------------------
 (2) _Servo_SetAngle                                      10     4      6   15786
                                              8 BANK0      9     3      6
                      _PCA_Write_Reg
                            ___fladd
                            ___flmul
                            ___fltol
                           ___xxtofl
 ---------------------------------------------------------------------------------
 (6) ___fladd                                             16     8      8    3094
                                             68 COMRAM    16     8      8
                            ___fldiv (ARG)
                            ___flmul (ARG)
                           ___xxtofl (ARG)
 ---------------------------------------------------------------------------------
 (4) _PCA_Write_Reg                                        6     1      5    2785
                                              9 COMRAM     6     1      5
         _MSSP_I2C_Master_Send_Start
          _MSSP_I2C_Master_Send_Stop
     _MSSP_I2C_Master_Write_Blocking
 ---------------------------------------------------------------------------------
 (5) _MSSP_I2C_Master_Write_Blocking                       6     1      5     802
                                              4 COMRAM     5     0      5
 ---------------------------------------------------------------------------------
 (5) _MSSP_I2C_Master_Send_Stop                            3     1      2     108
                                              4 COMRAM     2     0      2
 ---------------------------------------------------------------------------------
 (5) _MSSP_I2C_Master_Send_Start                           3     1      2     108
                                              4 COMRAM     2     0      2
 ---------------------------------------------------------------------------------
 (1) _Robot_Steer_Stop                                     1     1      0    9663
                   _CCP_PWM_Set_Duty
 ---------------------------------------------------------------------------------
 (3) _CCP_PWM_Set_Duty                                    12     9      3    9653
                                              8 BANK0     11     8      3
                            ___fldiv
                            ___flmul
                            ___fltol
                           ___xxtofl
 ---------------------------------------------------------------------------------
 (6) ___xxtofl                                            14    10      4     979
                                              4 COMRAM    14    10      4
 ---------------------------------------------------------------------------------
 (6) ___fltol                                             10     6      4     757
                                             84 COMRAM     2     2      0
                                              0 BANK0      8     4      4
                            ___fladd (ARG)
                            ___fldiv (ARG)
                            ___flmul (ARG)
                           ___xxtofl (ARG)
 ---------------------------------------------------------------------------------
 (4) ___flmul                                             25    17      8    2048
                                             43 COMRAM    25    17      8
                            ___fldiv (ARG)
                           ___xxtofl (ARG)
 ---------------------------------------------------------------------------------
 (6) ___fldiv                                             25    17      8    2865
                                             18 COMRAM    25    17      8
                           ___xxtofl (ARG)
 ---------------------------------------------------------------------------------
 (2) _ECU_DC_Motor_Run_Left                                3     1      2    4183
                                             14 COMRAM     2     0      2
               _GPIO_Pin_Write_Logic
 ---------------------------------------------------------------------------------
 (5) _GPIO_Pin_Write_Logic                                10     7      3    3979
                                              4 COMRAM    10     7      3
 ---------------------------------------------------------------------------------
 (1) _GPIO_Pin_Toggle_Logic                                8     6      2     226
                                              4 COMRAM     7     5      2
 ---------------------------------------------------------------------------------
 Estimated maximum stack depth 6
 ---------------------------------------------------------------------------------
 (Depth) Function   	        Calls       Base Space   Used Autos Params    Refs
 ---------------------------------------------------------------------------------
 (7) _InterruptManagerLow                                  3     3      0     176
                                              1 COMRAM     3     3      0
                            _ADC_ISR
                           _INT1_ISR
                            _RB4_ISR
                            _RB5_ISR
                            _RB6_ISR
                            _RB7_ISR
 ---------------------------------------------------------------------------------
 (8) _RB7_ISR                                              1     1      0      44
                                              0 COMRAM     1     1      0
 ---------------------------------------------------------------------------------
 (8) _RB6_ISR                                              1     1      0      44
                                              0 COMRAM     1     1      0
 ---------------------------------------------------------------------------------
 (8) _RB5_ISR                                              1     1      0      44
                                              0 COMRAM     1     1      0
 ---------------------------------------------------------------------------------
 (8) _RB4_ISR                                              1     1      0      44
                                              0 COMRAM     1     1      0
 ---------------------------------------------------------------------------------
 (8) _INT1_ISR                                             0     0      0       0
 ---------------------------------------------------------------------------------
 (8) _ADC_ISR                                              0     0      0       0
 ---------------------------------------------------------------------------------
 Estimated maximum stack depth 8
 ---------------------------------------------------------------------------------
 (Depth) Function   	        Calls       Base Space   Used Autos Params    Refs
 ---------------------------------------------------------------------------------
 (9) _InterruptManagerHigh                                 0     0      0       0
                      _EUSART_Rx_ISR
                      _EUSART_Tx_ISR
                           _TMR0_ISR
 ---------------------------------------------------------------------------------
 (10) _TMR0_ISR                                            0     0      0       0
 ---------------------------------------------------------------------------------
 (10) _EUSART_Tx_ISR                                       0     0      0       0
 ---------------------------------------------------------------------------------
 (10) _EUSART_Rx_ISR                                       0     0      0       0
 ---------------------------------------------------------------------------------
 Estimated maximum stack depth 10
 ---------------------------------------------------------------------------------

 Call Graph Graphs:

 _main (ROOT)
   _CCP_PWM_Set_Duty
     ___fldiv
       ___xxtofl (ARG)
     ___flmul
       ___fldiv (ARG)
       ___xxtofl (ARG)
     ___fltol
       ___fladd (ARG)
         ___fldiv (ARG)
         ___flmul (ARG)
         ___xxtofl (ARG)
       ___fldiv (ARG)
       ___flmul (ARG)
       ___xxtofl (ARG)
     ___xxtofl
   _GPIO_Pin_Toggle_Logic
   _Robot_Move_Backward
     _CCP_PWM_Set_Duty
     _ECU_DC_Motor_Run_Left
       _GPIO_Pin_Write_Logic
     _Robot_Steer_Stop
       _CCP_PWM_Set_Duty
     _Servo_SetAngle
       _PCA_Write_Reg
         _MSSP_I2C_Master_Send_Start
         _MSSP_I2C_Master_Send_Stop
         _MSSP_I2C_Master_Write_Blocking
       ___fladd
       ___flmul
       ___fltol
       ___xxtofl
   _Robot_Move_Forward
     _CCP_PWM_Set_Duty
     _ECU_DC_Motor_Run_Right
       _GPIO_Pin_Write_Logic
     _Robot_Steer_Stop
     _Servo_SetAngle
   _Robot_Steer_Stop
   _application_intialize
     _GPIO_Pin_Initialize
       _GPIO_Pin_Direction_Initialize
       _GPIO_Pin_Write_Logic
     _Robot_Nav_Init
       _CCP_Init
         _CCP_Capture_Mode_Config
           _CCP_Mode_Timer_Select
         _CCP_Compare_Mode_Config
           _CCP_Mode_Timer_Select
         _CCP_Interrupt_Config
         _CCP_PWM_Mode_Config
           _Timer2_Init
         _GPIO_Pin_Initialize
       _CCP_PWM_Set_Duty
       _CCP_PWM_Start
       _ECU_DC_Motor_Init
         _GPIO_Pin_Initialize
       _ServoDriver_Init
         _MSSP_I2C_Init
           _I2C_Master_Mode_Clock_Configurations
             ___fladd
             ___fldiv
             ___fltol
             ___xxtofl
           _I2C_Pin_Configurations
           _I2C_Slave_Mode_Clock_Configurations
         _PCA_Write_Reg

 _InterruptManagerLow (ROOT)
   _ADC_ISR
   _INT1_ISR
   _RB4_ISR
   _RB5_ISR
   _RB6_ISR
   _RB7_ISR

 _InterruptManagerHigh (ROOT)
   _EUSART_Rx_ISR
   _EUSART_Tx_ISR
   _TMR0_ISR

 Address spaces:
Name               Size   Autos  Total    Cost      Usage
BIGRAM             F5F      0       0      49        0.0%
EEDATA             400      0       0       0        0.0%
BITBANK14          100      0       0      33        0.0%
BANK14             100      0       0      34        0.0%
BITBANK13          100      0       0      31        0.0%
BANK13             100      0       0      32        0.0%
BITBANK12          100      0       0      29        0.0%
BANK12             100      0       0      30        0.0%
BITBANK11          100      0       0      27        0.0%
BANK11             100      0       0      28        0.0%
BITBANK10          100      0       0      25        0.0%
BANK10             100      0       0      26        0.0%
BITBANK9           100      0       0      23        0.0%
BANK9              100      0       0      24        0.0%
BITBANK8           100      0       0      21        0.0%
BANK8              100      0       0      22        0.0%
BITBANK7           100      0       0      19        0.0%
BANK7              100      0       0      20        0.0%
BITBANK6           100      0       0      17        0.0%
BANK6              100      0       0      18        0.0%
BITBANK5           100      0       0      15        0.0%
BANK5              100      0       0      16        0.0%
BITBANK4           100      0       0      13        0.0%
BANK4              100      0       0      14        0.0%
BITBANK3           100      0       0      10        0.0%
BANK3              100      0       0      11        0.0%
BITBANK2           100      0       0       8        0.0%
BANK2              100      0       0       9        0.0%
BITBANK1           100      0       0       6        0.0%
BANK1              100      0       0       7        0.0%
BITBANK0            A0      0       0       4        0.0%
BANK0               A0     15      95       5       93.1%
BITBANK15           60      0       0      35        0.0%
BANK15              60      0       0      36        0.0%
BITCOMRAM           5E      0       0       0        0.0%
COMRAM              5E     56      5A       1       95.7%
BITBIGSFRlllll      20      0       0      48        0.0%
BITBIGSFRhhhhll     18      0       0      38        0.0%
BITBIGSFRhhhhh       D      0       0      37        0.0%
BITBIGSFRllhhll      9      0       0      44        0.0%
BITBIGSFRllhhll      6      0       0      43        0.0%
BITBIGSFRllhhll      6      0       0      45        0.0%
BITBIGSFRllllh       4      0       0      47        0.0%
BITBIGSFRlllh        4      0       0      46        0.0%
BITBIGSFRhhhhll      3      0       0      39        0.0%
BITBIGSFRllhhll      1      0       0      42        0.0%
BITBIGSFRllhhlh      1      0       0      41        0.0%
BITBIGSFRllhhh       1      0       0      40        0.0%
BIGSFR               0      0       0     200        0.0%
BITSFR               0      0       0     200        0.0%
SFR                  0      0       0     200        0.0%
STACK                0      0       0       2        0.0%
NULL                 0      0       0       0        0.0%
ABS                  0      0      EF      12        0.0%
DATA                 0      0      EF       3        0.0%
CODE                 0      0       0       0        0.0%


Microchip Technology PIC18 Macro Assembler V2.36 build 20220127204148 
Symbol Table                                                                                   Fri Apr 07 16:23:52 2023

                                 ___fldiv@aexp 002B                                   ___fldiv@bexp 002A  
                                 ___fldiv@sign 0023                                    _SSPSTATbits 000FC7  
                                           l60 33CE                                             l55 3418  
                                           l65 33A6                                             bsr 000FE0  
                        ??_InterruptManagerLow 0002                 ECU_DC_Motor_Run_Right@dc_motor 000F  
                                          l300 2B72                                            l310 2AB0  
                                          l313 319C                                            l502 29D4  
                                          l520 2188                                            l605 22F0  
                                          l552 34A2                                            l561 2FF0  
                                          l529 31F8                                            l549 2EFC  
                                          l558 2FF0                                            l582 2570  
                                          l912 3298                                            l907 3060  
                                          l499 29B8                                            l970 258A  
                                          l876 2430                                            l895 27D6  
                                          l976 260C                                            l985 26AC  
                                          l996 332C                                            l988 26AE  
                                          l998 332E                                            _PR2 000FCB  
                       ??_InterruptManagerHigh 0001                      _RB5_InterruptHandler_HIGH 00C7  
                              __end_of_ADC_ISR 34A6       GPIO_Pin_Direction_Initialize@ERRORSTATUS 000D  
                                          prod 000FF3                                            wreg 000FE8  
                                   _TXSTA1bits 000FAC                                   ___flmul@aexp 003D  
                                 ___flmul@bexp 003E                                   ___flmul@sign 0038  
                                 ___flmul@temp 0043                                   ___flmul@prod 003F  
                       ??_GPIO_Pin_Write_Logic 0008                                __end_of_RB4_ISR 3482  
                              __end_of_RB5_ISR 3468                                __end_of_RB6_ISR 344E  
                              __end_of_RB7_ISR 3434                                   ___fltol@exp1 0056  
                                         l1000 333C                                           l1003 334C  
                                         l1021 3314                                           l1014 32F4  
                                         l1030 310A                                           l1016 32F6  
                                         l1024 30F8                                           l1033 3136  
                                         l1018 3304                                           l1028 30FC  
                                         l1083 337E                                           l1078 2DA6  
                                         l1086 3498                                           l2135 28DE  
                                         l2420 1CCA                                           l2500 1DBA  
                                         l2422 1B2A                                           l2431 1B70  
                                         l2433 1BE8                                           l2425 1AEE  
                                         l2434 1BD6                                           l2507 1E16  
                                         l2452 15CC                                           l1652 2F80  
                                         l1804 3492                                           l2461 183A  
                                         l1813 3078                                           l2462 1828  
                                         l2366 1236                                           l2383 1350  
                                         l2375 1506                                           l2367 1224  
                                         l1655 2C32                                           l1815 30CE  
                                         l2456 1930                                           l2392 1420  
                                         l6000 1340                                           l2368 11EA  
                                         l2393 140E                                           l6010 1394  
                                         l6002 1366                                           l1658 2CF2  
                                         l2459 17C2                                           l1667 33F4  
                                         l6100 19E4                                           l6020 13BE  
                                         l6012 13A2                                           l6004 1376  
                                         l2469 18F2                                           l2493 1D22  
                                         l6110 1A24                                           l6102 19E6  
                                         l6030 13F0                                           l6022 13CE  
                                         l6014 13A4                                           l6120 1A54  
                                         l6112 1A2C                                           l6104 19EE  
                                         l2496 1E7E                                           l6040 144A  
                                         l6032 1406                                           l6016 13B2  
                                         l6008 138A                                           l6024 13D0  
                                         l6130 1A92                                           l6122 1A54  
                                         l6114 1A30                                           l6106 19FE  
                                         l6050 14C6                                           l6042 1484  
                                         l6018 13BA                                           l6026 13DE  
                                         l6300 26C6                                           l6140 1ADE  
                                         l6132 1AA2                                           l6108 1A14  
                                         l6060 14E6                                           l6052 14CA  
                                         l6036 1430                                           l6044 1486  
                                         l6028 13E2                                           l6310 27AA  
                                         l6302 26E4                                           l6150 1B28  
                                         l6142 1AEC                                           l6134 1AB2  
                                         l6126 1A68                                           l6118 1A44  
                                         l6070 193E                                           l6062 14F4  
                                         l6054 14D8                                           l6046 1496  
                                         l6038 143C                                           l1798 1E90  
                                         l6304 26EC                                           l6312 27D4  
                                         l6160 1B6E                                           l6152 1B3A  
                                         l6144 1AF8                                           l6136 1ABA  
                                         l6128 1A82                                           l6080 197E  
                                         l6072 194C                                           l6320 3316  
                                         l6064 14F6                                           l6056 14DE  
                                         l6048 14A6                                           l6400 2F9E  
                                         l6306 274E                                           l6170 1BCE  
                                         l6154 1B50                                           l6162 1B80  
                                         l6146 1B16                                           l6138 1ACA  
                                         l6090 19A4                                           l6082 1980  
                                         l6074 194E                                           l6250 1CCE  
                                         l6322 3316                                           l6058 14E0  
                                         l6402 2FA6                                           l6180 1C3C  
                                         l6164 1B8E                                           l6156 1B56  
                                         l6148 1B18                                           l6092 19B2  
                                         l6076 195E                                           l6084 1988  
                                         l6068 1932                                           l6252 1CDE  
                                         l6324 3328                                           l6340 311A  
                                         l6332 30D0                                           l6404 2FC2  
                                         l6420 334E                                           l7070 2FF2  
                                         l6190 1CA6                                           l6174 1BF8  
                                         l6182 1C40                                           l6166 1B92  
                                         l6158 1B60                                           l6094 19B4  
                                         l6086 1998                                           l6078 196E  
                                         l6270 1DA4                                           l6262 1D5C  
                                         l6254 1CEC                                           l6326 334C  
                                         l6350 32F0                                           l6342 312A  
                                         l6334 30D0                                           l6406 2FCA  
                                         l6510 2482                                           l6502 2452  
                                         l6430 3250                                           l6422 334E  
                                         l7072 3004                                           l6192 1CAA  
                                         l6184 1C5A                                           l6176 1C04  
                                         l6168 1BA0                                           l6096 19C4  
                                         l6088 199E                                           l6280 1E24  
                                         l6272 1DB0                                           l6264 1D64  
                                         l6256 1D32                                           l6352 3314  
                                         l6336 30E2                                           l6408 2FE8  
                                         l6520 24F8                                           l6504 245E  
                                         l6512 248A                                           l6600 2E7C  
                                         l6360 22F6                                           l6432 3250  
                                         l6424 3360                                           l7074 3008  
                                         l6194 1CB8                                           l6186 1C70  
                                         l6178 1C12                                           l6098 19D4  
                                         l6290 1E6C                                           l6282 1E26  
                                         l6274 1DEC                                           l6266 1D70  
                                         l6258 1D48                                           l6346 32DE  
                                         l6338 30F4                                           l6522 2504  
                                         l6506 246A                                           l6530 2562  
                                         l6514 24D0                                           l6610 2EF4  
                                         l6602 2E94                                           l6362 2308  
                                         l6434 3262                                           l6426 3364  
                                         l7068 2FF2                                           l6196 1CBE  
                                         l6188 1C8A                                           l6700 17D2  
                                         l6620 1534                                           l6612 1508  
                                         l6292 1E6E                                           l6284 1E2A  
                                         l6276 1DF8                                           l6268 1DA2  
                                         l6348 32DE                                           l5900 10FE  
                                         l6532 256E                                           l6524 2510  
                                         l6508 2476                                           l6604 2EB2  
                                         l6372 23EC                                           l6364 2326  
                                         l6436 326A                                           l6428 3494  
                                         l6198 1CC0                                           l6702 17E0  
                                         l6630 1570                                           l6622 1544  
                                         l6614 1514                                           l6286 1E4E  
                                         l6278 1E06                                           l5910 113A  
                                         l5902 110E                                           l6518 24EC  
                                         l6550 21AA                                           l6390 30B4  
                                         l6382 3062                                           l6606 2EBE  
                                         l6366 232E                                           l6374 242E  
                                         l6358 22F2                                           l6438 3296  
                                         l6296 26B0                                           l6712 184A  
                                         l6720 1892                                           l6704 17E4  
                                         l6640 15A6                                           l6632 1576  
                                         l6624 1554                                           l6616 1522  
                                         l6288 1E5E                                           l5920 1158  
                                         l5912 1148                                           l5904 1110  
                                         l6528 251C                                           l6560 21E6  
                                         l6552 21B6                                           l6544 218A  
                                         l6392 30C0                                           l6384 3062  
                                         l6608 2ED6                                           l6368 2390  
                                         l6298 26B4                                           l6730 1906  
                                         l6722 18AC                                           l6714 1856  
                                         l6706 17F2                                           l6642 15B6  
                                         l6634 1584                                           l6626 155A  
                                         l6618 1524                                           l8410 2844  
                                         l8402 2804                                           l6490 3160  
                                         l5930 116C                                           l5922 115C  
                                         l5914 114C                                           l5906 1118  
                                         l6570 2264                                           l6554 21C2  
                                         l6562 21EE                                           l6546 218E  
                                         l6394 30CC                                           l6386 3074  
                                         l6732 1914                                           l6724 18C0  
                                         l6716 1864                                           l6708 1820  
                                         l6660 1638                                           l6652 1600  
                                         l6644 15BC                                           l6636 1586  
                                         l6628 156A                                           l8420 2874  
                                         l8412 2852                                           l8404 282E  
                                         l6492 3178                                           l6484 3138  
                                         l5940 1180                                           l5932 1170  
                                         l5924 1160                                           l5916 1150  
                                         l5908 1128                                           l6572 2270  
                                         l6580 2294                                           l6556 21CE  
                                         l6564 223C                                           l6388 307A  
                                         l6820 319E                                           l8500 2ADC  
                                         l6734 1916                                           l6726 18DA  
                                         l6718 188E                                           l6670 1682  
                                         l6662 1650                                           l6654 160C  
                                         l6646 15DC                                           l6638 1596  
                                         l8430 289E                                           l8422 287E  
                                         l8406 2830                                           l8510 2028  
                                         l6494 3190                                           l6486 313C  
                                         l5950 11D2                                           l5942 1184  
                                         l5934 1174                                           l5926 1164  
                                         l5918 1154                                           l5870 1062  
                                         l6398 2F82                                           l6574 227C  
                                         l6558 21DA                                           l6582 22E2  
                                         l6830 31F0                                           l6822 31B0  
                                         l6742 33F6                                           l6840 33BA  
                                         l6728 18F6                                           l6736 191C  
                                         l6680 16D8                                           l6672 1692  
                                         l6664 165C                                           l6656 1616  
                                         l6648 15EC                                           l8432 28AE  
                                         l8408 2840                                           l8520 2188  
                                         l8512 20F8                                           l8504 2008  
                                         l6488 3148                                           l5960 1216  
                                         l5952 11E2                                           l5936 1178  
                                         l5928 1168                                           l5944 1188  
                                         l5880 1096                                           l5872 1064  
                                         l8600 2C5C                                           l6496 2432  
                                         l6584 22EE                                           l6576 2288  
                                         l6568 2258                                           l6832 31F8  
                                         l6824 31B4                                           l6744 33F6  
                                         l8440 2CF4                                           l6842 33BE  
                                         l6738 1920                                           l6690 177C  
                                         l6682 16F4                                           l6674 169E  
                                         l6666 1668                                           l6658 162C  
                                         l8434 28BE                                           l8418 286A  
                                         l8514 2110                                           l8506 2012  
                                         l5962 1218                                           l5954 11F8  
                                         l5946 118C                                           l5938 117C  
                                         l5890 10C8                                           l5874 1074  
                                         l5882 109E                                           l5866 1048  
                                         l8530 29EE                                           l8610 2CCE  
                                         l8602 2C7A                                           l6850 3392  
                                         l6498 2436                                           l6770 28F6  
                                         l6826 31CC                                           l6818 319E  
                                         l6746 3408                                           l8442 2CF4  
                                         l8450 2572                                           l6836 33A8  
                                         l6692 178A                                           l6684 1700  
                                         l6676 16AE                                           l6668 1676  
                                         l8436 28CE                                           l8428 2892  
                                         l8516 2142                                           l8508 2024  
                                         l5980 12A0                                           l5972 1268  
                                         l5964 1222                                           l5956 1204  
                                         l5948 11B6                                           l5892 10CE  
                                         l5884 10AE                                           l5876 1084  
                                         l5868 1054                                           l8532 29F8  
                                         l8524 29D6                                           l8612 2CE0  
                                         l8604 2C98                                           l6852 3396  
                                         l6596 2E5C                                           l6780 294E  
                                         l6772 290E                                           l6764 28E0  
                                         l6828 31D8                                           l6748 340C  
                                         l8444 2D08                                           l8460 25B6  
                                         l8452 2572                                           l6838 33A8  
                                         l6694 17A8                                           l6686 171C  
                                         l6678 16C8                                           l8518 215A  
                                         l5982 12A4                                           l5974 1278  
                                         l5966 1244                                           l5990 12C4  
                                         l5958 1208                                           l5894 10DC  
                                         l5886 10B4                                           l5878 1094  
                                         l8534 2A6C                                           l8526 29D6  
                                         l8606 2CB6                                           l6846 3380  
                                         l6598 2E6C                                           l6790 29B8  
                                         l6782 295E                                           l6774 2916  
                                         l6766 28E0                                           l8446 2D0C  
                                         l8470 2612                                           l8462 25D0  
                                         l8454 2586                                           l8550 2F22  
                                         l8542 2EFE                                           l6696 17B2  
                                         l6688 1746                                           l5992 12EA  
                                         l5984 12B2                                           l5976 1286  
                                         l5968 1254                                           l5896 10DE  
                                         l5888 10C6                                           l8536 2A8C  
                                         l8528 29EA                                           l8608 2CC2  
                                         l6848 3380                                           l6792 29C8  
                                         l6784 297A                                           l6776 292E  
                                         l6768 28F2                                           l8448 2D26  
                                         l8480 2654                                           l8472 2622  
                                         l8464 25EA                                           l8456 258C  
                                         l8560 2F6A                                           l8552 2F2E  
                                         l8544 2EFE                                           l8616 3482  
                                         l6698 17C0                                           l5994 131E  
                                         l5986 12B4                                           l5978 1294  
                                         l5898 10EE                                           l8538 2A90  
                                         l6794 29D4                                           l6786 298A  
                                         l6778 2932                                           l8490 26AA  
                                         l8482 266E                                           l8466 25F0  
                                         l8474 262E                                           l8458 25A6  
                                         l8554 2F40                                           l8546 2F0A  
                                         l8730 1EE0                                           l8722 1E80  
                                         l8396 27D8                                           l8564 33D0  
                                         l5996 1320                                           l5988 12BE  
                                         l8580 2BBA                                           l8572 2B74  
                                         l6788 29A8                                           l8484 2670  
                                         l8476 2632                                           l8468 260A  
                                         l8492 2AB2                                           l8556 2F52  
                                         l8548 2F16                                           l8740 1F6C  
                                         l8732 1F00                                           l8724 1EA0  
                                         l8398 27F0                                           l8566 33D0  
                                         l5998 1330                                           l8590 2C20  
                                         l8582 2BD8                                           l8574 2B7A  
                                         l8486 268A                                           l8478 264E  
                                         l8494 2AB2                                           l8558 2F5E  
                                         l8742 1F88                                           l8734 1F1C  
                                         l8726 1EBC                                           l8568 33E2  
                                         l8584 2BF6                                           l8576 2B7E  
                                         l8488 2690                                           l8496 2AC6  
                                         l8744 1FB4                                           l8736 1F3C  
                                         l8728 1EDC                                           l8594 2C34  
                                         l8586 2C02                                           l8578 2B9C  
                                         l8498 2AD8                                           l8746 1FB8  
                                         l8738 1F4E                                           l8596 2C3A  
                                         l8588 2C0E                                           l8748 1FE6  
                                         l8598 2C3E                                           l8870 2418  
                                         l8880 27BE                                           l8872 220E  
                                         l8874 22B4                                           l8876 24AA  
                                         l8878 253C                                           STR_1 1014  
                                         STR_2 1034                                           STR_3 1025  
                                         STR_4 1001                                           STR_5 1043  
                                         STR_9 1040                                           _LATA 000F89  
                                         _LATB 000F8A                                           _LATC 000F8B  
                                         _LATD 000F8C                                           _LATE 000F8D  
                                         u5000 1244                                           u5001 1240  
                                         u5010 1254                                           u5011 1250  
                                         u5100 13B2                                           u5020 1286  
                                         u5101 13AE                                           u5021 1282  
                                         u5110 13CE                                           u5030 1294  
                                         u5111 13CA                                           u5031 1290  
                                         u5200 14A6                                           u5120 13DE  
                                         u5040 12B2                                           u6000 244E  
                                         u5201 14A2                                           u5121 13DA  
                                         u5041 12AE                                           u6001 244A  
                                         u5210 14C6                                           u5130 13F0  
                                         u5050 12EA                                           u6010 24E8  
                                         u5211 14C2                                           u5131 13EC  
                                         u5051 12E6                                           u6011 24E4  
                                         u5300 1A14                                           u6100 1544  
                                         u5220 14D8                                           u5140 1406  
                                         u5060 1330                                           u6020 21A6  
                                         u5301 1A10                                           u6101 1540  
                                         u5221 14D4                                           u5141 1402  
                                         u5061 132C                                           u6021 21A2  
                                         u5310 1A54                                           u6110 1584  
                                         u5230 14F4                                           u5150 141C  
                                         u5070 1366                                           u6030 2254  
                                         u5311 1A50                                           u6111 1580  
                                         u5231 14F0                                           u5151 1418  
                                         u5071 1362                                           u6031 2250  
                                         u5400 1BCE                                           u5320 1ACA  
                                         u5240 194C                                           u6200 1820  
                                         u6120 1596                                           u5160 1430  
                                         u5080 1376                                           u6040 2E94  
                                         u5401 1BCA                                           u5321 1AC6  
                                         u5241 1948                                           u6201 181C  
                                         u6121 1592                                           u5161 142C  
                                         u5081 1372                                           u6041 2E90  
                                         u5410 1BE4                                           u5330 1AEC  
                                         u5250 195E                                           u6210 1836  
                                         u6130 15A6                                           u5170 144A  
                                         u5090 13A2                                           u6050 2EB2  
                                         u5411 1BE0                                           u5331 1AE8  
                                         u5251 195A                                           u6211 1832  
                                         u6131 15A2                                           u5171 1446  
                                         u5091 139E                                           u6051 2EAE  
                                         u5420 1BF8                                           u5340 1B16  
                                         u5260 196E                                           u6220 184A  
                                         u6140 15DC                                           u5180 1484  
                                         u6060 2ED6                                           u6300 28F2  
                                         u5421 1BF4                                           u5341 1B12  
                                         u5261 196A                                           u6221 1846  
                                         u6141 15D8                                           u5181 1480  
                                         u6061 2ED2                                           u6301 28EE  
                                         u5430 1C12                                           u5350 1B3A  
                                         u5270 19B2                                           u6230 1864  
                                         u6150 15EC                                           u5190 1496  
                                         u6070 2EF4                                           u6310 290E  
                                         u5431 1C0E                                           u5351 1B36  
                                         u5271 19AE                                           u6231 1860  
                                         u6151 15E8                                           u5191 1492  
                                         u6071 2EF0                                           u6311 290A  
                                         u5440 1C5A                                           u5360 1B50  
                                         u5280 19C4                                           u6240 18AC  
                                         u6160 1766                                           u6080 1522  
                                         u5600 1E16                                           u6320 292E  
                                         u6400 31CC                                           u5441 1C56  
                                         u5361 1B4C                                           u5281 19C0  
                                         u6241 18A8                                           u6081 151E  
                                         u5601 1E12                                           u6321 292A  
                                         u6401 31C8                                           u5450 1C8A  
                                         u5370 1B6E                                           u5290 19D4  
                                         u6250 18DA                                           u6170 17C0  
                                         u6090 1534                                           u5610 1E24  
                                         u6330 294E                                           u6410 31F0  
                                         u5451 1C86                                           u5371 1B6A  
                                         u5291 19D0                                           u6251 18D6  
                                         u6171 17BC                                           u6091 1530  
                                         u5611 1E20                                           u6331 294A  
                                         u6411 31EC                                           u6420 33BA  
                                         u5460 1CB8                                           u5380 1B8E  
                                         u6260 1914                                           u6180 17E0  
                                         u5620 1E5E                                           u5540 1CDE  
                                         u5700 334C                                           u4900 10EE  
                                         u6340 297A                                           u6421 33B6  
                                         u5461 1CB4                                           u5381 1B8A  
                                         u6261 1910                                           u6181 17DC  
                                         u6165 175C                                           u5621 1E5A  
                                         u5541 1CDA                                           u5701 3348  
                                         u4901 10EA                                           u6341 2976  
                                         u5390 1BA0                                           u6190 17F2  
                                         u5630 1E6C                                           u5550 1CEC  
                                         u5710 30E2                                           u4910 10FE  
                                         u6430 3392                                           u6350 29A8  
                                         u6270 3408                                           u5391 1B9C  
                                         u6191 17EE                                           u5631 1E68  
                                         u5551 1CE8                                           u5711 30DE  
                                         u4911 10FA                                           u6431 338E  
                                         u6351 29A4                                           u6271 3404  
                                         u5640 26C6                                           u8200 28AE  
                                         u5560 1D48                                           u5720 30F4  
                                         u4920 113A                                           u5641 26C2  
                                         u8201 28AA                                           u5561 1D44  
                                         u5721 30F0                                           u4921 1136  
                                         u5650 26E4                                           u8210 28BE  
                                         u5570 1D9E                                           u5730 310A  
                                         u4930 1148                                           u4850 1062  
                                         u5651 26E0                                           u8211 28BA  
                                         u5571 1D9A                                           u5731 3106  
                                         u4931 1144                                           u4851 105E  
                                         u5580 1DE8                                           u5740 311A  
                                         u4940 11B6                                           u4860 1074  
                                         u5820 2404                                           u5804 234A  
                                         u5900 3262                                           u8220 2D08  
                                         u8300 268A                                           u5581 1DE4  
                                         u5741 3116                                           u4941 11B2  
                                         u4861 1070                                           u5821 23FE  
                                         u5805 2346                                           u5901 325E  
                                         u8221 2D04                                           u8301 2686  
                                         u8150 27F0                                           u5590 1E06  
                                         u5750 32F0                                           u4950 11CE  
                                         u4870 1084                                           u5830 2406  
                                         u5814 23AC                                           u6390 31B0  
                                         u8310 26AA                                           u8230 2586  
                                         u8151 27EC                                           u5591 1E02  
                                         u5751 32EC                                           u4951 11C8  
                                         u4871 1080                                           u5815 23A8  
                                         u6391 31AC                                           u8311 26A6  
                                         u8231 2582                                           u5664 2708  
                                         u8160 2824                                           u5680 3328  
                                         u5760 3304                                           u4960 11D0  
                                         u4880 10C6                                           u5840 3074  
                                         u8240 25A6                                           u8320 2AC6  
                                         u5665 2704                                           u5681 3324  
                                         u5761 3300                                           u4881 10C2  
                                         u5841 3070                                           u8241 25A2  
                                         u8321 2AC2                                           u6650 3004  
                                         u5674 276A                                           u8170 2852  
                                         u5690 333C                                           u5770 3314  
                                         u4970 11F8                                           u4890 10DC  
                                         u5850 2F9E                                           u8250 25D0  
                                         u8330 2AD8                                           u6651 3000  
                                         u5675 2766                                           u8171 284E  
                                         u5691 3338                                           u5771 3310  
                                         u4971 11F4                                           u4891 10D8  
                                         u5851 2F9A                                           u8251 25CC  
                                         u8331 2AD4                                           u8180 2866  
                                         u8340 2024                                           u4980 1216  
                                         u5860 2FC2                                           u5780 2308  
                                         u8260 25EA                                           u8181 2862  
                                         u8165 281A                                           u8341 2020  
                                         u4981 1212                                           u5861 2FBE  
                                         u5781 2304                                           u8261 25E6  
                                         u8190 288E                                           u8350 2110  
                                         u4990 1236                                           u5870 2FE8  
                                         u5790 2326                                           u8270 260A  
                                         u8191 288A                                           u8351 210C  
                                         u4991 1232                                           u5871 2FE4  
                                         u5791 2322                                           u8271 2606  
                                         u8407 1EAC                                           u6664 3024  
                                         u8360 215A                                           u8280 264E  
                                         u6665 3020                                           u8361 2156  
                                         u8281 264A                                           u8417 1ECC  
                                         u8370 29EA                                           u5890 3360  
                                         u8290 266E                                           u8371 29E6  
                                         u5891 335C                                           u8291 266A  
                                         u8427 1EEC                                           u8437 1F0C  
                                         u8447 1F2C                                           u8457 1F5A  
                                         u8467 1F78                                           u8477 1FA6  
                                         u8487 1FC4                                           u8497 1FF2  
                                         _RX9D 007D58                                           _TMR2 000FCC  
                        ??_CCP_PWM_Mode_Config 000A                        ??_application_intialize 0057  
                     _RB4_InterruptHandler_LOW 00C9                      ??_CCP_Capture_Mode_Config 000A  
                                         _main 1E80                       _RB7_InterruptHandler_LOW 00BD  
                                         fsr2h 000FDA                                           indf2 000FDF  
                                         fsr1l 000FE1                                           fsr2l 000FD9  
                                         btemp 005B                                           prodh 000FF4  
                                         prodl 000FF3                                           start 0286  
              __end_of_CCP_Compare_Mode_Config 22F2               GPIO_Pin_Toggle_Logic@_pin_config 0005  
                              ___fldiv@new_exp 0024                          __end_of_CCP_PWM_Start 31FA  
                        _CCP_PWM_Set_Duty$5542 00ED                               __end_of_CCP_Init 29D6  
                                 ___param_bank 000000                               __end_of_INT1_ISR 349E  
                                ___fltol@sign1 0055                                __end_of___fladd 1508  
                                        ?_main 0001                         Servo_SetAngle@servo_no 00EC  
                              __end_of___fldiv 1CCC                                __end_of___flmul 1932  
                              __end_of___fltol 28E0                    ??_MSSP_I2C_Master_Send_Stop 0007  
                       _ECU_DC_Motor_Run_Right 3380                                          i1l463 34A4  
                                        i2l824 34A8                                          i2l828 34AA  
                                        _RCREG 000FAE                                          _TMR0H 000FD7  
                                        _TMR1H 000FCF                                          _TMR0L 000FD6  
                                        _TMR1L 000FCE                                          _SPBRG 000FAF  
                                        _PORTA 000F80                                          _PORTB 000F81  
                                        _PORTC 000F82                                          _PORTD 000F83  
                                        _PORTE 000F84                                  _EUSART_Rx_ISR 34AA  
                                        _TRISA 000F92                                          _TRISB 000F93  
                                        _TRISC 000F94                                          _TRISD 000F95  
                                        _TRISE 000F96                                  _EUSART_Tx_ISR 34A8  
                                        _TXREG 000FAD                               __end_of_TMR0_ISR 34A8  
                                        _flags 0059                                          _pinc0 00A1  
                                        tablat 000FF5                CCP_Capture_Mode_Config@_ccp_obj 0008  
                         PCA_Write_Reg@i2c_obj 000A                                          ttemp5 005C  
                                        ttemp6 005F                                          ttemp7 0063  
                                        status 000FD8                                          wtemp8 005C  
             ServoDriver_Init@servo_driver_obj 00EF                    _I2C_DefaultInterruptHandler 00D7  
                              __initialization 31FA         MSSP_I2C_Master_Write_Blocking@i2c_data 0007  
                                 __end_of_main 2008                     _eusart_Rx_InterruptHandler 00DD  
                        CCP_PWM_Start@_ccp_obj 0005                  __end_of_GPIO_Pin_Toggle_Logic 3062  
                                    ??_ADC_ISR 0001                               _servo_driver_obj 009D  
                        _CCP_Mode_Timer_Select 2F82                                  _lat_registers 006A  
                                       ??_main 00F3                      Servo_SetAngle@reg_addrees 00F0  
                                __activetblptr 000003                                 ?_EUSART_Rx_ISR 0001  
                               ?_EUSART_Tx_ISR 0001                                      ??_RB4_ISR 0001  
                      ?_I2C_Pin_Configurations 0001                                      ??_RB5_ISR 0001  
                                    ??_RB6_ISR 0001                                      ??_RB7_ISR 0001  
                        RB5_ISR@Handler_Select 0001                                         _ADRESH 000FC4  
                                       _ADRESL 000FC3                                         _CCPR1L 000FBE  
                                       _CCPR2L 000FBB                   ??_MSSP_I2C_Master_Send_Start 0007  
                                       i1l1150 0046                                         i1l1160 0186  
                                       i1l1152 0086                                         i1l1250 3480  
                                       i1l1162 01C6                                         i1l1154 00C6  
                                       i1l1171 0276                                         i1l1164 0206  
                                       i1l1156 0106                                         i1l1237 349C  
                                       i1l1166 0246                                         i1l1158 0146  
                                       i1l1168 0266                                         i1l1259 3466  
                                       i1l1268 344C                                         i1l1277 3432  
                                       i2l1131 2DD8                                         i2l1141 2E48  
                                       i2l1133 2DE8                                         i2l1135 2DF8  
                                       i2l1144 2E58                                         i2l1137 2E18  
                                       i2l1129 2DC8                                         i2l1139 2E38  
                                       i1l7102 3436                                         i1l7104 3438  
                                       i1l7112 341C                                         i1l8000 0274  
                                       i1l7114 341E                                         i1l7108 344C  
                                       i1l7118 3432                                         i2l1527 34A6  
                                       i1l7082 346A                                         i1l7084 346C  
                                       i1l7092 3450                                         i1l7078 349A  
                                       i1l7094 3452                                         i1l7088 3480  
                                       i1l7098 3466                                         i1l7910 0026  
                                       i1l7920 0070                                         i1l7912 0034  
                                       i1l7930 00B0                                         i1l7922 007E  
                                       i1l7914 0042                                         i1l7940 00F0  
                                       i1l7932 00BE                                         i1l7924 0080  
                                       i1l7916 0054                                         i1l7950 0130  
                                       i1l7942 00FE                                         i1l7934 00C0  
                                       i1l7926 0094                                         i1l7918 0062  
                                       i1l7960 0170                                         i1l7952 013E  
                                       i1l7944 0100                                         i1l7936 00D4  
                                       i1l7928 00A2                                         i2l7066 34AA  
                                       i1l7970 01B0                                         i1l7962 017E  
                                       i1l7954 0140                                         i1l7946 0114  
                                       i1l7938 00E2                                         i1l7980 01F0  
                                       i1l7972 01BE                                         i1l7964 0180  
                                       i1l7956 0154                                         i1l7948 0122  
                                       i1l7990 0230                                         i1l7982 01FE  
                                       i1l7974 01C0                                         i1l7966 0194  
                                       i1l7958 0162                                         i1l7992 023E  
                                       i1l7984 0200                                         i1l7976 01D4  
                                       i1l7968 01A2                                         i1l7994 0240  
                                       i1l7986 0214                                         i1l7978 01E2  
                                       i1l7996 0254                                         i1l7988 0222  
                                       i1l7998 0262                                         i2l7900 2E34  
                                       i2l7902 2E46                                         i2l7906 2E56  
                                       i2l7880 2DC4                                         i2l7890 2DF6  
                                       i2l7882 2DD6                                         i2l7876 2DA8  
                                       i2l7894 2E06                                         i2l7886 2DE6  
                                       i2l7878 2DB6                                         i2l7896 2E14  
                                       i2l7898 2E26                                 _Movement_State 00DF  
                                       _SPBRGH 000FB0                      _MSSP_I2C_Master_Send_Stop 32DE  
                                       _SSPADD 000FC8                                         _SSPBUF 000FC9  
                             __end_of___xxtofl 1E80                         _W1_W3_W5_Motor_Control 00A3  
                        __end_of_MSSP_I2C_Init 26B0                                  ??_Timer2_Init 0007  
 __end_of_I2C_Master_Mode_Clock_Configurations 2DA8         ??_I2C_Master_Mode_Clock_Configurations 00EA  
        ?_I2C_Master_Mode_Clock_Configurations 00E8           _I2C_Master_Mode_Clock_Configurations 2CF4  
                           _Robot_Move_Forward 2B74                ??_GPIO_Pin_Direction_Initialize 0007  
                __end_of_ECU_DC_Motor_Run_Left 33D0                                      ??___fladd 004D  
                                    ??___fldiv 001B                                      ??___flmul 0034  
                                    ??___fltol 00E4                    __end_of_GPIO_Pin_Initialize 329A  
                                       clear_0 323E                            ?_Robot_Move_Forward 0001  
                                       isa$std 000001                 __end_of_I2C_Pin_Configurations 349A  
                                       _string 00B3                                   __pdataCOMRAM 0057  
                                 __mediumconst 0000                                         tblptrh 000FF7  
                                       tblptrl 000FF6                                         tblptru 000FF8  
                                    ?_CCP_Init 0012                    CCP_PWM_Mode_Config@_ccp_obj 0008  
                         ??_Robot_Move_Forward 0057                                   ___xxtofl@arg 000F  
                                 ___xxtofl@exp 000E                                   ___xxtofl@val 0005  
                                   __accesstop 0060                        __end_of__initialization 3246  
                                    ?_INT1_ISR 0001                               _CCP_PWM_Set_Duty 2008  
                                ___rparam_used 000001                                     ___fltol@f1 00E0  
             ??_MSSP_I2C_Master_Write_Blocking 000A                ?_MSSP_I2C_Master_Write_Blocking 0005  
                 CCP_Interrupt_Config@_ccp_obj 0005                     _I2C_Report_Write_Collision 00D3  
                               __pcstackCOMRAM 0001             MSSP_I2C_Master_Write_Blocking@_ack 0008  
                                 __pidataBANK0 329A                                      ?_TMR0_ISR 0001  
        MSSP_I2C_Master_Write_Blocking@i2c_obj 0005                         ?_CCP_Mode_Timer_Select 0005  
                          __end_of_Timer2_Init 30D0                                ??_EUSART_Rx_ISR 0001  
                              ??_EUSART_Tx_ISR 0001                                  _PCA_Write_Reg 3138  
                                   ??_CCP_Init 0014                                 _Robot_Nav_Init 2EFE  
                        CCP_PWM_Set_Duty@_duty 00EA                                     __pbssBANK0 00A4  
                        _INT0_InterruptHandler 00D1                                     ??_INT1_ISR 0001  
                __end_of_application_intialize 3494                       _eusart_frameerr_CallBack 00D9  
                  __end_of_InterruptManagerLow 0286                                     ??_TMR0_ISR 0001  
                  CCP_PWM_Set_Duty@l_duty_temp 00F1                        ?_ECU_DC_Motor_Run_Right 000F  
                                      _ADC_ISR 34A4                               _Robot_Steer_Stop 33D0  
        __end_of_GPIO_Pin_Direction_Initialize 2432                  _GPIO_Pin_Direction_Initialize 22F2  
                               ?_PCA_Write_Reg 000A                                        _RB4_ISR 3468  
                                      _RB5_ISR 344E                                        _RB6_ISR 3434  
                                      _RB7_ISR 341A                                      ?___xxtofl 0005  
                    _RB6_InterruptHandler_HIGH 00C3                            _Robot_Move_Backward 2C34  
                  __end_of_CCP_PWM_Mode_Config 2EFE                     PCA_Write_Reg@slave_address 000C  
                       __end_of_Robot_Nav_Init 2F82             __end_of_MSSP_I2C_Master_Send_Start 334E  
                   _MSSP_I2C_Master_Send_Start 3316                                 _tris_registers 0074  
                     _RB6_InterruptHandler_LOW 00C1                                        _i2c_obj 0096  
                                      __Hparam 0000                                 _Servo_SetAngle 29D6  
                         ?_Robot_Move_Backward 0001                     _eusart_overrunerr_CallBack 00DB  
                                  _Timer2_Init 3062                                        __Lparam 0000  
                 __end_of_CCP_Interrupt_Config 34A4                 __end_of_ECU_DC_Motor_Run_Right 33A8  
                                      ___fladd 1048                                        ___fldiv 1932  
                                      ___flmul 1508                CCP_Compare_Mode_Config@_ccp_obj 0008  
                                      ___fltol 27D8                                   __psmallconst 1000  
                 _Timer1_PreLoaded_Value_Store 00B9                                        __pcinit 31FA  
                                      __ramtop 1000                                        __ptext0 1E80  
                                      __ptext1 3482                                        __ptext2 2EFE  
                                      __ptext3 2AB2                                        __ptext4 2572  
                                      __ptext5 334E                                        __ptext6 3494  
                                      __ptext7 2CF4                                        __ptext8 33F6  
                                      __ptext9 319E                                      _T0CONbits 000FD5  
                                    _T1CONbits 000FCD                                      _T2CONbits 000FCA  
                    ECU_DC_Motor_Init@dc_motor 0012                                     ??___xxtofl 0009  
                                    _T3CONbits 000FB1                        _CCP_Compare_Mode_Config 218A  
                              ?_Robot_Nav_Init 0001                       ?_CCP_Capture_Mode_Config 0008  
             MSSP_I2C_Master_Send_Stop@i2c_obj 0005                                 __pintcode_body 2DA8  
                         end_of_initialization 3246                               _ServoDriver_Init 2AB2  
                     PCA_Write_Reg@reg_address 000D                                        int_func 2DA8  
                       __end_of_Servo_SetAngle 2AB2                             Timer2_Init@_timer2 0005  
                        ??_Robot_Move_Backward 0057                       CCP_PWM_Set_Duty@_ccp_obj 00E8  
                                    _RCSTAbits 000FAB                                        postdec1 000FE5  
                                      postdec2 000FDD                                        postinc0 000FEE  
                                      postinc2 000FDE                                ??_PCA_Write_Reg 000F  
                        _INT1_InterruptHandler 00CF                                      _PORTBbits 000F81  
                        _GPIO_Pin_Toggle_Logic 2FF2                                      _PORTDbits 000F83  
                     __end_of_CCP_PWM_Set_Duty 218A                                    ___fladd@grs 0054  
               ?_GPIO_Pin_Direction_Initialize 0005                                  ___xxtofl@sign 000D  
                        Servo_SetAngle@i2c_obj 00E8                                      _TRISBbits 000F93  
                                    _TRISCbits 000F94                                      _TRISDbits 000F95  
                        RB4_ISR@Handler_Select 0001                          RB7_ISR@Handler_Select 0001  
                                  ___fldiv@grs 0026                                    ___fldiv@rem 001F  
                                  ___flmul@grs 0039                              PCA_Write_Reg@data 000E  
                                  _CCP1CONbits 000FBD                               CCP_Init@_ccp_obj 0012  
                              ?_Servo_SetAngle 00E8                                    _CCP2CONbits 000FBA  
                                    _TXSTAbits 000FAC                        ??_CCP_Mode_Timer_Select 0007  
                   CCP_Capture_Mode_Config@ret 000C                                  _CCP_PWM_Start 319E  
                   CCP_Compare_Mode_Config@ret 000C                  convert_uint16_to_string@F3421 00AD  
                        _ECU_DC_Motor_Run_Left 33A8                                    _BAUDCONbits 000FB8  
                                __pidataCOMRAM 349E                      ??_CCP_Compare_Mode_Config 000A  
              __end_of_CCP_Capture_Mode_Config 2572                            start_initialization 31FA  
              GPIO_Pin_Write_Logic@_pin_config 0005                           _CCP_Interrupt_Config 34A2  
                     __end_of_Robot_Steer_Stop 33F6                                 ?_CCP_PWM_Start 0005  
               GPIO_Pin_Initialize@_pin_config 000F                                    __pdataBANK0 0060  
                                     ?_ADC_ISR 0001                         ?_GPIO_Pin_Toggle_Logic 0005  
                        __end_of_EUSART_Rx_ISR 34AC                                      ___fladd@a 0049  
                                    ___fladd@b 0045                          __end_of_EUSART_Tx_ISR 34AA  
                         MSSP_I2C_Init@i2c_obj 00EB                                      ___fldiv@a 0017  
                                    ___fldiv@b 0013                                       ?_RB4_ISR 0001  
                                     ?_RB5_ISR 0001                                       ?_RB6_ISR 0001  
                                     ?_RB7_ISR 0001                                      ___flmul@a 0030  
                                    ___flmul@b 002C                                    __pbssCOMRAM 005A  
                          Servo_SetAngle@angle 00ED                                  __pcstackBANK0 00E0  
                        ?_CCP_Interrupt_Config 0005                    ?_MSSP_I2C_Master_Send_Start 0005  
                        _INT2_InterruptHandler 00CD                   __end_of_InterruptManagerHigh 2E5C  
                                 ?_Timer2_Init 0005                                  _MSSP_I2C_Init 2572  
                        _application_intialize 3482                                      __pintcode 0008  
                     ??_I2C_Pin_Configurations 0005                         ?_ECU_DC_Motor_Run_Left 000F  
                 __end_of_GPIO_Pin_Write_Logic 27D8                                       ?___fladd 0045  
                                     ?___fldiv 0013                                       ?___flmul 002C  
              GPIO_Pin_Write_Logic@ERRORSTATUS 000E                                       ?___fltol 00E0  
                     __end_of_ServoDriver_Init 2B74                                    __pintcodelo 0018  
                             ??_Robot_Nav_Init 0057                                    __smallconst 1000  
                    _RB4_InterruptHandler_HIGH 00CB                                       _CCP1_Obj 008A  
                                     _CCP2_Obj 007E                        ServoDriver_Init@i2c_obj 00ED  
                    _RB7_InterruptHandler_HIGH 00BF                  CCP_Mode_Timer_Select@_ccp_obj 0005  
                                     _CCP_Init 28E0                 GPIO_Pin_Initialize@ERRORSTATUS 0011  
  __end_of_I2C_Slave_Mode_Clock_Configurations 3380          ??_I2C_Slave_Mode_Clock_Configurations 0007  
         ?_I2C_Slave_Mode_Clock_Configurations 0005            _I2C_Slave_Mode_Clock_Configurations 334E  
               convert_float32_to_string@F3432 00A4                       _RB5_InterruptHandler_LOW 00C5  
                                     _INT1_ISR 349A                                       _LATDbits 000F8C  
                              ??_CCP_PWM_Start 0007                                       _IPR1bits 000F9F  
                                     _PIE1bits 000F9D                                       _PIE2bits 000FA0  
                               ?_MSSP_I2C_Init 00EB                                       i1u670_20 342E  
                                     i1u670_21 342A                                       i1u760_20 0042  
                                     i1u760_21 003E                                       i1u761_20 0054  
                                     i1u761_21 0050                                       _PIR1bits 000F9E  
                                     i1u770_20 00E2                                       i1u762_20 0062  
                                     i1u770_21 00DE                                       i1u762_21 005E  
                                     i1u667_20 347C                                       i1u771_20 00F0  
                                     i1u763_20 0070                                       i1u667_21 3478  
                                     i1u771_21 00EC                                       i1u763_21 006C  
                                     _PIR2bits 000FA1                                       i1u668_20 3462  
                                     i1u780_20 017E                                       i1u772_20 00FE  
                                     i1u764_20 007E                                       i1u668_21 345E  
                                     i1u780_21 017A                                       i1u772_21 00FA  
                                     i1u764_21 007A                                       i1u669_20 3448  
                                     i1u781_20 0194                                       i1u773_20 0114  
                                     i1u765_20 0094                                       i1u669_21 3444  
                                     i1u781_21 0190                                       i1u773_21 0110  
                                     i1u765_21 0090                                       i1u790_20 0222  
                                     i1u782_20 01A2                                       i1u774_20 0122  
                                     i1u766_20 00A2                                       i1u790_21 021E  
                                     i1u782_21 019E                                       i1u774_21 011E  
                                     i1u766_21 009E                                       i1u791_20 0230  
                                     i1u783_20 01B0                                       i1u775_20 0130  
                                     i1u767_20 00B0                                       i1u759_20 0034  
                                     i1u791_21 022C                                       i1u783_21 01AC  
                                     i1u775_21 012C                                       i1u767_21 00AC  
                                     i1u759_21 0030                                       i1u792_20 023E  
                                     i1u784_20 01BE                                       i1u776_20 013E  
                                     i1u768_20 00BE                                       i1u792_21 023A  
                                     i1u784_21 01BA                                       i1u776_21 013A  
                                     i1u768_21 00BA                                       i1u793_20 0254  
                                     i1u785_20 01D4                                       i1u777_20 0154  
                                     i1u769_20 00D4                                       i1u793_21 0250  
                                     i1u785_21 01D0                                       i1u777_21 0150  
                                     i1u769_21 00D0                                       i1u794_20 0262  
                                     i1u786_20 01E2                                       i1u778_20 0162  
                                     i1u794_21 025E                                       i1u786_21 01DE  
                                     i1u778_21 015E                                       i1u795_20 0274  
                                     i1u787_20 01F0                                       i1u779_20 0170  
                                     i1u795_21 0270                                       i1u787_21 01EC  
                                     i1u779_21 016C                                       i1u788_20 01FE  
                                     i1u788_21 01FA                                       i1u789_20 0214  
                                     i1u789_21 0210                                       i2u750_40 2DD6  
                                     i2u750_41 2DD2                                       i2u751_40 2DE6  
                                     i2u751_41 2DE2                                       i2u752_40 2DF6  
                                     i2u752_41 2DF2                                       i2u753_40 2E06  
                                     i2u753_41 2E02                                       i2u754_40 2E14  
                                     i2u754_41 2E10                                       i2u755_40 2E26  
                                     i2u755_41 2E22                                       i2u756_40 2E34  
                                     i2u748_40 2DB6                                       i2u756_41 2E30  
                                     i2u748_41 2DB2                                       i2u757_40 2E46  
                                     i2u749_40 2DC4                                       i2u757_41 2E42  
                                     i2u749_41 2DC0                                       i2u758_40 2E56  
                                     i2u758_41 2E52                                       _RCONbits 000FD0  
                                     _TMR0_ISR 34A6                   _Timer2_PreLoaded_Value_Store 005A  
                  _I2C_Report_Receive_Overflow 00D5                                     _ADCON0bits 000FC2  
                                   _ADCON1bits 000FC1                                     _ADCON2bits 000FC0  
                            ?_CCP_PWM_Set_Duty 00E8                               PCA_Write_Reg@ack 000F  
                           ??_CCP_PWM_Set_Duty 00EB                         ??_CCP_Interrupt_Config 0007  
                             ??_Servo_SetAngle 0057                                    _INTCON2bits 000FF1  
                                  _INTCON3bits 000FF0                                      copy_data0 320E  
                  __end_of_Robot_Move_Backward 2CF4                         ?_application_intialize 0001  
                          _GPIO_Pin_Initialize 3250                                       __Hrparam 0000  
                                     __Lrparam 0000                  __end_of_CCP_Mode_Timer_Select 2FF2  
                    GPIO_Pin_Write_Logic@logic 0007                          __end_of_PCA_Write_Reg 319E  
                                _preloaded_val 00BB                     ?_MSSP_I2C_Master_Send_Stop 0005  
            MSSP_I2C_Master_Send_Start@i2c_obj 0005                           ?_GPIO_Pin_Initialize 000F  
                                     ___xxtofl 1CCC                          RB6_ISR@Handler_Select 0001  
                         _InterruptManagerHigh 0008                                       __ptext10 28E0  
                                     __ptext11 3250                                       __ptext20 3380  
                                     __ptext12 22F2                                       __ptext21 2C34  
                                     __ptext13 2E5C                                       __ptext30 1CCC  
                                     __ptext22 29D6                                       __ptext14 3062  
                                     __ptext31 27D8                                       __ptext23 1048  
                                     __ptext15 34A2                                       __ptext40 344E  
                                     __ptext32 1508                                       __ptext24 3138  
                                     __ptext16 218A                                       __ptext41 3468  
                                     __ptext33 1932                                       __ptext25 30D0  
                                     __ptext17 2432                                       __ptext42 349A  
                                     __ptext34 33A8                                       __ptext26 32DE  
                                     __ptext18 2F82                                       __ptext43 34A4  
                                     __ptext35 26B0                                       __ptext27 3316  
                                     __ptext19 2B74                                       __ptext36 2FF2  
                                     __ptext28 33D0                                       __ptext45 34A6  
                                     __ptext29 2008                                       __ptext46 34A8  
                                     __ptext38 341A                                       __ptext47 34AA  
                                     __ptext39 3434     I2C_Slave_Mode_Clock_Configurations@i2c_obj 0005  
  I2C_Master_Mode_Clock_Configurations@i2c_obj 00E8                       _Timer1_Interrupt_Handler 00B7  
                         _GPIO_Pin_Write_Logic 26B0                              _ECU_DC_Motor_Init 33F6  
               Servo_SetAngle@servo_driver_obj 00EA                              ?_Robot_Steer_Stop 0001  
                           ?_ECU_DC_Motor_Init 0012                                ??_MSSP_I2C_Init 0057  
_W2_W4_W6_Motor_Control@robot_navigation$F4504 0057  _W1_W3_W5_Motor_Control@robot_navigation$F4498 0058  
                     ??_ECU_DC_Motor_Run_Right 0011                             ??_Robot_Steer_Stop 0057  
                          ??_ECU_DC_Motor_Init 0014                        ??_GPIO_Pin_Toggle_Logic 0007  
                                     isa$xinst 000000                                       int$flags 005B  
                        ??_GPIO_Pin_Initialize 0011              __end_of_MSSP_I2C_Master_Send_Stop 3316  
                                   _INTCONbits 000FF2                          ?_InterruptManagerHigh 0001  
                    __end_of_ECU_DC_Motor_Init 341A                         _I2C_Pin_Configurations 3494  
                   __end_of_Robot_Move_Forward 2C34                  ECU_DC_Motor_Run_Left@dc_motor 000F  
                        ?_GPIO_Pin_Write_Logic 0005                                       intlevel1 0000  
                                     intlevel2 0000                            _InterruptManagerLow 0018  
     GPIO_Pin_Direction_Initialize@_pin_config 0005                                     _RCSTA1bits 000FAB  
                      ??_ECU_DC_Motor_Run_Left 0011                        _CCP_Capture_Mode_Config 2432  
                     ?_CCP_Compare_Mode_Config 0008                     Servo_SetAngle@angle_in_reg 00EE  
                         ?_InterruptManagerLow 0001                              ?_ServoDriver_Init 00ED  
                          _CCP_PWM_Mode_Config 2E5C                             ??_ServoDriver_Init 0057  
                               _port_registers 0060                         _W2_W4_W6_Motor_Control 00A2  
       __end_of_MSSP_I2C_Master_Write_Blocking 3138                 _MSSP_I2C_Master_Write_Blocking 30D0  
                                  _SSPCON1bits 000FC6                                    _SSPCON2bits 000FC5  
                                   _WDTCONbits 000FD1                                  ___fladd@signs 0051  
                         ?_CCP_PWM_Mode_Config 0008                                   ___fladd@aexp 0052  
                                 ___fladd@bexp 0053  
