

Microchip MPLAB XC8 Assembler V2.30 build 20200825195618 
                                                                                               Sat Sep 24 04:30:33 2022

Microchip MPLAB XC8 C Compiler v2.30 (Free license) build 20200825195618 Og1 
     1                           	processor	18F4620
     2                           	fnconf	rparam,??,?,0
     3                           	pagewidth 120
     4                           	opt	flic
     5                           	psect	idataCOMRAM,global,class=CODE,delta=1,noexec
     6                           	psect	idataBANK0,global,class=CODE,delta=1,noexec
     7                           	psect	cinit,global,reloc=2,class=CODE,delta=1
     8                           	psect	bssCOMRAM,global,class=COMRAM,space=1,delta=1,lowdata,noexec
     9                           	psect	dataCOMRAM,global,class=COMRAM,space=1,delta=1,lowdata,noexec
    10                           	psect	dataBANK0,global,class=BANK0,space=1,delta=1,lowdata,noexec
    11                           	psect	cstackCOMRAM,global,class=COMRAM,space=1,delta=1,lowdata,noexec
    12                           	psect	text0,global,reloc=2,class=CODE,delta=1
    13                           	psect	text1,global,reloc=2,class=CODE,delta=1
    14                           	psect	text2,global,reloc=2,class=CODE,delta=1
    15                           	psect	text3,global,reloc=2,class=CODE,delta=1
    16                           	psect	text4,global,reloc=2,class=CODE,delta=1
    17                           	psect	text5,global,reloc=2,class=CODE,delta=1
    18                           	psect	text6,global,reloc=2,class=CODE,delta=1
    19                           	psect	text7,global,reloc=2,class=CODE,delta=1,group=1
    20                           	psect	text8,global,reloc=2,class=CODE,delta=1
    21                           	psect	text9,global,reloc=2,class=CODE,delta=1
    22                           	psect	text10,global,reloc=2,class=CODE,delta=1,group=1
    23                           	psect	text11,global,reloc=2,class=CODE,delta=1,group=1
    24                           	psect	text12,global,reloc=2,class=CODE,delta=1,group=1
    25                           	psect	text13,global,reloc=2,class=CODE,delta=1,group=1
    26                           	psect	text14,global,reloc=2,class=CODE,delta=1
    27                           	psect	text15,global,reloc=2,class=CODE,delta=1
    28                           	psect	text16,global,reloc=2,class=CODE,delta=1
    29                           	psect	text17,global,reloc=2,class=CODE,delta=1
    30                           	psect	intcodelo,global,reloc=2,class=CODE,delta=1
    31                           	psect	text19,global,reloc=2,class=CODE,delta=1
    32                           	psect	text20,global,reloc=2,class=CODE,delta=1
    33                           	psect	text21,global,reloc=2,class=CODE,delta=1
    34                           	psect	text22,global,reloc=2,class=CODE,delta=1
    35                           	psect	text23,global,reloc=2,class=CODE,delta=1
    36                           	psect	intcode,global,reloc=2,class=CODE,delta=1
    37                           	psect	intcode_body,global,reloc=2,class=CODE,delta=1
    38                           	psect	text25,global,reloc=2,class=CODE,delta=1
    39                           	psect	text26,global,reloc=2,class=CODE,delta=1
    40                           	psect	intsave_regs,global,class=BIGRAM,space=1,delta=1,noexec
    41                           	psect	rparam,global,class=COMRAM,space=1,delta=1,noexec
    42                           	psect	temp,global,ovrld,common,class=COMRAM,space=1,delta=1
    43                           	psect	idloc,global,abs,ovrld,class=IDLOC,space=5,delta=1,noexec
    44                           	psect	config,global,abs,ovrld,class=CONFIG,space=4,delta=1,noexec
    45  0000                     
    46                           ; Version 2.40
    47                           ; Generated 17/11/2021 GMT
    48                           ; 
    49                           ; Copyright © 2021, Microchip Technology Inc. and its subsidiaries ("Microchip")
    50                           ; All rights reserved.
    51                           ; 
    52                           ; This software is developed by Microchip Technology Inc. and its subsidiaries ("Microch
      +                          ip").
    53                           ; 
    54                           ; Redistribution and use in source and binary forms, with or without modification, are
    55                           ; permitted provided that the following conditions are met:
    56                           ; 
    57                           ;     1. Redistributions of source code must retain the above copyright notice, this lis
      +                          t of
    58                           ;        conditions and the following disclaimer.
    59                           ; 
    60                           ;     2. Redistributions in binary form must reproduce the above copyright notice, this 
      +                          list
    61                           ;        of conditions and the following disclaimer in the documentation and/or other
    62                           ;        materials provided with the distribution. Publication is not required when
    63                           ;        this file is used in an embedded application.
    64                           ; 
    65                           ;     3. Microchip's name may not be used to endorse or promote products derived from th
      +                          is
    66                           ;        software without specific prior written permission.
    67                           ; 
    68                           ; THIS SOFTWARE IS PROVIDED BY MICROCHIP "AS IS" AND ANY EXPRESS OR IMPLIED WARRANTIES,
    69                           ; INCLUDING, BUT NOT LIMITED TO, THE IMPLIED WARRANTIES OF MERCHANTABILITY AND FITNESS F
      +                          OR
    70                           ; PURPOSE ARE DISCLAIMED.  IN NO EVENT SHALL MICROCHIP BE LIABLE FOR ANY DIRECT, INDIREC
      +                          T,
    71                           ; INCIDENTAL, SPECIAL, EXEMPLARY, OR CONSEQUENTIAL DAMAGES (INCLUDING BUT NOT LIMITED TO
    72                           ; PROCUREMENT OF SUBSTITUTE GOODS OR SERVICES; LOSS OF USE, DATA OR PROFITS; OR BUSINESS
    73                           ; INTERRUPTION) HOWSOEVER CAUSED AND ON ANY THEORY OF LIABILITY, WHETHER IN CONTRACT, ST
      +                          RICT
    74                           ; LIABILITY, OR TORT (INCLUDING NEGLIGENCE OR OTHERWISE) ARISING IN ANY WAY OUT OF THE U
      +                          SE OF
    75                           ; THIS SOFTWARE, EVEN IF ADVISED OF THE POSSIBILITY OF SUCH DAMAGE.
    76                           ; 
    77                           ; 
    78                           ; Code-generator required, PIC18F4620 Definitions
    79                           ; 
    80                           ; SFR Addresses
    81  0000                     
    82                           	psect	idataCOMRAM
    83  0019B8                     __pidataCOMRAM:
    84                           	callstack 0
    85                           
    86                           ;initializer for _flags
    87  0019B8  0F                 	db	15
    88                           
    89                           ;initializer for _s1_obj
    90  0019B9  80                 	db	128
    91  0019BA  79                 	db	121
    92  0019BB  21                 	db	33
    93  0019BC  04                 	db	4
    94                           
    95                           	psect	idataBANK0
    96  0018FA                     __pidataBANK0:
    97                           	callstack 0
    98                           
    99                           ;initializer for _port_registers
   100  0018FA  80                 	db	128
   101  0018FB  0F                 	db	15
   102  0018FC  81                 	db	129
   103  0018FD  0F                 	db	15
   104  0018FE  82                 	db	130
   105  0018FF  0F                 	db	15
   106  001900  83                 	db	131
   107  001901  0F                 	db	15
   108  001902  84                 	db	132
   109  001903  0F                 	db	15
   110                           
   111                           ;initializer for _lat_registers
   112  001904  89                 	db	137
   113  001905  0F                 	db	15
   114  001906  8A                 	db	138
   115  001907  0F                 	db	15
   116  001908  8B                 	db	139
   117  001909  0F                 	db	15
   118  00190A  8C                 	db	140
   119  00190B  0F                 	db	15
   120  00190C  8D                 	db	141
   121  00190D  0F                 	db	15
   122                           
   123                           ;initializer for _tris_registers
   124  00190E  92                 	db	146
   125  00190F  0F                 	db	15
   126  001910  93                 	db	147
   127  001911  0F                 	db	15
   128  001912  94                 	db	148
   129  001913  0F                 	db	15
   130  001914  95                 	db	149
   131  001915  0F                 	db	15
   132  001916  96                 	db	150
   133  001917  0F                 	db	15
   134                           
   135                           ;initializer for _i2c_obj
   136  001918  86A0               	dw	34464
   137  00191A  0001               	dw	1
   138  00191C  08                 	db	8
   139  00191D  00                 	db	0
   140  00191E  03                 	db	3
   141  00191F  00                 	db	0
   142  001920  00                 	db	0
   143  001921  00                 	db	0
   144  001922  00                 	db	0
   145  001923  00                 	db	0
   146  001924  00                 	db	0
   147  001925  00                 	db	0
   148  001926  00                 	db	0
   149  0000                     _IPR2bits	set	4002
   150  0000                     _IPR1bits	set	3999
   151  0000                     _TRISCbits	set	3988
   152  0000                     _SSPBUF	set	4041
   153  0000                     _SSPSTATbits	set	4039
   154  0000                     _SSPADD	set	4040
   155  0000                     _SSPCON2bits	set	4037
   156  0000                     _SSPCON1bits	set	4038
   157  0000                     _RCONbits	set	4048
   158  0000                     _INTCON2bits	set	4081
   159  0000                     _TRISBbits	set	3987
   160  0000                     _PORTBbits	set	3969
   161  0000                     _PIR2bits	set	4001
   162  0000                     _PIE2bits	set	4000
   163  0000                     _PIR1bits	set	3998
   164  0000                     _PIE1bits	set	3997
   165  0000                     _INTCON3bits	set	4080
   166  0000                     _INTCONbits	set	4082
   167  0000                     _PORTE	set	3972
   168  0000                     _PORTD	set	3971
   169  0000                     _PORTC	set	3970
   170  0000                     _PORTB	set	3969
   171  0000                     _PORTA	set	3968
   172  0000                     _LATE	set	3981
   173  0000                     _LATD	set	3980
   174  0000                     _LATC	set	3979
   175  0000                     _LATB	set	3978
   176  0000                     _LATA	set	3977
   177  0000                     _TRISE	set	3990
   178  0000                     _TRISD	set	3989
   179  0000                     _TRISC	set	3988
   180  0000                     _TRISB	set	3987
   181  0000                     _TRISA	set	3986
   182                           
   183                           ; #config settings
   184                           
   185                           	psect	cinit
   186  0017AA                     __pcinit:
   187                           	callstack 0
   188  0017AA                     start_initialization:
   189                           	callstack 0
   190  0017AA                     __initialization:
   191                           	callstack 0
   192                           
   193                           ; Initialize objects allocated to BANK0 (45 bytes)
   194                           ; load TBLPTR registers with __pidataBANK0
   195  0017AA  0EFA               	movlw	low __pidataBANK0
   196  0017AC  6EF6               	movwf	tblptrl,c
   197  0017AE  0E18               	movlw	high __pidataBANK0
   198  0017B0  6EF7               	movwf	tblptrh,c
   199  0017B2  0E00               	movlw	low (__pidataBANK0 shr (0+16))
   200  0017B4  6EF8               	movwf	tblptru,c
   201  0017B6  EE00  F080         	lfsr	0,__pdataBANK0
   202  0017BA  EE10 F02D          	lfsr	1,45
   203  0017BE                     copy_data0:
   204  0017BE  0009               	tblrd		*+
   205  0017C0  CFF5 FFEE          	movff	tablat,postinc0
   206  0017C4  50E5               	movf	postdec1,w,c
   207  0017C6  50E1               	movf	fsr1l,w,c
   208  0017C8  E1FA               	bnz	copy_data0
   209                           
   210                           ; Initialize objects allocated to COMRAM (5 bytes)
   211                           ; load TBLPTR registers with __pidataCOMRAM
   212  0017CA  0EB8               	movlw	low __pidataCOMRAM
   213  0017CC  6EF6               	movwf	tblptrl,c
   214  0017CE  0E19               	movlw	high __pidataCOMRAM
   215  0017D0  6EF7               	movwf	tblptrh,c
   216  0017D2  0E00               	movlw	low (__pidataCOMRAM shr (0+16))
   217  0017D4  6EF8               	movwf	tblptru,c
   218  0017D6  EE00  F071         	lfsr	0,__pdataCOMRAM
   219  0017DA  EE10 F005          	lfsr	1,5
   220  0017DE                     copy_data1:
   221  0017DE  0009               	tblrd		*+
   222  0017E0  CFF5 FFEE          	movff	tablat,postinc0
   223  0017E4  50E5               	movf	postdec1,w,c
   224  0017E6  50E1               	movf	fsr1l,w,c
   225  0017E8  E1FA               	bnz	copy_data1
   226                           
   227                           ; Clear objects allocated to COMRAM (29 bytes)
   228  0017EA  EE00  F054         	lfsr	0,__pbssCOMRAM
   229  0017EE  0E1D               	movlw	29
   230  0017F0                     clear_0:
   231  0017F0  6AEE               	clrf	postinc0,c
   232  0017F2  06E8               	decf	wreg,f,c
   233  0017F4  E1FD               	bnz	clear_0
   234  0017F6                     end_of_initialization:
   235                           	callstack 0
   236  0017F6                     __end_of__initialization:
   237                           	callstack 0
   238  0017F6  9076               	bcf	int$flags,0,c	;clear compiler interrupt flag (level 1)
   239  0017F8  9276               	bcf	int$flags,1,c	;clear compiler interrupt flag (level 2)
   240  0017FA  0E00               	movlw	low (__Lmediumconst shr (0+16))
   241  0017FC  6EF8               	movwf	tblptru,c
   242  0017FE  0100               	movlb	0
   243  001800  EF02  F00C         	goto	_main	;jump to C main() function
   244                           
   245                           	psect	bssCOMRAM
   246  000054                     __pbssCOMRAM:
   247                           	callstack 0
   248  000054                     _I2C_Report_Write_Collision:
   249                           	callstack 0
   250  000054                     	ds	2
   251  000056                     _I2C_Report_Receive_Overflow:
   252                           	callstack 0
   253  000056                     	ds	2
   254  000058                     _I2C_DefaultInterruptHandler:
   255                           	callstack 0
   256  000058                     	ds	2
   257  00005A                     _RB7_InterruptHandler_LOW:
   258                           	callstack 0
   259  00005A                     	ds	2
   260  00005C                     _RB7_InterruptHandler_HIGH:
   261                           	callstack 0
   262  00005C                     	ds	2
   263  00005E                     _RB6_InterruptHandler_LOW:
   264                           	callstack 0
   265  00005E                     	ds	2
   266  000060                     _RB6_InterruptHandler_HIGH:
   267                           	callstack 0
   268  000060                     	ds	2
   269  000062                     _RB5_InterruptHandler_LOW:
   270                           	callstack 0
   271  000062                     	ds	2
   272  000064                     _RB5_InterruptHandler_HIGH:
   273                           	callstack 0
   274  000064                     	ds	2
   275  000066                     _RB4_InterruptHandler_LOW:
   276                           	callstack 0
   277  000066                     	ds	2
   278  000068                     _RB4_InterruptHandler_HIGH:
   279                           	callstack 0
   280  000068                     	ds	2
   281  00006A                     _INT2_InterruptHandler:
   282                           	callstack 0
   283  00006A                     	ds	2
   284  00006C                     _INT1_InterruptHandler:
   285                           	callstack 0
   286  00006C                     	ds	2
   287  00006E                     _INT0_InterruptHandler:
   288                           	callstack 0
   289  00006E                     	ds	2
   290  000070                     _angle:
   291                           	callstack 0
   292  000070                     	ds	1
   293                           
   294                           	psect	dataCOMRAM
   295  000071                     __pdataCOMRAM:
   296                           	callstack 0
   297  000071                     _flags:
   298                           	callstack 0
   299  000071                     	ds	1
   300  000072                     _s1_obj:
   301                           	callstack 0
   302  000072                     	ds	4
   303                           
   304                           	psect	dataBANK0
   305  000080                     __pdataBANK0:
   306                           	callstack 0
   307  000080                     _port_registers:
   308                           	callstack 0
   309  000080                     	ds	10
   310  00008A                     _lat_registers:
   311                           	callstack 0
   312  00008A                     	ds	10
   313  000094                     _tris_registers:
   314                           	callstack 0
   315  000094                     	ds	10
   316  00009E                     _i2c_obj:
   317                           	callstack 0
   318  00009E                     	ds	15
   319                           
   320                           	psect	cstackCOMRAM
   321  000001                     __pcstackCOMRAM:
   322                           	callstack 0
   323  000001                     RB4_ISR@Handler_Select:
   324                           	callstack 0
   325  000001                     RB5_ISR@Handler_Select:
   326                           	callstack 0
   327  000001                     RB6_ISR@Handler_Select:
   328                           	callstack 0
   329  000001                     RB7_ISR@Handler_Select:
   330                           	callstack 0
   331                           
   332                           ; 1 bytes @ 0x0
   333  000001                     	ds	1
   334  000002                     ??_InterruptManagerLow:
   335                           
   336                           ; 1 bytes @ 0x1
   337  000002                     	ds	3
   338  000005                     ?___xxtofl:
   339                           	callstack 0
   340  000005                     MSSP_I2C_Master_Send_Start@i2c_obj:
   341                           	callstack 0
   342  000005                     MSSP_I2C_Master_Send_Stop@i2c_obj:
   343                           	callstack 0
   344  000005                     MSSP_I2C_Master_Write_Blocking@i2c_obj:
   345                           	callstack 0
   346  000005                     I2C_Slave_Mode_Clock_Configurations@i2c_obj:
   347                           	callstack 0
   348  000005                     I2C_Interrupt_configuration@i2c_obj:
   349                           	callstack 0
   350  000005                     ___xxtofl@val:
   351                           	callstack 0
   352                           
   353                           ; 4 bytes @ 0x4
   354  000005                     	ds	2
   355  000007                     ??_I2C_Slave_Mode_Clock_Configurations:
   356  000007                     MSSP_I2C_Master_Write_Blocking@i2c_data:
   357                           	callstack 0
   358                           
   359                           ; 1 bytes @ 0x6
   360  000007                     	ds	1
   361  000008                     MSSP_I2C_Master_Write_Blocking@_ack:
   362                           	callstack 0
   363                           
   364                           ; 2 bytes @ 0x7
   365  000008                     	ds	1
   366  000009                     ??___xxtofl:
   367                           
   368                           ; 1 bytes @ 0x8
   369  000009                     	ds	1
   370  00000A                     
   371                           ; 1 bytes @ 0x9
   372  00000A                     	ds	1
   373  00000B                     PCA_Write_Reg@i2c_obj:
   374                           	callstack 0
   375                           
   376                           ; 2 bytes @ 0xA
   377  00000B                     	ds	2
   378  00000D                     PCA_Write_Reg@slave_address:
   379                           	callstack 0
   380  00000D                     ___xxtofl@sign:
   381                           	callstack 0
   382                           
   383                           ; 1 bytes @ 0xC
   384  00000D                     	ds	1
   385  00000E                     PCA_Write_Reg@reg_address:
   386                           	callstack 0
   387  00000E                     ___xxtofl@exp:
   388                           	callstack 0
   389                           
   390                           ; 1 bytes @ 0xD
   391  00000E                     	ds	1
   392  00000F                     PCA_Write_Reg@data:
   393                           	callstack 0
   394  00000F                     ___xxtofl@arg:
   395                           	callstack 0
   396                           
   397                           ; 4 bytes @ 0xE
   398  00000F                     	ds	1
   399  000010                     PCA_Write_Reg@ack:
   400                           	callstack 0
   401                           
   402                           ; 1 bytes @ 0xF
   403  000010                     	ds	3
   404  000013                     ?___fldiv:
   405                           	callstack 0
   406  000013                     ?___flmul:
   407                           	callstack 0
   408  000013                     ___fldiv@b:
   409                           	callstack 0
   410  000013                     ___flmul@b:
   411                           	callstack 0
   412                           
   413                           ; 4 bytes @ 0x12
   414  000013                     	ds	4
   415  000017                     ___fldiv@a:
   416                           	callstack 0
   417  000017                     ___flmul@a:
   418                           	callstack 0
   419                           
   420                           ; 4 bytes @ 0x16
   421  000017                     	ds	4
   422  00001B                     ??___fldiv:
   423  00001B                     ??___flmul:
   424                           
   425                           ; 1 bytes @ 0x1A
   426  00001B                     	ds	4
   427  00001F                     ___flmul@sign:
   428                           	callstack 0
   429  00001F                     ___fldiv@rem:
   430                           	callstack 0
   431                           
   432                           ; 4 bytes @ 0x1E
   433  00001F                     	ds	1
   434  000020                     ___flmul@grs:
   435                           	callstack 0
   436                           
   437                           ; 4 bytes @ 0x1F
   438  000020                     	ds	3
   439  000023                     ___fldiv@sign:
   440                           	callstack 0
   441                           
   442                           ; 1 bytes @ 0x22
   443  000023                     	ds	1
   444  000024                     ___flmul@aexp:
   445                           	callstack 0
   446  000024                     ___fldiv@new_exp:
   447                           	callstack 0
   448                           
   449                           ; 2 bytes @ 0x23
   450  000024                     	ds	1
   451  000025                     ___flmul@bexp:
   452                           	callstack 0
   453                           
   454                           ; 1 bytes @ 0x24
   455  000025                     	ds	1
   456  000026                     ___fldiv@grs:
   457                           	callstack 0
   458  000026                     ___flmul@prod:
   459                           	callstack 0
   460                           
   461                           ; 4 bytes @ 0x25
   462  000026                     	ds	4
   463  00002A                     ___fldiv@bexp:
   464                           	callstack 0
   465  00002A                     ___flmul@temp:
   466                           	callstack 0
   467                           
   468                           ; 2 bytes @ 0x29
   469  00002A                     	ds	1
   470  00002B                     ___fldiv@aexp:
   471                           	callstack 0
   472                           
   473                           ; 1 bytes @ 0x2A
   474  00002B                     	ds	1
   475  00002C                     ?___fladd:
   476                           	callstack 0
   477  00002C                     ___fladd@b:
   478                           	callstack 0
   479                           
   480                           ; 4 bytes @ 0x2B
   481  00002C                     	ds	4
   482  000030                     ___fladd@a:
   483                           	callstack 0
   484                           
   485                           ; 4 bytes @ 0x2F
   486  000030                     	ds	4
   487  000034                     ??___fladd:
   488                           
   489                           ; 1 bytes @ 0x33
   490  000034                     	ds	4
   491  000038                     ___fladd@signs:
   492                           	callstack 0
   493                           
   494                           ; 1 bytes @ 0x37
   495  000038                     	ds	1
   496  000039                     ___fladd@aexp:
   497                           	callstack 0
   498                           
   499                           ; 1 bytes @ 0x38
   500  000039                     	ds	1
   501  00003A                     ___fladd@bexp:
   502                           	callstack 0
   503                           
   504                           ; 1 bytes @ 0x39
   505  00003A                     	ds	1
   506  00003B                     ___fladd@grs:
   507                           	callstack 0
   508                           
   509                           ; 1 bytes @ 0x3A
   510  00003B                     	ds	1
   511  00003C                     ?___fltol:
   512                           	callstack 0
   513  00003C                     ___fltol@f1:
   514                           	callstack 0
   515                           
   516                           ; 4 bytes @ 0x3B
   517  00003C                     	ds	4
   518  000040                     ??___fltol:
   519                           
   520                           ; 1 bytes @ 0x3F
   521  000040                     	ds	4
   522  000044                     ___fltol@sign1:
   523                           	callstack 0
   524                           
   525                           ; 1 bytes @ 0x43
   526  000044                     	ds	1
   527  000045                     ___fltol@exp1:
   528                           	callstack 0
   529                           
   530                           ; 1 bytes @ 0x44
   531  000045                     	ds	1
   532  000046                     I2C_Master_Mode_Clock_Configurations@i2c_obj:
   533                           	callstack 0
   534  000046                     Servo_SetAngle@i2c_obj:
   535                           	callstack 0
   536                           
   537                           ; 2 bytes @ 0x45
   538  000046                     	ds	2
   539  000048                     ??_I2C_Master_Mode_Clock_Configurations:
   540  000048                     Servo_SetAngle@servo_driver_obj:
   541                           	callstack 0
   542                           
   543                           ; 2 bytes @ 0x47
   544  000048                     	ds	2
   545  00004A                     Servo_SetAngle@servo_no:
   546                           	callstack 0
   547  00004A                     MSSP_I2C_Init@i2c_obj:
   548                           	callstack 0
   549                           
   550                           ; 2 bytes @ 0x49
   551  00004A                     	ds	1
   552  00004B                     Servo_SetAngle@angle:
   553                           	callstack 0
   554                           
   555                           ; 1 bytes @ 0x4A
   556  00004B                     	ds	1
   557  00004C                     
   558                           ; 1 bytes @ 0x4B
   559  00004C                     	ds	1
   560  00004D                     ServoDriver_Init@i2c_obj:
   561                           	callstack 0
   562  00004D                     Servo_SetAngle@angle_in_reg:
   563                           	callstack 0
   564                           
   565                           ; 2 bytes @ 0x4C
   566  00004D                     	ds	2
   567  00004F                     Servo_SetAngle@reg_addrees:
   568                           	callstack 0
   569  00004F                     ServoDriver_Init@servo_driver_obj:
   570                           	callstack 0
   571                           
   572                           ; 2 bytes @ 0x4E
   573  00004F                     	ds	2
   574  000051                     
   575                           ; 1 bytes @ 0x50
   576  000051                     	ds	1
   577  000052                     main@i:
   578                           	callstack 0
   579                           
   580                           ; 2 bytes @ 0x51
   581  000052                     	ds	2
   582                           
   583 ;;
   584 ;;Main: autosize = 0, tempsize = 0, incstack = 0, save=0
   585 ;;
   586 ;; *************** function _main *****************
   587 ;; Defined at:
   588 ;;		line 32 in file "application.c"
   589 ;; Parameters:    Size  Location     Type
   590 ;;		None
   591 ;; Auto vars:     Size  Location     Type
   592 ;;  i               2   81[COMRAM] int 
   593 ;; Return value:  Size  Location     Type
   594 ;;                  2  131[None  ] int 
   595 ;; Registers used:
   596 ;;		wreg, fsr2l, fsr2h, status,2, status,0, prodl, prodh, cstack
   597 ;; Tracked objects:
   598 ;;		On entry : 0/0
   599 ;;		On exit  : 0/0
   600 ;;		Unchanged: 0/0
   601 ;; Data sizes:     COMRAM   BANK0   BANK1   BANK2   BANK3   BANK4   BANK5   BANK6   BANK7   BANK8   BANK9  BANK10  BANK1
      +1  BANK12  BANK13  BANK14  BANK15
   602 ;;      Params:         0       0       0       0       0       0       0       0       0       0       0       0       
      +0       0       0       0       0
   603 ;;      Locals:         2       0       0       0       0       0       0       0       0       0       0       0       
      +0       0       0       0       0
   604 ;;      Temps:          0       0       0       0       0       0       0       0       0       0       0       0       
      +0       0       0       0       0
   605 ;;      Totals:         2       0       0       0       0       0       0       0       0       0       0       0       
      +0       0       0       0       0
   606 ;;Total ram usage:        2 bytes
   607 ;; Hardware stack levels required when called:    9
   608 ;; This function calls:
   609 ;;		_Servo_SetAngle
   610 ;;		_application_intialize
   611 ;; This function is called by:
   612 ;;		Startup code after reset
   613 ;; This function uses a non-reentrant model
   614 ;;
   615                           
   616                           	psect	text0
   617  001804                     __ptext0:
   618                           	callstack 0
   619  001804                     _main:
   620                           	callstack 22
   621  001804                     
   622                           ;application.c: 34:     application_intialize();
   623  001804  EC94  F00C         	call	_application_intialize	;wreg free
   624  001808                     
   625                           ;application.c: 36:     for(int i=0;i<16;i++)
   626  001808  0E00               	movlw	0
   627  00180A  6E53               	movwf	(main@i+1)^0,c
   628  00180C  0E00               	movlw	0
   629  00180E  6E52               	movwf	main@i^0,c
   630  001810                     l3902:
   631                           
   632                           ;application.c: 37:     {;application.c: 38:         Servo_SetAngle(&i2c_obj,&s1_obj,i,a
      +                          ngle);
   633  001810  0E9E               	movlw	low _i2c_obj
   634  001812  6E46               	movwf	Servo_SetAngle@i2c_obj^0,c
   635  001814  0E00               	movlw	high _i2c_obj
   636  001816  6E47               	movwf	(Servo_SetAngle@i2c_obj+1)^0,c
   637  001818  0E72               	movlw	low _s1_obj
   638  00181A  6E48               	movwf	Servo_SetAngle@servo_driver_obj^0,c
   639  00181C  0E00               	movlw	high _s1_obj
   640  00181E  6E49               	movwf	(Servo_SetAngle@servo_driver_obj+1)^0,c
   641  001820  C052  F04A         	movff	main@i,Servo_SetAngle@servo_no
   642  001824  C070  F04B         	movff	_angle,Servo_SetAngle@angle
   643  001828  EC7F  F009         	call	_Servo_SetAngle	;wreg free
   644  00182C                     
   645                           ;application.c: 40:         angle+=15;
   646  00182C  0E0F               	movlw	15
   647  00182E  2670               	addwf	_angle^0,f,c
   648  001830                     
   649                           ;application.c: 41:     }
   650  001830  4A52               	infsnz	main@i^0,f,c
   651  001832  2A53               	incf	(main@i+1)^0,f,c
   652  001834  BE53               	btfsc	(main@i+1)^0,7,c
   653  001836  EF26  F00C         	goto	u4241
   654  00183A  5053               	movf	(main@i+1)^0,w,c
   655  00183C  E109               	bnz	u4240
   656  00183E  0E10               	movlw	16
   657  001840  5C52               	subwf	main@i^0,w,c
   658  001842  A0D8               	btfss	status,0,c
   659  001844  EF26  F00C         	goto	u4241
   660  001848  EF28  F00C         	goto	u4240
   661  00184C                     u4241:
   662  00184C  EF08  F00C         	goto	l3902
   663  001850                     u4240:
   664  001850                     l134:
   665  001850  EF28  F00C         	goto	l134
   666  001854  EF3B  F001         	goto	start
   667  001858                     __end_of_main:
   668                           	callstack 0
   669                           
   670 ;; *************** function _application_intialize *****************
   671 ;; Defined at:
   672 ;;		line 49 in file "application.c"
   673 ;; Parameters:    Size  Location     Type
   674 ;;		None
   675 ;; Auto vars:     Size  Location     Type
   676 ;;		None
   677 ;; Return value:  Size  Location     Type
   678 ;;                  1    wreg      void 
   679 ;; Registers used:
   680 ;;		wreg, fsr2l, fsr2h, status,2, status,0, cstack
   681 ;; Tracked objects:
   682 ;;		On entry : 0/0
   683 ;;		On exit  : 0/0
   684 ;;		Unchanged: 0/0
   685 ;; Data sizes:     COMRAM   BANK0   BANK1   BANK2   BANK3   BANK4   BANK5   BANK6   BANK7   BANK8   BANK9  BANK10  BANK1
      +1  BANK12  BANK13  BANK14  BANK15
   686 ;;      Params:         0       0       0       0       0       0       0       0       0       0       0       0       
      +0       0       0       0       0
   687 ;;      Locals:         0       0       0       0       0       0       0       0       0       0       0       0       
      +0       0       0       0       0
   688 ;;      Temps:          0       0       0       0       0       0       0       0       0       0       0       0       
      +0       0       0       0       0
   689 ;;      Totals:         0       0       0       0       0       0       0       0       0       0       0       0       
      +0       0       0       0       0
   690 ;;Total ram usage:        0 bytes
   691 ;; Hardware stack levels used:    1
   692 ;; Hardware stack levels required when called:    8
   693 ;; This function calls:
   694 ;;		_MSSP_I2C_Init
   695 ;;		_ServoDriver_Init
   696 ;; This function is called by:
   697 ;;		_main
   698 ;; This function uses a non-reentrant model
   699 ;;
   700                           
   701                           	psect	text1
   702  001928                     __ptext1:
   703                           	callstack 0
   704  001928                     _application_intialize:
   705                           	callstack 22
   706  001928                     
   707                           ;application.c: 51:     MSSP_I2C_Init(&i2c_obj);
   708  001928  0E9E               	movlw	low _i2c_obj
   709  00192A  6E4A               	movwf	MSSP_I2C_Init@i2c_obj^0,c
   710  00192C  0E00               	movlw	high _i2c_obj
   711  00192E  6E4B               	movwf	(MSSP_I2C_Init@i2c_obj+1)^0,c
   712  001930  EC59  F008         	call	_MSSP_I2C_Init	;wreg free
   713                           
   714                           ;application.c: 52:     ServoDriver_Init(&i2c_obj,&s1_obj);
   715  001934  0E9E               	movlw	low _i2c_obj
   716  001936  6E4D               	movwf	ServoDriver_Init@i2c_obj^0,c
   717  001938  0E00               	movlw	high _i2c_obj
   718  00193A  6E4E               	movwf	(ServoDriver_Init@i2c_obj+1)^0,c
   719  00193C  0E72               	movlw	low _s1_obj
   720  00193E  6E4F               	movwf	ServoDriver_Init@servo_driver_obj^0,c
   721  001940  0E00               	movlw	high _s1_obj
   722  001942  6E50               	movwf	(ServoDriver_Init@servo_driver_obj+1)^0,c
   723  001944  ECB9  F00A         	call	_ServoDriver_Init	;wreg free
   724  001948  0012               	return		;funcret
   725  00194A                     __end_of_application_intialize:
   726                           	callstack 0
   727                           
   728 ;; *************** function _ServoDriver_Init *****************
   729 ;; Defined at:
   730 ;;		line 13 in file "ECU/SERVO_MOTOR_CONTROL_BY_I2C/ecu_servo_motor_i2c.c"
   731 ;; Parameters:    Size  Location     Type
   732 ;;  i2c_obj         2   76[COMRAM] PTR const struct .
   733 ;;		 -> i2c_obj(15), 
   734 ;;  servo_driver    2   78[COMRAM] PTR const struct .
   735 ;;		 -> s1_obj(4), 
   736 ;; Auto vars:     Size  Location     Type
   737 ;;  ERRORSTATUS     1    0        unsigned char 
   738 ;; Return value:  Size  Location     Type
   739 ;;                  1    wreg      unsigned char 
   740 ;; Registers used:
   741 ;;		wreg, fsr2l, fsr2h, status,2, status,0, cstack
   742 ;; Tracked objects:
   743 ;;		On entry : 0/0
   744 ;;		On exit  : 0/0
   745 ;;		Unchanged: 0/0
   746 ;; Data sizes:     COMRAM   BANK0   BANK1   BANK2   BANK3   BANK4   BANK5   BANK6   BANK7   BANK8   BANK9  BANK10  BANK1
      +1  BANK12  BANK13  BANK14  BANK15
   747 ;;      Params:         4       0       0       0       0       0       0       0       0       0       0       0       
      +0       0       0       0       0
   748 ;;      Locals:         1       0       0       0       0       0       0       0       0       0       0       0       
      +0       0       0       0       0
   749 ;;      Temps:          0       0       0       0       0       0       0       0       0       0       0       0       
      +0       0       0       0       0
   750 ;;      Totals:         5       0       0       0       0       0       0       0       0       0       0       0       
      +0       0       0       0       0
   751 ;;Total ram usage:        5 bytes
   752 ;; Hardware stack levels used:    1
   753 ;; Hardware stack levels required when called:    7
   754 ;; This function calls:
   755 ;;		_MSSP_I2C_Init
   756 ;;		_PCA_Write_Reg
   757 ;; This function is called by:
   758 ;;		_application_intialize
   759 ;; This function uses a non-reentrant model
   760 ;;
   761                           
   762                           	psect	text2
   763  001572                     __ptext2:
   764                           	callstack 0
   765  001572                     _ServoDriver_Init:
   766                           	callstack 22
   767  001572                     
   768                           ;ECU/SERVO_MOTOR_CONTROL_BY_I2C/ecu_servo_motor_i2c.c: 16:     if ((((void*)0)==i2c_obj)
      +                          ||(((void*)0)==servo_driver_obj))
   769  001572  504D               	movf	ServoDriver_Init@i2c_obj^0,w,c
   770  001574  104E               	iorwf	(ServoDriver_Init@i2c_obj+1)^0,w,c
   771  001576  B4D8               	btfsc	status,2,c
   772  001578  EFC0  F00A         	goto	u3741
   773  00157C  EFC2  F00A         	goto	u3740
   774  001580                     u3741:
   775  001580  EFCB  F00A         	goto	l3588
   776  001584                     u3740:
   777  001584  504F               	movf	ServoDriver_Init@servo_driver_obj^0,w,c
   778  001586  1050               	iorwf	(ServoDriver_Init@servo_driver_obj+1)^0,w,c
   779  001588  A4D8               	btfss	status,2,c
   780  00158A  EFC9  F00A         	goto	u3751
   781  00158E  EFCB  F00A         	goto	u3750
   782  001592                     u3751:
   783  001592  EFCD  F00A         	goto	l3590
   784  001596                     u3750:
   785  001596                     l3588:
   786                           
   787                           ;ECU/SERVO_MOTOR_CONTROL_BY_I2C/ecu_servo_motor_i2c.c: 19:     }
   788  001596  EF15  F00B         	goto	l725
   789  00159A                     l3590:
   790                           
   791                           ;ECU/SERVO_MOTOR_CONTROL_BY_I2C/ecu_servo_motor_i2c.c: 21:     {;ECU/SERVO_MOTOR_CONTROL
      +                          _BY_I2C/ecu_servo_motor_i2c.c: 22:      MSSP_I2C_Init(i2c_obj);
   792  00159A  C04D  F04A         	movff	ServoDriver_Init@i2c_obj,MSSP_I2C_Init@i2c_obj
   793  00159E  C04E  F04B         	movff	ServoDriver_Init@i2c_obj+1,MSSP_I2C_Init@i2c_obj+1
   794  0015A2  EC59  F008         	call	_MSSP_I2C_Init	;wreg free
   795                           
   796                           ;ECU/SERVO_MOTOR_CONTROL_BY_I2C/ecu_servo_motor_i2c.c: 23:      PCA_Write_Reg(i2c_obj,se
      +                          rvo_driver_obj->slave_address,0xFE,servo_driver_obj->frequancy);
   797  0015A6  C04D  F00B         	movff	ServoDriver_Init@i2c_obj,PCA_Write_Reg@i2c_obj
   798  0015AA  C04E  F00C         	movff	ServoDriver_Init@i2c_obj+1,PCA_Write_Reg@i2c_obj+1
   799  0015AE  C04F  FFD9         	movff	ServoDriver_Init@servo_driver_obj,fsr2l
   800  0015B2  C050  FFDA         	movff	ServoDriver_Init@servo_driver_obj+1,fsr2h
   801  0015B6  50DF               	movf	indf2,w,c
   802  0015B8  6E0D               	movwf	PCA_Write_Reg@slave_address^0,c
   803  0015BA  0EFE               	movlw	254
   804  0015BC  6E0E               	movwf	PCA_Write_Reg@reg_address^0,c
   805  0015BE  EE20 F001          	lfsr	2,1
   806  0015C2  504F               	movf	ServoDriver_Init@servo_driver_obj^0,w,c
   807  0015C4  26D9               	addwf	fsr2l,f,c
   808  0015C6  5050               	movf	(ServoDriver_Init@servo_driver_obj+1)^0,w,c
   809  0015C8  22DA               	addwfc	fsr2h,f,c
   810  0015CA  50DF               	movf	indf2,w,c
   811  0015CC  6E0F               	movwf	PCA_Write_Reg@data^0,c
   812  0015CE  ECA2  F00B         	call	_PCA_Write_Reg	;wreg free
   813                           
   814                           ;ECU/SERVO_MOTOR_CONTROL_BY_I2C/ecu_servo_motor_i2c.c: 24:      PCA_Write_Reg(i2c_obj,se
      +                          rvo_driver_obj->slave_address,0x00,servo_driver_obj->mode_1_cfg);
   815  0015D2  C04D  F00B         	movff	ServoDriver_Init@i2c_obj,PCA_Write_Reg@i2c_obj
   816  0015D6  C04E  F00C         	movff	ServoDriver_Init@i2c_obj+1,PCA_Write_Reg@i2c_obj+1
   817  0015DA  C04F  FFD9         	movff	ServoDriver_Init@servo_driver_obj,fsr2l
   818  0015DE  C050  FFDA         	movff	ServoDriver_Init@servo_driver_obj+1,fsr2h
   819  0015E2  50DF               	movf	indf2,w,c
   820  0015E4  6E0D               	movwf	PCA_Write_Reg@slave_address^0,c
   821  0015E6  0E00               	movlw	0
   822  0015E8  6E0E               	movwf	PCA_Write_Reg@reg_address^0,c
   823  0015EA  EE20 F002          	lfsr	2,2
   824  0015EE  504F               	movf	ServoDriver_Init@servo_driver_obj^0,w,c
   825  0015F0  26D9               	addwf	fsr2l,f,c
   826  0015F2  5050               	movf	(ServoDriver_Init@servo_driver_obj+1)^0,w,c
   827  0015F4  22DA               	addwfc	fsr2h,f,c
   828  0015F6  50DF               	movf	indf2,w,c
   829  0015F8  6E0F               	movwf	PCA_Write_Reg@data^0,c
   830  0015FA  ECA2  F00B         	call	_PCA_Write_Reg	;wreg free
   831                           
   832                           ;ECU/SERVO_MOTOR_CONTROL_BY_I2C/ecu_servo_motor_i2c.c: 25:      PCA_Write_Reg(i2c_obj,se
      +                          rvo_driver_obj->slave_address,0x01,servo_driver_obj->mode_2_cfg);
   833  0015FE  C04D  F00B         	movff	ServoDriver_Init@i2c_obj,PCA_Write_Reg@i2c_obj
   834  001602  C04E  F00C         	movff	ServoDriver_Init@i2c_obj+1,PCA_Write_Reg@i2c_obj+1
   835  001606  C04F  FFD9         	movff	ServoDriver_Init@servo_driver_obj,fsr2l
   836  00160A  C050  FFDA         	movff	ServoDriver_Init@servo_driver_obj+1,fsr2h
   837  00160E  50DF               	movf	indf2,w,c
   838  001610  6E0D               	movwf	PCA_Write_Reg@slave_address^0,c
   839  001612  0E01               	movlw	1
   840  001614  6E0E               	movwf	PCA_Write_Reg@reg_address^0,c
   841  001616  EE20 F003          	lfsr	2,3
   842  00161A  504F               	movf	ServoDriver_Init@servo_driver_obj^0,w,c
   843  00161C  26D9               	addwf	fsr2l,f,c
   844  00161E  5050               	movf	(ServoDriver_Init@servo_driver_obj+1)^0,w,c
   845  001620  22DA               	addwfc	fsr2h,f,c
   846  001622  50DF               	movf	indf2,w,c
   847  001624  6E0F               	movwf	PCA_Write_Reg@data^0,c
   848  001626  ECA2  F00B         	call	_PCA_Write_Reg	;wreg free
   849  00162A                     l725:
   850  00162A  0012               	return		;funcret
   851  00162C                     __end_of_ServoDriver_Init:
   852                           	callstack 0
   853                           
   854 ;; *************** function _MSSP_I2C_Init *****************
   855 ;; Defined at:
   856 ;;		line 23 in file "MCAL/I2C/mcal_i2c.c"
   857 ;; Parameters:    Size  Location     Type
   858 ;;  i2c_obj         2   73[COMRAM] PTR const struct .
   859 ;;		 -> i2c_obj(15), 
   860 ;; Auto vars:     Size  Location     Type
   861 ;;  ERRORSTATUS     1    0        unsigned char 
   862 ;; Return value:  Size  Location     Type
   863 ;;                  1    wreg      unsigned char 
   864 ;; Registers used:
   865 ;;		wreg, fsr2l, fsr2h, status,2, status,0, cstack
   866 ;; Tracked objects:
   867 ;;		On entry : 0/0
   868 ;;		On exit  : 0/0
   869 ;;		Unchanged: 0/0
   870 ;; Data sizes:     COMRAM   BANK0   BANK1   BANK2   BANK3   BANK4   BANK5   BANK6   BANK7   BANK8   BANK9  BANK10  BANK1
      +1  BANK12  BANK13  BANK14  BANK15
   871 ;;      Params:         2       0       0       0       0       0       0       0       0       0       0       0       
      +0       0       0       0       0
   872 ;;      Locals:         1       0       0       0       0       0       0       0       0       0       0       0       
      +0       0       0       0       0
   873 ;;      Temps:          0       0       0       0       0       0       0       0       0       0       0       0       
      +0       0       0       0       0
   874 ;;      Totals:         3       0       0       0       0       0       0       0       0       0       0       0       
      +0       0       0       0       0
   875 ;;Total ram usage:        3 bytes
   876 ;; Hardware stack levels used:    1
   877 ;; Hardware stack levels required when called:    6
   878 ;; This function calls:
   879 ;;		_I2C_Interrupt_configuration
   880 ;;		_I2C_Master_Mode_Clock_Configurations
   881 ;;		_I2C_Pin_Configurations
   882 ;;		_I2C_Slave_Mode_Clock_Configurations
   883 ;; This function is called by:
   884 ;;		_application_intialize
   885 ;;		_ServoDriver_Init
   886 ;; This function uses a non-reentrant model
   887 ;;
   888                           
   889                           	psect	text3
   890  0010B2                     __ptext3:
   891                           	callstack 0
   892  0010B2                     _MSSP_I2C_Init:
   893                           	callstack 22
   894  0010B2                     
   895                           ;MCAL/I2C/mcal_i2c.c: 26:     if (((void*)0)==i2c_obj)
   896  0010B2  504A               	movf	MSSP_I2C_Init@i2c_obj^0,w,c
   897  0010B4  104B               	iorwf	(MSSP_I2C_Init@i2c_obj+1)^0,w,c
   898  0010B6  A4D8               	btfss	status,2,c
   899  0010B8  EF60  F008         	goto	u3651
   900  0010BC  EF62  F008         	goto	u3650
   901  0010C0                     u3651:
   902  0010C0  EF64  F008         	goto	l577
   903  0010C4                     u3650:
   904  0010C4                     
   905                           ;MCAL/I2C/mcal_i2c.c: 29:     }
   906  0010C4  EFFB  F008         	goto	l595
   907  0010C8                     l577:
   908                           
   909                           ;MCAL/I2C/mcal_i2c.c: 31:     {;MCAL/I2C/mcal_i2c.c: 33:         (SSPCON1bits.SSPEN = 0)
      +                          ;
   910  0010C8  9AC6               	bcf	198,5,c	;volatile
   911  0010CA                     
   912                           ;MCAL/I2C/mcal_i2c.c: 35:         if(1==i2c_obj->i2c_cfg.i2c_mode)
   913  0010CA  EE20 F006          	lfsr	2,6
   914  0010CE  504A               	movf	MSSP_I2C_Init@i2c_obj^0,w,c
   915  0010D0  26D9               	addwf	fsr2l,f,c
   916  0010D2  504B               	movf	(MSSP_I2C_Init@i2c_obj+1)^0,w,c
   917  0010D4  22DA               	addwfc	fsr2h,f,c
   918  0010D6  A0DF               	btfss	indf2,0,c
   919  0010D8  EF70  F008         	goto	u3661
   920  0010DC  EF72  F008         	goto	u3660
   921  0010E0                     u3661:
   922  0010E0  EF7A  F008         	goto	l3532
   923  0010E4                     u3660:
   924  0010E4                     
   925                           ;MCAL/I2C/mcal_i2c.c: 36:         {;MCAL/I2C/mcal_i2c.c: 38:            I2C_Master_Mode_
      +                          Clock_Configurations(i2c_obj);
   926  0010E4  C04A  F046         	movff	MSSP_I2C_Init@i2c_obj,I2C_Master_Mode_Clock_Configurations@i2c_obj
   927  0010E8  C04B  F047         	movff	MSSP_I2C_Init@i2c_obj+1,I2C_Master_Mode_Clock_Configurations@i2c_obj+1
   928  0010EC  EC16  F00B         	call	_I2C_Master_Mode_Clock_Configurations	;wreg free
   929                           
   930                           ;MCAL/I2C/mcal_i2c.c: 39:         }
   931  0010F0  EFB6  F008         	goto	l3546
   932  0010F4                     l3532:
   933  0010F4  EE20 F006          	lfsr	2,6
   934  0010F8  504A               	movf	MSSP_I2C_Init@i2c_obj^0,w,c
   935  0010FA  26D9               	addwf	fsr2l,f,c
   936  0010FC  504B               	movf	(MSSP_I2C_Init@i2c_obj+1)^0,w,c
   937  0010FE  22DA               	addwfc	fsr2h,f,c
   938  001100  B0DF               	btfsc	indf2,0,c
   939  001102  EF85  F008         	goto	u3671
   940  001106  EF87  F008         	goto	u3670
   941  00110A                     u3671:
   942  00110A  EFB6  F008         	goto	l3546
   943  00110E                     u3670:
   944  00110E                     
   945                           ;MCAL/I2C/mcal_i2c.c: 41:         {;MCAL/I2C/mcal_i2c.c: 43:             if(1==i2c_obj->
      +                          i2c_cfg.i2c_general_call)
   946  00110E  EE20 F006          	lfsr	2,6
   947  001112  504A               	movf	MSSP_I2C_Init@i2c_obj^0,w,c
   948  001114  26D9               	addwf	fsr2l,f,c
   949  001116  504B               	movf	(MSSP_I2C_Init@i2c_obj+1)^0,w,c
   950  001118  22DA               	addwfc	fsr2h,f,c
   951  00111A  A6DF               	btfss	indf2,3,c
   952  00111C  EF92  F008         	goto	u3681
   953  001120  EF94  F008         	goto	u3680
   954  001124                     u3681:
   955  001124  EF97  F008         	goto	l3538
   956  001128                     u3680:
   957  001128                     
   958                           ;MCAL/I2C/mcal_i2c.c: 44:             {;MCAL/I2C/mcal_i2c.c: 45:                 (SSPCON
      +                          2bits.GCEN = 1);
   959  001128  8EC5               	bsf	197,7,c	;volatile
   960                           
   961                           ;MCAL/I2C/mcal_i2c.c: 46:             }
   962  00112A  EFA5  F008         	goto	l583
   963  00112E                     l3538:
   964  00112E  EE20 F006          	lfsr	2,6
   965  001132  504A               	movf	MSSP_I2C_Init@i2c_obj^0,w,c
   966  001134  26D9               	addwf	fsr2l,f,c
   967  001136  504B               	movf	(MSSP_I2C_Init@i2c_obj+1)^0,w,c
   968  001138  22DA               	addwfc	fsr2h,f,c
   969  00113A  B6DF               	btfsc	indf2,3,c
   970  00113C  EFA2  F008         	goto	u3691
   971  001140  EFA4  F008         	goto	u3690
   972  001144                     u3691:
   973  001144  EFA5  F008         	goto	l583
   974  001148                     u3690:
   975  001148                     
   976                           ;MCAL/I2C/mcal_i2c.c: 48:             {;MCAL/I2C/mcal_i2c.c: 49:                 (SSPCON
      +                          2bits.GCEN = 0);
   977  001148  9EC5               	bcf	197,7,c	;volatile
   978  00114A                     l583:
   979                           
   980                           ;MCAL/I2C/mcal_i2c.c: 53:              SSPCON1bits.WCOL=0;
   981  00114A  9EC6               	bcf	198,7,c	;volatile
   982                           
   983                           ;MCAL/I2C/mcal_i2c.c: 55:              SSPCON1bits.SSPOV=0;
   984  00114C  9CC6               	bcf	198,6,c	;volatile
   985                           
   986                           ;MCAL/I2C/mcal_i2c.c: 57:              SSPCON1bits.CKP=1;
   987  00114E  88C6               	bsf	198,4,c	;volatile
   988  001150                     
   989                           ;MCAL/I2C/mcal_i2c.c: 59:              SSPADD=i2c_obj->i2c_cfg.i2c_slave_address;
   990  001150  EE20 F005          	lfsr	2,5
   991  001154  504A               	movf	MSSP_I2C_Init@i2c_obj^0,w,c
   992  001156  26D9               	addwf	fsr2l,f,c
   993  001158  504B               	movf	(MSSP_I2C_Init@i2c_obj+1)^0,w,c
   994  00115A  22DA               	addwfc	fsr2h,f,c
   995  00115C  50DF               	movf	indf2,w,c
   996  00115E  6EC8               	movwf	200,c	;volatile
   997  001160                     
   998                           ;MCAL/I2C/mcal_i2c.c: 61:              I2C_Slave_Mode_Clock_Configurations(i2c_obj);
   999  001160  C04A  F005         	movff	MSSP_I2C_Init@i2c_obj,I2C_Slave_Mode_Clock_Configurations@i2c_obj
  1000  001164  C04B  F006         	movff	MSSP_I2C_Init@i2c_obj+1,I2C_Slave_Mode_Clock_Configurations@i2c_obj+1
  1001  001168  EC64  F00C         	call	_I2C_Slave_Mode_Clock_Configurations	;wreg free
  1002  00116C                     l3546:
  1003                           
  1004                           ;MCAL/I2C/mcal_i2c.c: 65:         I2C_Pin_Configurations();
  1005  00116C  ECD9  F00C         	call	_I2C_Pin_Configurations	;wreg free
  1006  001170                     
  1007                           ;MCAL/I2C/mcal_i2c.c: 67:         if(1 == i2c_obj->i2c_cfg.i2c_slew_rate){
  1008  001170  EE20 F006          	lfsr	2,6
  1009  001174  504A               	movf	MSSP_I2C_Init@i2c_obj^0,w,c
  1010  001176  26D9               	addwf	fsr2l,f,c
  1011  001178  504B               	movf	(MSSP_I2C_Init@i2c_obj+1)^0,w,c
  1012  00117A  22DA               	addwfc	fsr2h,f,c
  1013  00117C  A2DF               	btfss	indf2,1,c
  1014  00117E  EFC3  F008         	goto	u3701
  1015  001182  EFC5  F008         	goto	u3700
  1016  001186                     u3701:
  1017  001186  EFC8  F008         	goto	l3552
  1018  00118A                     u3700:
  1019  00118A                     
  1020                           ;MCAL/I2C/mcal_i2c.c: 68:             (SSPSTATbits.SMP = 1);
  1021  00118A  8EC7               	bsf	199,7,c	;volatile
  1022                           
  1023                           ;MCAL/I2C/mcal_i2c.c: 69:         }
  1024  00118C  EFD6  F008         	goto	l3556
  1025  001190                     l3552:
  1026  001190  EE20 F006          	lfsr	2,6
  1027  001194  504A               	movf	MSSP_I2C_Init@i2c_obj^0,w,c
  1028  001196  26D9               	addwf	fsr2l,f,c
  1029  001198  504B               	movf	(MSSP_I2C_Init@i2c_obj+1)^0,w,c
  1030  00119A  22DA               	addwfc	fsr2h,f,c
  1031  00119C  B2DF               	btfsc	indf2,1,c
  1032  00119E  EFD3  F008         	goto	u3711
  1033  0011A2  EFD5  F008         	goto	u3710
  1034  0011A6                     u3711:
  1035  0011A6  EFD6  F008         	goto	l3556
  1036  0011AA                     u3710:
  1037  0011AA                     
  1038                           ;MCAL/I2C/mcal_i2c.c: 71:             (SSPSTATbits.SMP = 0);
  1039  0011AA  9EC7               	bcf	199,7,c	;volatile
  1040  0011AC                     l3556:
  1041                           
  1042                           ;MCAL/I2C/mcal_i2c.c: 75:         if(1 == i2c_obj->i2c_cfg.i2c_SMBus_control){
  1043  0011AC  EE20 F006          	lfsr	2,6
  1044  0011B0  504A               	movf	MSSP_I2C_Init@i2c_obj^0,w,c
  1045  0011B2  26D9               	addwf	fsr2l,f,c
  1046  0011B4  504B               	movf	(MSSP_I2C_Init@i2c_obj+1)^0,w,c
  1047  0011B6  22DA               	addwfc	fsr2h,f,c
  1048  0011B8  A4DF               	btfss	indf2,2,c
  1049  0011BA  EFE1  F008         	goto	u3721
  1050  0011BE  EFE3  F008         	goto	u3720
  1051  0011C2                     u3721:
  1052  0011C2  EFE6  F008         	goto	l3560
  1053  0011C6                     u3720:
  1054  0011C6                     
  1055                           ;MCAL/I2C/mcal_i2c.c: 76:             (SSPSTATbits.CKE = 1);
  1056  0011C6  8CC7               	bsf	199,6,c	;volatile
  1057                           
  1058                           ;MCAL/I2C/mcal_i2c.c: 77:         }
  1059  0011C8  EFF4  F008         	goto	l3564
  1060  0011CC                     l3560:
  1061  0011CC  EE20 F006          	lfsr	2,6
  1062  0011D0  504A               	movf	MSSP_I2C_Init@i2c_obj^0,w,c
  1063  0011D2  26D9               	addwf	fsr2l,f,c
  1064  0011D4  504B               	movf	(MSSP_I2C_Init@i2c_obj+1)^0,w,c
  1065  0011D6  22DA               	addwfc	fsr2h,f,c
  1066  0011D8  B4DF               	btfsc	indf2,2,c
  1067  0011DA  EFF1  F008         	goto	u3731
  1068  0011DE  EFF3  F008         	goto	u3730
  1069  0011E2                     u3731:
  1070  0011E2  EFF4  F008         	goto	l3564
  1071  0011E6                     u3730:
  1072  0011E6                     
  1073                           ;MCAL/I2C/mcal_i2c.c: 79:             (SSPSTATbits.CKE = 0);
  1074  0011E6  9CC7               	bcf	199,6,c	;volatile
  1075  0011E8                     l3564:
  1076                           
  1077                           ;MCAL/I2C/mcal_i2c.c: 85:         I2C_Interrupt_configuration(i2c_obj);
  1078  0011E8  C04A  F005         	movff	MSSP_I2C_Init@i2c_obj,I2C_Interrupt_configuration@i2c_obj
  1079  0011EC  C04B  F006         	movff	MSSP_I2C_Init@i2c_obj+1,I2C_Interrupt_configuration@i2c_obj+1
  1080  0011F0  ECEB  F009         	call	_I2C_Interrupt_configuration	;wreg free
  1081  0011F4                     
  1082                           ;MCAL/I2C/mcal_i2c.c: 89:         (SSPCON1bits.SSPEN = 1);
  1083  0011F4  8AC6               	bsf	198,5,c	;volatile
  1084  0011F6                     l595:
  1085  0011F6  0012               	return		;funcret
  1086  0011F8                     __end_of_MSSP_I2C_Init:
  1087                           	callstack 0
  1088                           
  1089 ;; *************** function _I2C_Slave_Mode_Clock_Configurations *****************
  1090 ;; Defined at:
  1091 ;;		line 325 in file "MCAL/I2C/mcal_i2c.c"
  1092 ;; Parameters:    Size  Location     Type
  1093 ;;  i2c_obj         2    4[COMRAM] PTR const struct .
  1094 ;;		 -> i2c_obj(15), 
  1095 ;; Auto vars:     Size  Location     Type
  1096 ;;  ERRORSTATUS     1    0        unsigned char 
  1097 ;; Return value:  Size  Location     Type
  1098 ;;                  1    wreg      void 
  1099 ;; Registers used:
  1100 ;;		wreg, fsr2l, fsr2h, status,2, status,0
  1101 ;; Tracked objects:
  1102 ;;		On entry : 0/0
  1103 ;;		On exit  : 0/0
  1104 ;;		Unchanged: 0/0
  1105 ;; Data sizes:     COMRAM   BANK0   BANK1   BANK2   BANK3   BANK4   BANK5   BANK6   BANK7   BANK8   BANK9  BANK10  BANK1
      +1  BANK12  BANK13  BANK14  BANK15
  1106 ;;      Params:         2       0       0       0       0       0       0       0       0       0       0       0       
      +0       0       0       0       0
  1107 ;;      Locals:         1       0       0       0       0       0       0       0       0       0       0       0       
      +0       0       0       0       0
  1108 ;;      Temps:          1       0       0       0       0       0       0       0       0       0       0       0       
      +0       0       0       0       0
  1109 ;;      Totals:         4       0       0       0       0       0       0       0       0       0       0       0       
      +0       0       0       0       0
  1110 ;;Total ram usage:        4 bytes
  1111 ;; Hardware stack levels used:    1
  1112 ;; Hardware stack levels required when called:    4
  1113 ;; This function calls:
  1114 ;;		Nothing
  1115 ;; This function is called by:
  1116 ;;		_MSSP_I2C_Init
  1117 ;; This function uses a non-reentrant model
  1118 ;;
  1119                           
  1120                           	psect	text4
  1121  0018C8                     __ptext4:
  1122                           	callstack 0
  1123  0018C8                     _I2C_Slave_Mode_Clock_Configurations:
  1124                           	callstack 23
  1125  0018C8                     
  1126                           ;MCAL/I2C/mcal_i2c.c: 328:     if (((void*)0)==i2c_obj)
  1127  0018C8  5005               	movf	I2C_Slave_Mode_Clock_Configurations@i2c_obj^0,w,c
  1128  0018CA  1006               	iorwf	(I2C_Slave_Mode_Clock_Configurations@i2c_obj+1)^0,w,c
  1129  0018CC  A4D8               	btfss	status,2,c
  1130  0018CE  EF6B  F00C         	goto	u3501
  1131  0018D2  EF6D  F00C         	goto	u3500
  1132  0018D6                     u3501:
  1133  0018D6  EF6F  F00C         	goto	l3452
  1134  0018DA                     u3500:
  1135  0018DA                     
  1136                           ;MCAL/I2C/mcal_i2c.c: 331:     }
  1137  0018DA  EF7C  F00C         	goto	l692
  1138  0018DE                     l3452:
  1139                           
  1140                           ;MCAL/I2C/mcal_i2c.c: 333:     {;MCAL/I2C/mcal_i2c.c: 335:         SSPCON1bits.SSPM=i2c_
      +                          obj->i2c_cfg.i2c_mode_cfg;
  1141  0018DE  EE20 F004          	lfsr	2,4
  1142  0018E2  5005               	movf	I2C_Slave_Mode_Clock_Configurations@i2c_obj^0,w,c
  1143  0018E4  26D9               	addwf	fsr2l,f,c
  1144  0018E6  5006               	movf	(I2C_Slave_Mode_Clock_Configurations@i2c_obj+1)^0,w,c
  1145  0018E8  22DA               	addwfc	fsr2h,f,c
  1146  0018EA  50DF               	movf	indf2,w,c
  1147  0018EC  6E07               	movwf	??_I2C_Slave_Mode_Clock_Configurations^0,c
  1148  0018EE  50C6               	movf	198,w,c	;volatile
  1149  0018F0  1807               	xorwf	??_I2C_Slave_Mode_Clock_Configurations^0,w,c
  1150  0018F2  0BF0               	andlw	-16
  1151  0018F4  1807               	xorwf	??_I2C_Slave_Mode_Clock_Configurations^0,w,c
  1152  0018F6  6EC6               	movwf	198,c	;volatile
  1153  0018F8                     l692:
  1154  0018F8  0012               	return		;funcret
  1155  0018FA                     __end_of_I2C_Slave_Mode_Clock_Configurations:
  1156                           	callstack 0
  1157                           
  1158 ;; *************** function _I2C_Pin_Configurations *****************
  1159 ;; Defined at:
  1160 ;;		line 339 in file "MCAL/I2C/mcal_i2c.c"
  1161 ;; Parameters:    Size  Location     Type
  1162 ;;		None
  1163 ;; Auto vars:     Size  Location     Type
  1164 ;;		None
  1165 ;; Return value:  Size  Location     Type
  1166 ;;                  1    wreg      void 
  1167 ;; Registers used:
  1168 ;;		None
  1169 ;; Tracked objects:
  1170 ;;		On entry : 0/0
  1171 ;;		On exit  : 0/0
  1172 ;;		Unchanged: 0/0
  1173 ;; Data sizes:     COMRAM   BANK0   BANK1   BANK2   BANK3   BANK4   BANK5   BANK6   BANK7   BANK8   BANK9  BANK10  BANK1
      +1  BANK12  BANK13  BANK14  BANK15
  1174 ;;      Params:         0       0       0       0       0       0       0       0       0       0       0       0       
      +0       0       0       0       0
  1175 ;;      Locals:         0       0       0       0       0       0       0       0       0       0       0       0       
      +0       0       0       0       0
  1176 ;;      Temps:          0       0       0       0       0       0       0       0       0       0       0       0       
      +0       0       0       0       0
  1177 ;;      Totals:         0       0       0       0       0       0       0       0       0       0       0       0       
      +0       0       0       0       0
  1178 ;;Total ram usage:        0 bytes
  1179 ;; Hardware stack levels used:    1
  1180 ;; Hardware stack levels required when called:    4
  1181 ;; This function calls:
  1182 ;;		Nothing
  1183 ;; This function is called by:
  1184 ;;		_MSSP_I2C_Init
  1185 ;; This function uses a non-reentrant model
  1186 ;;
  1187                           
  1188                           	psect	text5
  1189  0019B2                     __ptext5:
  1190                           	callstack 0
  1191  0019B2                     _I2C_Pin_Configurations:
  1192                           	callstack 23
  1193  0019B2                     
  1194                           ;MCAL/I2C/mcal_i2c.c: 341:     TRISCbits.RC3=1;
  1195  0019B2  8694               	bsf	148,3,c	;volatile
  1196                           
  1197                           ;MCAL/I2C/mcal_i2c.c: 342:     TRISCbits.RC4=1;
  1198  0019B4  8894               	bsf	148,4,c	;volatile
  1199  0019B6  0012               	return		;funcret
  1200  0019B8                     __end_of_I2C_Pin_Configurations:
  1201                           	callstack 0
  1202                           
  1203 ;; *************** function _I2C_Master_Mode_Clock_Configurations *****************
  1204 ;; Defined at:
  1205 ;;		line 310 in file "MCAL/I2C/mcal_i2c.c"
  1206 ;; Parameters:    Size  Location     Type
  1207 ;;  i2c_obj         2   69[COMRAM] PTR const struct .
  1208 ;;		 -> i2c_obj(15), 
  1209 ;; Auto vars:     Size  Location     Type
  1210 ;;  ERRORSTATUS     1    0        unsigned char 
  1211 ;; Return value:  Size  Location     Type
  1212 ;;                  1    wreg      void 
  1213 ;; Registers used:
  1214 ;;		wreg, fsr2l, fsr2h, status,2, status,0, cstack
  1215 ;; Tracked objects:
  1216 ;;		On entry : 0/0
  1217 ;;		On exit  : 0/0
  1218 ;;		Unchanged: 0/0
  1219 ;; Data sizes:     COMRAM   BANK0   BANK1   BANK2   BANK3   BANK4   BANK5   BANK6   BANK7   BANK8   BANK9  BANK10  BANK1
      +1  BANK12  BANK13  BANK14  BANK15
  1220 ;;      Params:         2       0       0       0       0       0       0       0       0       0       0       0       
      +0       0       0       0       0
  1221 ;;      Locals:         1       0       0       0       0       0       0       0       0       0       0       0       
      +0       0       0       0       0
  1222 ;;      Temps:          1       0       0       0       0       0       0       0       0       0       0       0       
      +0       0       0       0       0
  1223 ;;      Totals:         4       0       0       0       0       0       0       0       0       0       0       0       
      +0       0       0       0       0
  1224 ;;Total ram usage:        4 bytes
  1225 ;; Hardware stack levels used:    1
  1226 ;; Hardware stack levels required when called:    5
  1227 ;; This function calls:
  1228 ;;		___fladd
  1229 ;;		___fldiv
  1230 ;;		___fltol
  1231 ;;		___xxtofl
  1232 ;; This function is called by:
  1233 ;;		_MSSP_I2C_Init
  1234 ;; This function uses a non-reentrant model
  1235 ;;
  1236                           
  1237                           	psect	text6
  1238  00162C                     __ptext6:
  1239                           	callstack 0
  1240  00162C                     _I2C_Master_Mode_Clock_Configurations:
  1241                           	callstack 22
  1242  00162C                     
  1243                           ;MCAL/I2C/mcal_i2c.c: 313:     if (((void*)0)==i2c_obj)
  1244  00162C  5046               	movf	I2C_Master_Mode_Clock_Configurations@i2c_obj^0,w,c
  1245  00162E  1047               	iorwf	(I2C_Master_Mode_Clock_Configurations@i2c_obj+1)^0,w,c
  1246  001630  A4D8               	btfss	status,2,c
  1247  001632  EF1D  F00B         	goto	u3491
  1248  001636  EF1F  F00B         	goto	u3490
  1249  00163A                     u3491:
  1250  00163A  EF21  F00B         	goto	l3442
  1251  00163E                     u3490:
  1252  00163E                     
  1253                           ;MCAL/I2C/mcal_i2c.c: 316:     }
  1254  00163E  EF6D  F00B         	goto	l687
  1255  001642                     l3442:
  1256                           
  1257                           ;MCAL/I2C/mcal_i2c.c: 318:     {;MCAL/I2C/mcal_i2c.c: 320:         SSPCON1bits.SSPM=i2c_
      +                          obj->i2c_cfg.i2c_mode_cfg;
  1258  001642  EE20 F004          	lfsr	2,4
  1259  001646  5046               	movf	I2C_Master_Mode_Clock_Configurations@i2c_obj^0,w,c
  1260  001648  26D9               	addwf	fsr2l,f,c
  1261  00164A  5047               	movf	(I2C_Master_Mode_Clock_Configurations@i2c_obj+1)^0,w,c
  1262  00164C  22DA               	addwfc	fsr2h,f,c
  1263  00164E  50DF               	movf	indf2,w,c
  1264  001650  6E48               	movwf	??_I2C_Master_Mode_Clock_Configurations^0,c
  1265  001652  50C6               	movf	198,w,c	;volatile
  1266  001654  1848               	xorwf	??_I2C_Master_Mode_Clock_Configurations^0,w,c
  1267  001656  0BF0               	andlw	-16
  1268  001658  1848               	xorwf	??_I2C_Master_Mode_Clock_Configurations^0,w,c
  1269  00165A  6EC6               	movwf	198,c	;volatile
  1270  00165C                     
  1271                           ;MCAL/I2C/mcal_i2c.c: 321:         SSPADD=(uint8)(((8000000/4.0)/i2c_obj->i2c_clock)-1);
  1272  00165C  0E00               	movlw	0
  1273  00165E  6E30               	movwf	___fladd@a^0,c
  1274  001660  0E00               	movlw	0
  1275  001662  6E31               	movwf	(___fladd@a+1)^0,c
  1276  001664  0E80               	movlw	128
  1277  001666  6E32               	movwf	(___fladd@a+2)^0,c
  1278  001668  0EBF               	movlw	191
  1279  00166A  6E33               	movwf	(___fladd@a+3)^0,c
  1280  00166C  C046  FFD9         	movff	I2C_Master_Mode_Clock_Configurations@i2c_obj,fsr2l
  1281  001670  C047  FFDA         	movff	I2C_Master_Mode_Clock_Configurations@i2c_obj+1,fsr2h
  1282  001674  CFDE F005          	movff	postinc2,___xxtofl@val
  1283  001678  CFDE F006          	movff	postinc2,___xxtofl@val+1
  1284  00167C  CFDE F007          	movff	postinc2,___xxtofl@val+2
  1285  001680  CFDE F008          	movff	postinc2,___xxtofl@val+3
  1286  001684  0E00               	movlw	0
  1287  001686  EC7F  F007         	call	___xxtofl
  1288  00168A  C005  F017         	movff	?___xxtofl,___fldiv@a
  1289  00168E  C006  F018         	movff	?___xxtofl+1,___fldiv@a+1
  1290  001692  C007  F019         	movff	?___xxtofl+2,___fldiv@a+2
  1291  001696  C008  F01A         	movff	?___xxtofl+3,___fldiv@a+3
  1292  00169A  0E00               	movlw	0
  1293  00169C  6E13               	movwf	___fldiv@b^0,c
  1294  00169E  0E24               	movlw	36
  1295  0016A0  6E14               	movwf	(___fldiv@b+1)^0,c
  1296  0016A2  0EF4               	movlw	244
  1297  0016A4  6E15               	movwf	(___fldiv@b+2)^0,c
  1298  0016A6  0E49               	movlw	73
  1299  0016A8  6E16               	movwf	(___fldiv@b+3)^0,c
  1300  0016AA  ECB2  F005         	call	___fldiv	;wreg free
  1301  0016AE  C013  F02C         	movff	?___fldiv,___fladd@b
  1302  0016B2  C014  F02D         	movff	?___fldiv+1,___fladd@b+1
  1303  0016B6  C015  F02E         	movff	?___fldiv+2,___fladd@b+2
  1304  0016BA  C016  F02F         	movff	?___fldiv+3,___fladd@b+3
  1305  0016BE  EC3D  F001         	call	___fladd	;wreg free
  1306  0016C2  C02C  F03C         	movff	?___fladd,___fltol@f1
  1307  0016C6  C02D  F03D         	movff	?___fladd+1,___fltol@f1+1
  1308  0016CA  C02E  F03E         	movff	?___fladd+2,___fltol@f1+2
  1309  0016CE  C02F  F03F         	movff	?___fladd+3,___fltol@f1+3
  1310  0016D2  ECFC  F008         	call	___fltol	;wreg free
  1311  0016D6  503C               	movf	?___fltol^0,w,c
  1312  0016D8  6EC8               	movwf	200,c	;volatile
  1313  0016DA                     l687:
  1314  0016DA  0012               	return		;funcret
  1315  0016DC                     __end_of_I2C_Master_Mode_Clock_Configurations:
  1316                           	callstack 0
  1317                           
  1318 ;; *************** function ___fldiv *****************
  1319 ;; Defined at:
  1320 ;;		line 11 in file "C:\Program Files\Microchip\xc8\v2.30\pic\sources\c99\common\sprcdiv.c"
  1321 ;; Parameters:    Size  Location     Type
  1322 ;;  b               4   18[COMRAM] void 
  1323 ;;  a               4   22[COMRAM] void 
  1324 ;; Auto vars:     Size  Location     Type
  1325 ;;  grs             4   37[COMRAM] unsigned long 
  1326 ;;  rem             4   30[COMRAM] unsigned long 
  1327 ;;  new_exp         2   35[COMRAM] short 
  1328 ;;  aexp            1   42[COMRAM] unsigned char 
  1329 ;;  bexp            1   41[COMRAM] unsigned char 
  1330 ;;  sign            1   34[COMRAM] unsigned char 
  1331 ;; Return value:  Size  Location     Type
  1332 ;;                  4   18[COMRAM] unsigned char 
  1333 ;; Registers used:
  1334 ;;		wreg, status,2, status,0
  1335 ;; Tracked objects:
  1336 ;;		On entry : 0/0
  1337 ;;		On exit  : 0/0
  1338 ;;		Unchanged: 0/0
  1339 ;; Data sizes:     COMRAM   BANK0   BANK1   BANK2   BANK3   BANK4   BANK5   BANK6   BANK7   BANK8   BANK9  BANK10  BANK1
      +1  BANK12  BANK13  BANK14  BANK15
  1340 ;;      Params:         8       0       0       0       0       0       0       0       0       0       0       0       
      +0       0       0       0       0
  1341 ;;      Locals:        13       0       0       0       0       0       0       0       0       0       0       0       
      +0       0       0       0       0
  1342 ;;      Temps:          4       0       0       0       0       0       0       0       0       0       0       0       
      +0       0       0       0       0
  1343 ;;      Totals:        25       0       0       0       0       0       0       0       0       0       0       0       
      +0       0       0       0       0
  1344 ;;Total ram usage:       25 bytes
  1345 ;; Hardware stack levels used:    1
  1346 ;; Hardware stack levels required when called:    4
  1347 ;; This function calls:
  1348 ;;		Nothing
  1349 ;; This function is called by:
  1350 ;;		_I2C_Master_Mode_Clock_Configurations
  1351 ;; This function uses a non-reentrant model
  1352 ;;
  1353                           
  1354                           	psect	text7
  1355  000B64                     __ptext7:
  1356                           	callstack 0
  1357  000B64                     ___fldiv:
  1358                           	callstack 22
  1359  000B64  5016               	movf	(___fldiv@b+3)^0,w,c
  1360  000B66  0B80               	andlw	128
  1361  000B68  6E23               	movwf	___fldiv@sign^0,c
  1362  000B6A  5016               	movf	(___fldiv@b+3)^0,w,c
  1363  000B6C  2416               	addwf	(___fldiv@b+3)^0,w,c
  1364  000B6E  6E2A               	movwf	___fldiv@bexp^0,c
  1365  000B70  AE15               	btfss	(___fldiv@b+2)^0,7,c
  1366  000B72  EFBD  F005         	goto	u3091
  1367  000B76  EFBF  F005         	goto	u3090
  1368  000B7A                     u3091:
  1369  000B7A  EFC0  F005         	goto	l3214
  1370  000B7E                     u3090:
  1371  000B7E  802A               	bsf	___fldiv@bexp^0,0,c
  1372  000B80                     l3214:
  1373  000B80  502A               	movf	___fldiv@bexp^0,w,c
  1374  000B82  B4D8               	btfsc	status,2,c
  1375  000B84  EFC6  F005         	goto	u3101
  1376  000B88  EFC8  F005         	goto	u3100
  1377  000B8C                     u3101:
  1378  000B8C  EFDD  F005         	goto	l3224
  1379  000B90                     u3100:
  1380  000B90  282A               	incf	___fldiv@bexp^0,w,c
  1381  000B92  A4D8               	btfss	status,2,c
  1382  000B94  EFCE  F005         	goto	u3111
  1383  000B98  EFD0  F005         	goto	u3110
  1384  000B9C                     u3111:
  1385  000B9C  EFD8  F005         	goto	l3220
  1386  000BA0                     u3110:
  1387  000BA0  0E00               	movlw	0
  1388  000BA2  6E13               	movwf	___fldiv@b^0,c
  1389  000BA4  0E00               	movlw	0
  1390  000BA6  6E14               	movwf	(___fldiv@b+1)^0,c
  1391  000BA8  0E00               	movlw	0
  1392  000BAA  6E15               	movwf	(___fldiv@b+2)^0,c
  1393  000BAC  0E00               	movlw	0
  1394  000BAE  6E16               	movwf	(___fldiv@b+3)^0,c
  1395  000BB0                     l3220:
  1396  000BB0  8E15               	bsf	(___fldiv@b+2)^0,7,c
  1397  000BB2  0E00               	movlw	0
  1398  000BB4  6E16               	movwf	(___fldiv@b+3)^0,c
  1399  000BB6  EFE5  F005         	goto	l3226
  1400  000BBA                     l3224:
  1401  000BBA  0E00               	movlw	0
  1402  000BBC  6E13               	movwf	___fldiv@b^0,c
  1403  000BBE  0E00               	movlw	0
  1404  000BC0  6E14               	movwf	(___fldiv@b+1)^0,c
  1405  000BC2  0E00               	movlw	0
  1406  000BC4  6E15               	movwf	(___fldiv@b+2)^0,c
  1407  000BC6  0E00               	movlw	0
  1408  000BC8  6E16               	movwf	(___fldiv@b+3)^0,c
  1409  000BCA                     l3226:
  1410  000BCA  501A               	movf	(___fldiv@a+3)^0,w,c
  1411  000BCC  0B80               	andlw	128
  1412  000BCE  1A23               	xorwf	___fldiv@sign^0,f,c
  1413  000BD0  501A               	movf	(___fldiv@a+3)^0,w,c
  1414  000BD2  241A               	addwf	(___fldiv@a+3)^0,w,c
  1415  000BD4  6E2B               	movwf	___fldiv@aexp^0,c
  1416  000BD6  AE19               	btfss	(___fldiv@a+2)^0,7,c
  1417  000BD8  EFF0  F005         	goto	u3121
  1418  000BDC  EFF2  F005         	goto	u3120
  1419  000BE0                     u3121:
  1420  000BE0  EFF3  F005         	goto	l3234
  1421  000BE4                     u3120:
  1422  000BE4  802B               	bsf	___fldiv@aexp^0,0,c
  1423  000BE6                     l3234:
  1424  000BE6  502B               	movf	___fldiv@aexp^0,w,c
  1425  000BE8  B4D8               	btfsc	status,2,c
  1426  000BEA  EFF9  F005         	goto	u3131
  1427  000BEE  EFFB  F005         	goto	u3130
  1428  000BF2                     u3131:
  1429  000BF2  EF10  F006         	goto	l3244
  1430  000BF6                     u3130:
  1431  000BF6  282B               	incf	___fldiv@aexp^0,w,c
  1432  000BF8  A4D8               	btfss	status,2,c
  1433  000BFA  EF01  F006         	goto	u3141
  1434  000BFE  EF03  F006         	goto	u3140
  1435  000C02                     u3141:
  1436  000C02  EF0B  F006         	goto	l3240
  1437  000C06                     u3140:
  1438  000C06  0E00               	movlw	0
  1439  000C08  6E17               	movwf	___fldiv@a^0,c
  1440  000C0A  0E00               	movlw	0
  1441  000C0C  6E18               	movwf	(___fldiv@a+1)^0,c
  1442  000C0E  0E00               	movlw	0
  1443  000C10  6E19               	movwf	(___fldiv@a+2)^0,c
  1444  000C12  0E00               	movlw	0
  1445  000C14  6E1A               	movwf	(___fldiv@a+3)^0,c
  1446  000C16                     l3240:
  1447  000C16  8E19               	bsf	(___fldiv@a+2)^0,7,c
  1448  000C18  0E00               	movlw	0
  1449  000C1A  6E1A               	movwf	(___fldiv@a+3)^0,c
  1450  000C1C  EF18  F006         	goto	l3246
  1451  000C20                     l3244:
  1452  000C20  0E00               	movlw	0
  1453  000C22  6E17               	movwf	___fldiv@a^0,c
  1454  000C24  0E00               	movlw	0
  1455  000C26  6E18               	movwf	(___fldiv@a+1)^0,c
  1456  000C28  0E00               	movlw	0
  1457  000C2A  6E19               	movwf	(___fldiv@a+2)^0,c
  1458  000C2C  0E00               	movlw	0
  1459  000C2E  6E1A               	movwf	(___fldiv@a+3)^0,c
  1460  000C30                     l3246:
  1461  000C30  5017               	movf	___fldiv@a^0,w,c
  1462  000C32  1018               	iorwf	(___fldiv@a+1)^0,w,c
  1463  000C34  1019               	iorwf	(___fldiv@a+2)^0,w,c
  1464  000C36  101A               	iorwf	(___fldiv@a+3)^0,w,c
  1465  000C38  A4D8               	btfss	status,2,c
  1466  000C3A  EF21  F006         	goto	u3151
  1467  000C3E  EF23  F006         	goto	u3150
  1468  000C42                     u3151:
  1469  000C42  EF3B  F006         	goto	l3258
  1470  000C46                     u3150:
  1471  000C46  0E00               	movlw	0
  1472  000C48  6E13               	movwf	___fldiv@b^0,c
  1473  000C4A  0E00               	movlw	0
  1474  000C4C  6E14               	movwf	(___fldiv@b+1)^0,c
  1475  000C4E  0E00               	movlw	0
  1476  000C50  6E15               	movwf	(___fldiv@b+2)^0,c
  1477  000C52  0E00               	movlw	0
  1478  000C54  6E16               	movwf	(___fldiv@b+3)^0,c
  1479  000C56  0E80               	movlw	128
  1480  000C58  1215               	iorwf	(___fldiv@b+2)^0,f,c
  1481  000C5A  0E7F               	movlw	127
  1482  000C5C  1216               	iorwf	(___fldiv@b+3)^0,f,c
  1483  000C5E                     l3252:
  1484  000C5E  5023               	movf	___fldiv@sign^0,w,c
  1485  000C60  1216               	iorwf	(___fldiv@b+3)^0,f,c
  1486  000C62  C013  F013         	movff	___fldiv@b,?___fldiv
  1487  000C66  C014  F014         	movff	___fldiv@b+1,?___fldiv+1
  1488  000C6A  C015  F015         	movff	___fldiv@b+2,?___fldiv+2
  1489  000C6E  C016  F016         	movff	___fldiv@b+3,?___fldiv+3
  1490  000C72  EF7E  F007         	goto	l1323
  1491  000C76                     l3258:
  1492  000C76  502A               	movf	___fldiv@bexp^0,w,c
  1493  000C78  A4D8               	btfss	status,2,c
  1494  000C7A  EF41  F006         	goto	u3161
  1495  000C7E  EF43  F006         	goto	u3160
  1496  000C82                     u3161:
  1497  000C82  EF4D  F006         	goto	l3266
  1498  000C86                     u3160:
  1499  000C86  0E00               	movlw	0
  1500  000C88  6E13               	movwf	?___fldiv^0,c
  1501  000C8A  0E00               	movlw	0
  1502  000C8C  6E14               	movwf	(?___fldiv+1)^0,c
  1503  000C8E  0E00               	movlw	0
  1504  000C90  6E15               	movwf	(?___fldiv+2)^0,c
  1505  000C92  0E00               	movlw	0
  1506  000C94  6E16               	movwf	(?___fldiv+3)^0,c
  1507  000C96  EF7E  F007         	goto	l1323
  1508  000C9A                     l3266:
  1509  000C9A  502B               	movf	___fldiv@aexp^0,w,c
  1510  000C9C  C02A  F01B         	movff	___fldiv@bexp,??___fldiv
  1511  000CA0  6A1C               	clrf	(??___fldiv+1)^0,c
  1512  000CA2  5E1B               	subwf	??___fldiv^0,f,c
  1513  000CA4  0E00               	movlw	0
  1514  000CA6  5A1C               	subwfb	(??___fldiv+1)^0,f,c
  1515  000CA8  0E7F               	movlw	127
  1516  000CAA  241B               	addwf	??___fldiv^0,w,c
  1517  000CAC  6E24               	movwf	___fldiv@new_exp^0,c
  1518  000CAE  0E00               	movlw	0
  1519  000CB0  201C               	addwfc	(??___fldiv+1)^0,w,c
  1520  000CB2  6E25               	movwf	(___fldiv@new_exp+1)^0,c
  1521  000CB4  C013  F01F         	movff	___fldiv@b,___fldiv@rem
  1522  000CB8  C014  F020         	movff	___fldiv@b+1,___fldiv@rem+1
  1523  000CBC  C015  F021         	movff	___fldiv@b+2,___fldiv@rem+2
  1524  000CC0  C016  F022         	movff	___fldiv@b+3,___fldiv@rem+3
  1525  000CC4  0E00               	movlw	0
  1526  000CC6  6E13               	movwf	___fldiv@b^0,c
  1527  000CC8  0E00               	movlw	0
  1528  000CCA  6E14               	movwf	(___fldiv@b+1)^0,c
  1529  000CCC  0E00               	movlw	0
  1530  000CCE  6E15               	movwf	(___fldiv@b+2)^0,c
  1531  000CD0  0E00               	movlw	0
  1532  000CD2  6E16               	movwf	(___fldiv@b+3)^0,c
  1533  000CD4  0E00               	movlw	0
  1534  000CD6  6E26               	movwf	___fldiv@grs^0,c
  1535  000CD8  0E00               	movlw	0
  1536  000CDA  6E27               	movwf	(___fldiv@grs+1)^0,c
  1537  000CDC  0E00               	movlw	0
  1538  000CDE  6E28               	movwf	(___fldiv@grs+2)^0,c
  1539  000CE0  0E00               	movlw	0
  1540  000CE2  6E29               	movwf	(___fldiv@grs+3)^0,c
  1541  000CE4  0E00               	movlw	0
  1542  000CE6  6E2B               	movwf	___fldiv@aexp^0,c
  1543  000CE8  EFAE  F006         	goto	l1325
  1544  000CEC                     l3276:
  1545  000CEC  502B               	movf	___fldiv@aexp^0,w,c
  1546  000CEE  B4D8               	btfsc	status,2,c
  1547  000CF0  EF7C  F006         	goto	u3171
  1548  000CF4  EF7E  F006         	goto	u3170
  1549  000CF8                     u3171:
  1550  000CF8  EF95  F006         	goto	l3284
  1551  000CFC                     u3170:
  1552  000CFC  90D8               	bcf	status,0,c
  1553  000CFE  361F               	rlcf	___fldiv@rem^0,f,c
  1554  000D00  3620               	rlcf	(___fldiv@rem+1)^0,f,c
  1555  000D02  3621               	rlcf	(___fldiv@rem+2)^0,f,c
  1556  000D04  3622               	rlcf	(___fldiv@rem+3)^0,f,c
  1557  000D06  90D8               	bcf	status,0,c
  1558  000D08  3613               	rlcf	___fldiv@b^0,f,c
  1559  000D0A  3614               	rlcf	(___fldiv@b+1)^0,f,c
  1560  000D0C  3615               	rlcf	(___fldiv@b+2)^0,f,c
  1561  000D0E  3616               	rlcf	(___fldiv@b+3)^0,f,c
  1562  000D10  AE29               	btfss	(___fldiv@grs+3)^0,7,c
  1563  000D12  EF8D  F006         	goto	u3181
  1564  000D16  EF8F  F006         	goto	u3180
  1565  000D1A                     u3181:
  1566  000D1A  EF90  F006         	goto	l1328
  1567  000D1E                     u3180:
  1568  000D1E  8013               	bsf	___fldiv@b^0,0,c
  1569  000D20                     l1328:
  1570  000D20  90D8               	bcf	status,0,c
  1571  000D22  3626               	rlcf	___fldiv@grs^0,f,c
  1572  000D24  3627               	rlcf	(___fldiv@grs+1)^0,f,c
  1573  000D26  3628               	rlcf	(___fldiv@grs+2)^0,f,c
  1574  000D28  3629               	rlcf	(___fldiv@grs+3)^0,f,c
  1575  000D2A                     l3284:
  1576  000D2A  5017               	movf	___fldiv@a^0,w,c
  1577  000D2C  5C1F               	subwf	___fldiv@rem^0,w,c
  1578  000D2E  5018               	movf	(___fldiv@a+1)^0,w,c
  1579  000D30  5820               	subwfb	(___fldiv@rem+1)^0,w,c
  1580  000D32  5019               	movf	(___fldiv@a+2)^0,w,c
  1581  000D34  5821               	subwfb	(___fldiv@rem+2)^0,w,c
  1582  000D36  501A               	movf	(___fldiv@a+3)^0,w,c
  1583  000D38  5822               	subwfb	(___fldiv@rem+3)^0,w,c
  1584  000D3A  A0D8               	btfss	status,0,c
  1585  000D3C  EFA2  F006         	goto	u3191
  1586  000D40  EFA4  F006         	goto	u3190
  1587  000D44                     u3191:
  1588  000D44  EFAD  F006         	goto	l3290
  1589  000D48                     u3190:
  1590  000D48  8C29               	bsf	(___fldiv@grs+3)^0,6,c
  1591  000D4A  5017               	movf	___fldiv@a^0,w,c
  1592  000D4C  5E1F               	subwf	___fldiv@rem^0,f,c
  1593  000D4E  5018               	movf	(___fldiv@a+1)^0,w,c
  1594  000D50  5A20               	subwfb	(___fldiv@rem+1)^0,f,c
  1595  000D52  5019               	movf	(___fldiv@a+2)^0,w,c
  1596  000D54  5A21               	subwfb	(___fldiv@rem+2)^0,f,c
  1597  000D56  501A               	movf	(___fldiv@a+3)^0,w,c
  1598  000D58  5A22               	subwfb	(___fldiv@rem+3)^0,f,c
  1599  000D5A                     l3290:
  1600  000D5A  2A2B               	incf	___fldiv@aexp^0,f,c
  1601  000D5C                     l1325:
  1602  000D5C  0E19               	movlw	25
  1603  000D5E  642B               	cpfsgt	___fldiv@aexp^0,c
  1604  000D60  EFB4  F006         	goto	u3201
  1605  000D64  EFB6  F006         	goto	u3200
  1606  000D68                     u3201:
  1607  000D68  EF76  F006         	goto	l3276
  1608  000D6C                     u3200:
  1609  000D6C  501F               	movf	___fldiv@rem^0,w,c
  1610  000D6E  1020               	iorwf	(___fldiv@rem+1)^0,w,c
  1611  000D70  1021               	iorwf	(___fldiv@rem+2)^0,w,c
  1612  000D72  1022               	iorwf	(___fldiv@rem+3)^0,w,c
  1613  000D74  B4D8               	btfsc	status,2,c
  1614  000D76  EFBF  F006         	goto	u3211
  1615  000D7A  EFC1  F006         	goto	u3210
  1616  000D7E                     u3211:
  1617  000D7E  EFD9  F006         	goto	l3302
  1618  000D82                     u3210:
  1619  000D82  8026               	bsf	___fldiv@grs^0,0,c
  1620  000D84  EFD9  F006         	goto	l3302
  1621  000D88                     l3296:
  1622  000D88  90D8               	bcf	status,0,c
  1623  000D8A  3613               	rlcf	___fldiv@b^0,f,c
  1624  000D8C  3614               	rlcf	(___fldiv@b+1)^0,f,c
  1625  000D8E  3615               	rlcf	(___fldiv@b+2)^0,f,c
  1626  000D90  3616               	rlcf	(___fldiv@b+3)^0,f,c
  1627  000D92  AE29               	btfss	(___fldiv@grs+3)^0,7,c
  1628  000D94  EFCE  F006         	goto	u3221
  1629  000D98  EFD0  F006         	goto	u3220
  1630  000D9C                     u3221:
  1631  000D9C  EFD1  F006         	goto	l1334
  1632  000DA0                     u3220:
  1633  000DA0  8013               	bsf	___fldiv@b^0,0,c
  1634  000DA2                     l1334:
  1635  000DA2  90D8               	bcf	status,0,c
  1636  000DA4  3626               	rlcf	___fldiv@grs^0,f,c
  1637  000DA6  3627               	rlcf	(___fldiv@grs+1)^0,f,c
  1638  000DA8  3628               	rlcf	(___fldiv@grs+2)^0,f,c
  1639  000DAA  3629               	rlcf	(___fldiv@grs+3)^0,f,c
  1640  000DAC  0624               	decf	___fldiv@new_exp^0,f,c
  1641  000DAE  A0D8               	btfss	status,0,c
  1642  000DB0  0625               	decf	(___fldiv@new_exp+1)^0,f,c
  1643  000DB2                     l3302:
  1644  000DB2  AE15               	btfss	(___fldiv@b+2)^0,7,c
  1645  000DB4  EFDE  F006         	goto	u3231
  1646  000DB8  EFE0  F006         	goto	u3230
  1647  000DBC                     u3231:
  1648  000DBC  EFC4  F006         	goto	l3296
  1649  000DC0                     u3230:
  1650  000DC0  0E00               	movlw	0
  1651  000DC2  6E2B               	movwf	___fldiv@aexp^0,c
  1652  000DC4  AE29               	btfss	(___fldiv@grs+3)^0,7,c
  1653  000DC6  EFE7  F006         	goto	u3241
  1654  000DCA  EFE9  F006         	goto	u3240
  1655  000DCE                     u3241:
  1656  000DCE  EF0D  F007         	goto	l1336
  1657  000DD2                     u3240:
  1658  000DD2  0EFF               	movlw	255
  1659  000DD4  1426               	andwf	___fldiv@grs^0,w,c
  1660  000DD6  6E1B               	movwf	??___fldiv^0,c
  1661  000DD8  0EFF               	movlw	255
  1662  000DDA  1427               	andwf	(___fldiv@grs+1)^0,w,c
  1663  000DDC  6E1C               	movwf	(??___fldiv+1)^0,c
  1664  000DDE  0EFF               	movlw	255
  1665  000DE0  1428               	andwf	(___fldiv@grs+2)^0,w,c
  1666  000DE2  6E1D               	movwf	(??___fldiv+2)^0,c
  1667  000DE4  0E7F               	movlw	127
  1668  000DE6  1429               	andwf	(___fldiv@grs+3)^0,w,c
  1669  000DE8  6E1E               	movwf	(??___fldiv+3)^0,c
  1670  000DEA  501B               	movf	??___fldiv^0,w,c
  1671  000DEC  101C               	iorwf	(??___fldiv+1)^0,w,c
  1672  000DEE  101D               	iorwf	(??___fldiv+2)^0,w,c
  1673  000DF0  101E               	iorwf	(??___fldiv+3)^0,w,c
  1674  000DF2  B4D8               	btfsc	status,2,c
  1675  000DF4  EFFE  F006         	goto	u3251
  1676  000DF8  EF00  F007         	goto	u3250
  1677  000DFC                     u3251:
  1678  000DFC  EF04  F007         	goto	l1337
  1679  000E00                     u3250:
  1680  000E00                     l3310:
  1681  000E00  0E01               	movlw	1
  1682  000E02  6E2B               	movwf	___fldiv@aexp^0,c
  1683  000E04  EF0D  F007         	goto	l1336
  1684  000E08                     l1337:
  1685  000E08  A013               	btfss	___fldiv@b^0,0,c
  1686  000E0A  EF09  F007         	goto	u3261
  1687  000E0E  EF0B  F007         	goto	u3260
  1688  000E12                     u3261:
  1689  000E12  EF0D  F007         	goto	l1336
  1690  000E16                     u3260:
  1691  000E16  EF00  F007         	goto	l3310
  1692  000E1A                     l1336:
  1693  000E1A  502B               	movf	___fldiv@aexp^0,w,c
  1694  000E1C  B4D8               	btfsc	status,2,c
  1695  000E1E  EF13  F007         	goto	u3271
  1696  000E22  EF15  F007         	goto	u3270
  1697  000E26                     u3271:
  1698  000E26  EF39  F007         	goto	l3322
  1699  000E2A                     u3270:
  1700  000E2A  0E01               	movlw	1
  1701  000E2C  2613               	addwf	___fldiv@b^0,f,c
  1702  000E2E  0E00               	movlw	0
  1703  000E30  2214               	addwfc	(___fldiv@b+1)^0,f,c
  1704  000E32  2215               	addwfc	(___fldiv@b+2)^0,f,c
  1705  000E34  2216               	addwfc	(___fldiv@b+3)^0,f,c
  1706  000E36  A016               	btfss	(___fldiv@b+3)^0,0,c
  1707  000E38  EF20  F007         	goto	u3281
  1708  000E3C  EF22  F007         	goto	u3280
  1709  000E40                     u3281:
  1710  000E40  EF39  F007         	goto	l3322
  1711  000E44                     u3280:
  1712  000E44  C013  F01B         	movff	___fldiv@b,??___fldiv
  1713  000E48  C014  F01C         	movff	___fldiv@b+1,??___fldiv+1
  1714  000E4C  C015  F01D         	movff	___fldiv@b+2,??___fldiv+2
  1715  000E50  C016  F01E         	movff	___fldiv@b+3,??___fldiv+3
  1716  000E54  341E               	rlcf	(??___fldiv+3)^0,w,c
  1717  000E56  321E               	rrcf	(??___fldiv+3)^0,f,c
  1718  000E58  321D               	rrcf	(??___fldiv+2)^0,f,c
  1719  000E5A  321C               	rrcf	(??___fldiv+1)^0,f,c
  1720  000E5C  321B               	rrcf	??___fldiv^0,f,c
  1721  000E5E  C01B  F013         	movff	??___fldiv,___fldiv@b
  1722  000E62  C01C  F014         	movff	??___fldiv+1,___fldiv@b+1
  1723  000E66  C01D  F015         	movff	??___fldiv+2,___fldiv@b+2
  1724  000E6A  C01E  F016         	movff	??___fldiv+3,___fldiv@b+3
  1725  000E6E  4A24               	infsnz	___fldiv@new_exp^0,f,c
  1726  000E70  2A25               	incf	(___fldiv@new_exp+1)^0,f,c
  1727  000E72                     l3322:
  1728  000E72  BE25               	btfsc	(___fldiv@new_exp+1)^0,7,c
  1729  000E74  EF44  F007         	goto	u3291
  1730  000E78  5025               	movf	(___fldiv@new_exp+1)^0,w,c
  1731  000E7A  E108               	bnz	u3290
  1732  000E7C  2824               	incf	___fldiv@new_exp^0,w,c
  1733  000E7E  A0D8               	btfss	status,0,c
  1734  000E80  EF44  F007         	goto	u3291
  1735  000E84  EF46  F007         	goto	u3290
  1736  000E88                     u3291:
  1737  000E88  EF51  F007         	goto	l3326
  1738  000E8C                     u3290:
  1739  000E8C  0E00               	movlw	0
  1740  000E8E  6E25               	movwf	(___fldiv@new_exp+1)^0,c
  1741  000E90  6824               	setf	___fldiv@new_exp^0,c
  1742  000E92  0E00               	movlw	0
  1743  000E94  6E13               	movwf	___fldiv@b^0,c
  1744  000E96  0E00               	movlw	0
  1745  000E98  6E14               	movwf	(___fldiv@b+1)^0,c
  1746  000E9A  0E00               	movlw	0
  1747  000E9C  6E15               	movwf	(___fldiv@b+2)^0,c
  1748  000E9E  0E00               	movlw	0
  1749  000EA0  6E16               	movwf	(___fldiv@b+3)^0,c
  1750  000EA2                     l3326:
  1751  000EA2  BE25               	btfsc	(___fldiv@new_exp+1)^0,7,c
  1752  000EA4  EF5E  F007         	goto	u3300
  1753  000EA8  5025               	movf	(___fldiv@new_exp+1)^0,w,c
  1754  000EAA  E106               	bnz	u3301
  1755  000EAC  0424               	decf	___fldiv@new_exp^0,w,c
  1756  000EAE  B0D8               	btfsc	status,0,c
  1757  000EB0  EF5C  F007         	goto	u3301
  1758  000EB4  EF5E  F007         	goto	u3300
  1759  000EB8                     u3301:
  1760  000EB8  EF6C  F007         	goto	l3330
  1761  000EBC                     u3300:
  1762  000EBC  0E00               	movlw	0
  1763  000EBE  6E25               	movwf	(___fldiv@new_exp+1)^0,c
  1764  000EC0  0E00               	movlw	0
  1765  000EC2  6E24               	movwf	___fldiv@new_exp^0,c
  1766  000EC4  0E00               	movlw	0
  1767  000EC6  6E13               	movwf	___fldiv@b^0,c
  1768  000EC8  0E00               	movlw	0
  1769  000ECA  6E14               	movwf	(___fldiv@b+1)^0,c
  1770  000ECC  0E00               	movlw	0
  1771  000ECE  6E15               	movwf	(___fldiv@b+2)^0,c
  1772  000ED0  0E00               	movlw	0
  1773  000ED2  6E16               	movwf	(___fldiv@b+3)^0,c
  1774  000ED4  0E00               	movlw	0
  1775  000ED6  6E23               	movwf	___fldiv@sign^0,c
  1776  000ED8                     l3330:
  1777  000ED8  C024  F02A         	movff	___fldiv@new_exp,___fldiv@bexp
  1778  000EDC  A02A               	btfss	___fldiv@bexp^0,0,c
  1779  000EDE  EF73  F007         	goto	u3311
  1780  000EE2  EF75  F007         	goto	u3310
  1781  000EE6                     u3311:
  1782  000EE6  EF78  F007         	goto	l3336
  1783  000EEA                     u3310:
  1784  000EEA  8E15               	bsf	(___fldiv@b+2)^0,7,c
  1785  000EEC  EF79  F007         	goto	l3338
  1786  000EF0                     l3336:
  1787  000EF0  9E15               	bcf	(___fldiv@b+2)^0,7,c
  1788  000EF2                     l3338:
  1789  000EF2  90D8               	bcf	status,0,c
  1790  000EF4  302A               	rrcf	___fldiv@bexp^0,w,c
  1791  000EF6  6E16               	movwf	(___fldiv@b+3)^0,c
  1792  000EF8  EF2F  F006         	goto	l3252
  1793  000EFC                     l1323:
  1794  000EFC  0012               	return		;funcret
  1795  000EFE                     __end_of___fldiv:
  1796                           	callstack 0
  1797                           
  1798 ;; *************** function _I2C_Interrupt_configuration *****************
  1799 ;; Defined at:
  1800 ;;		line 346 in file "MCAL/I2C/mcal_i2c.c"
  1801 ;; Parameters:    Size  Location     Type
  1802 ;;  i2c_obj         2    4[COMRAM] PTR const struct .
  1803 ;;		 -> i2c_obj(15), 
  1804 ;; Auto vars:     Size  Location     Type
  1805 ;;		None
  1806 ;; Return value:  Size  Location     Type
  1807 ;;                  1    wreg      void 
  1808 ;; Registers used:
  1809 ;;		wreg, fsr2l, fsr2h, status,2, status,0
  1810 ;; Tracked objects:
  1811 ;;		On entry : 0/0
  1812 ;;		On exit  : 0/0
  1813 ;;		Unchanged: 0/0
  1814 ;; Data sizes:     COMRAM   BANK0   BANK1   BANK2   BANK3   BANK4   BANK5   BANK6   BANK7   BANK8   BANK9  BANK10  BANK1
      +1  BANK12  BANK13  BANK14  BANK15
  1815 ;;      Params:         2       0       0       0       0       0       0       0       0       0       0       0       
      +0       0       0       0       0
  1816 ;;      Locals:         0       0       0       0       0       0       0       0       0       0       0       0       
      +0       0       0       0       0
  1817 ;;      Temps:          1       0       0       0       0       0       0       0       0       0       0       0       
      +0       0       0       0       0
  1818 ;;      Totals:         3       0       0       0       0       0       0       0       0       0       0       0       
      +0       0       0       0       0
  1819 ;;Total ram usage:        3 bytes
  1820 ;; Hardware stack levels used:    1
  1821 ;; Hardware stack levels required when called:    4
  1822 ;; This function calls:
  1823 ;;		Nothing
  1824 ;; This function is called by:
  1825 ;;		_MSSP_I2C_Init
  1826 ;; This function uses a non-reentrant model
  1827 ;;
  1828                           
  1829                           	psect	text8
  1830  0013D6                     __ptext8:
  1831                           	callstack 0
  1832  0013D6                     _I2C_Interrupt_configuration:
  1833                           	callstack 23
  1834  0013D6                     
  1835                           ;MCAL/I2C/mcal_i2c.c: 346: static void I2C_Interrupt_configuration(const mssp_i2c_st *i2
      +                          c_obj);MCAL/I2C/mcal_i2c.c: 347: {;MCAL/I2C/mcal_i2c.c: 349:        (PIE1bits.SSPIE = 0)
      +                          ;
  1836  0013D6  969D               	bcf	157,3,c	;volatile
  1837                           
  1838                           ;MCAL/I2C/mcal_i2c.c: 351:         (RCONbits.IPEN = 1 );
  1839  0013D8  8ED0               	bsf	208,7,c	;volatile
  1840                           
  1841                           ;MCAL/I2C/mcal_i2c.c: 352:         (INTCONbits.GIEH = 1);
  1842  0013DA  8EF2               	bsf	242,7,c	;volatile
  1843                           
  1844                           ;MCAL/I2C/mcal_i2c.c: 353:         (INTCONbits.GIEH = 0);
  1845  0013DC  9EF2               	bcf	242,7,c	;volatile
  1846  0013DE                     
  1847                           ;MCAL/I2C/mcal_i2c.c: 354:         if(INT_HIGH_PRI==i2c_obj->i2c_cfg.mssp_i2c_priority)
  1848  0013DE  EE20 F007          	lfsr	2,7
  1849  0013E2  5005               	movf	I2C_Interrupt_configuration@i2c_obj^0,w,c
  1850  0013E4  26D9               	addwf	fsr2l,f,c
  1851  0013E6  5006               	movf	(I2C_Interrupt_configuration@i2c_obj+1)^0,w,c
  1852  0013E8  22DA               	addwfc	fsr2h,f,c
  1853  0013EA  04DE               	decf	postinc2,w,c
  1854  0013EC  A4D8               	btfss	status,2,c
  1855  0013EE  EFFB  F009         	goto	u3511
  1856  0013F2  EFFD  F009         	goto	u3510
  1857  0013F6                     u3511:
  1858  0013F6  EF00  F00A         	goto	l3462
  1859  0013FA                     u3510:
  1860  0013FA                     
  1861                           ;MCAL/I2C/mcal_i2c.c: 355:         {;MCAL/I2C/mcal_i2c.c: 356:             (IPR1bits.SSP
      +                          IP = 1);
  1862  0013FA  869F               	bsf	159,3,c	;volatile
  1863                           
  1864                           ;MCAL/I2C/mcal_i2c.c: 357:         }
  1865  0013FC  EF0F  F00A         	goto	l699
  1866  001400                     l3462:
  1867  001400  EE20 F007          	lfsr	2,7
  1868  001404  5005               	movf	I2C_Interrupt_configuration@i2c_obj^0,w,c
  1869  001406  26D9               	addwf	fsr2l,f,c
  1870  001408  5006               	movf	(I2C_Interrupt_configuration@i2c_obj+1)^0,w,c
  1871  00140A  22DA               	addwfc	fsr2h,f,c
  1872  00140C  50DF               	movf	indf2,w,c
  1873  00140E  A4D8               	btfss	status,2,c
  1874  001410  EF0C  F00A         	goto	u3521
  1875  001414  EF0E  F00A         	goto	u3520
  1876  001418                     u3521:
  1877  001418  EF0F  F00A         	goto	l699
  1878  00141C                     u3520:
  1879  00141C                     
  1880                           ;MCAL/I2C/mcal_i2c.c: 359:             {;MCAL/I2C/mcal_i2c.c: 360:                 (IPR1
      +                          bits.SSPIP = 0);
  1881  00141C  969F               	bcf	159,3,c	;volatile
  1882  00141E                     l699:
  1883                           
  1884                           ;MCAL/I2C/mcal_i2c.c: 369:         (PIR1bits.SSPIF = 0);
  1885  00141E  969E               	bcf	158,3,c	;volatile
  1886                           
  1887                           ;MCAL/I2C/mcal_i2c.c: 370:         (PIE1bits.SSPIE = 1);
  1888  001420  869D               	bsf	157,3,c	;volatile
  1889  001422                     
  1890                           ;MCAL/I2C/mcal_i2c.c: 372:         I2C_DefaultInterruptHandler=i2c_obj->I2C_DefaultInter
      +                          ruptHandler;
  1891  001422  EE20 F00B          	lfsr	2,11
  1892  001426  5005               	movf	I2C_Interrupt_configuration@i2c_obj^0,w,c
  1893  001428  26D9               	addwf	fsr2l,f,c
  1894  00142A  5006               	movf	(I2C_Interrupt_configuration@i2c_obj+1)^0,w,c
  1895  00142C  22DA               	addwfc	fsr2h,f,c
  1896  00142E  CFDE F058          	movff	postinc2,_I2C_DefaultInterruptHandler
  1897  001432  CFDD F059          	movff	postdec2,_I2C_DefaultInterruptHandler+1
  1898                           
  1899                           ;MCAL/I2C/mcal_i2c.c: 373:         I2C_Report_Receive_Overflow =i2c_obj->I2C_Report_Rece
      +                          ive_Overflow;
  1900  001436  EE20 F00D          	lfsr	2,13
  1901  00143A  5005               	movf	I2C_Interrupt_configuration@i2c_obj^0,w,c
  1902  00143C  26D9               	addwf	fsr2l,f,c
  1903  00143E  5006               	movf	(I2C_Interrupt_configuration@i2c_obj+1)^0,w,c
  1904  001440  22DA               	addwfc	fsr2h,f,c
  1905  001442  CFDE F056          	movff	postinc2,_I2C_Report_Receive_Overflow
  1906  001446  CFDD F057          	movff	postdec2,_I2C_Report_Receive_Overflow+1
  1907  00144A                     
  1908                           ;MCAL/I2C/mcal_i2c.c: 379:        (PIE2bits.BCLIE = 0);
  1909  00144A  96A0               	bcf	160,3,c	;volatile
  1910  00144C                     
  1911                           ;MCAL/I2C/mcal_i2c.c: 382:         (RCONbits.IPEN = 1 );
  1912  00144C  8ED0               	bsf	208,7,c	;volatile
  1913  00144E                     
  1914                           ;MCAL/I2C/mcal_i2c.c: 383:         (INTCONbits.GIEH = 1);
  1915  00144E  8EF2               	bsf	242,7,c	;volatile
  1916  001450                     
  1917                           ;MCAL/I2C/mcal_i2c.c: 384:         (INTCONbits.GIEH = 0);
  1918  001450  9EF2               	bcf	242,7,c	;volatile
  1919                           
  1920                           ;MCAL/I2C/mcal_i2c.c: 385:         if(INT_HIGH_PRI==i2c_obj->i2c_cfg.mssp_i2c_bc_priorit
      +                          y)
  1921  001452  EE20 F008          	lfsr	2,8
  1922  001456  5005               	movf	I2C_Interrupt_configuration@i2c_obj^0,w,c
  1923  001458  26D9               	addwf	fsr2l,f,c
  1924  00145A  5006               	movf	(I2C_Interrupt_configuration@i2c_obj+1)^0,w,c
  1925  00145C  22DA               	addwfc	fsr2h,f,c
  1926  00145E  04DE               	decf	postinc2,w,c
  1927  001460  A4D8               	btfss	status,2,c
  1928  001462  EF35  F00A         	goto	u3531
  1929  001466  EF37  F00A         	goto	u3530
  1930  00146A                     u3531:
  1931  00146A  EF3A  F00A         	goto	l3478
  1932  00146E                     u3530:
  1933  00146E                     
  1934                           ;MCAL/I2C/mcal_i2c.c: 386:         {;MCAL/I2C/mcal_i2c.c: 387:             (IPR2bits.BCL
      +                          IP = 1);
  1935  00146E  86A2               	bsf	162,3,c	;volatile
  1936                           
  1937                           ;MCAL/I2C/mcal_i2c.c: 388:         }
  1938  001470  EF49  F00A         	goto	l703
  1939  001474                     l3478:
  1940  001474  EE20 F008          	lfsr	2,8
  1941  001478  5005               	movf	I2C_Interrupt_configuration@i2c_obj^0,w,c
  1942  00147A  26D9               	addwf	fsr2l,f,c
  1943  00147C  5006               	movf	(I2C_Interrupt_configuration@i2c_obj+1)^0,w,c
  1944  00147E  22DA               	addwfc	fsr2h,f,c
  1945  001480  50DF               	movf	indf2,w,c
  1946  001482  A4D8               	btfss	status,2,c
  1947  001484  EF46  F00A         	goto	u3541
  1948  001488  EF48  F00A         	goto	u3540
  1949  00148C                     u3541:
  1950  00148C  EF49  F00A         	goto	l703
  1951  001490                     u3540:
  1952  001490                     
  1953                           ;MCAL/I2C/mcal_i2c.c: 390:         {;MCAL/I2C/mcal_i2c.c: 391:             (IPR2bits.BCL
      +                          IP = 0);
  1954  001490  96A2               	bcf	162,3,c	;volatile
  1955  001492                     l703:
  1956                           
  1957                           ;MCAL/I2C/mcal_i2c.c: 399:         (PIR2bits.BCLIF = 0);
  1958  001492  96A1               	bcf	161,3,c	;volatile
  1959                           
  1960                           ;MCAL/I2C/mcal_i2c.c: 400:         (PIE2bits.BCLIE = 1);
  1961  001494  86A0               	bsf	160,3,c	;volatile
  1962  001496                     
  1963                           ;MCAL/I2C/mcal_i2c.c: 402:         I2C_Report_Write_Collision=i2c_obj->I2C_Report_Write_
      +                          Collision;
  1964  001496  EE20 F009          	lfsr	2,9
  1965  00149A  5005               	movf	I2C_Interrupt_configuration@i2c_obj^0,w,c
  1966  00149C  26D9               	addwf	fsr2l,f,c
  1967  00149E  5006               	movf	(I2C_Interrupt_configuration@i2c_obj+1)^0,w,c
  1968  0014A0  22DA               	addwfc	fsr2h,f,c
  1969  0014A2  CFDE F054          	movff	postinc2,_I2C_Report_Write_Collision
  1970  0014A6  CFDD F055          	movff	postdec2,_I2C_Report_Write_Collision+1
  1971  0014AA  0012               	return		;funcret
  1972  0014AC                     __end_of_I2C_Interrupt_configuration:
  1973                           	callstack 0
  1974                           
  1975 ;; *************** function _Servo_SetAngle *****************
  1976 ;; Defined at:
  1977 ;;		line 43 in file "ECU/SERVO_MOTOR_CONTROL_BY_I2C/ecu_servo_motor_i2c.c"
  1978 ;; Parameters:    Size  Location     Type
  1979 ;;  i2c_obj         2   69[COMRAM] PTR const struct .
  1980 ;;		 -> i2c_obj(15), 
  1981 ;;  servo_driver    2   71[COMRAM] PTR const struct .
  1982 ;;		 -> s1_obj(4), 
  1983 ;;  servo_no        1   73[COMRAM] const enum E3073
  1984 ;;  angle           1   74[COMRAM] const unsigned char 
  1985 ;; Auto vars:     Size  Location     Type
  1986 ;;  angle_in_reg    2   76[COMRAM] unsigned short 
  1987 ;;  reg_addrees     1   78[COMRAM] unsigned char 
  1988 ;;  ERRORSTATUS     1    0        unsigned char 
  1989 ;; Return value:  Size  Location     Type
  1990 ;;                  1    wreg      unsigned char 
  1991 ;; Registers used:
  1992 ;;		wreg, fsr2l, fsr2h, status,2, status,0, prodl, prodh, cstack
  1993 ;; Tracked objects:
  1994 ;;		On entry : 0/0
  1995 ;;		On exit  : 0/0
  1996 ;;		Unchanged: 0/0
  1997 ;; Data sizes:     COMRAM   BANK0   BANK1   BANK2   BANK3   BANK4   BANK5   BANK6   BANK7   BANK8   BANK9  BANK10  BANK1
      +1  BANK12  BANK13  BANK14  BANK15
  1998 ;;      Params:         6       0       0       0       0       0       0       0       0       0       0       0       
      +0       0       0       0       0
  1999 ;;      Locals:         4       0       0       0       0       0       0       0       0       0       0       0       
      +0       0       0       0       0
  2000 ;;      Temps:          0       0       0       0       0       0       0       0       0       0       0       0       
      +0       0       0       0       0
  2001 ;;      Totals:        10       0       0       0       0       0       0       0       0       0       0       0       
      +0       0       0       0       0
  2002 ;;Total ram usage:       10 bytes
  2003 ;; Hardware stack levels used:    1
  2004 ;; Hardware stack levels required when called:    6
  2005 ;; This function calls:
  2006 ;;		_PCA_Write_Reg
  2007 ;;		___fladd
  2008 ;;		___flmul
  2009 ;;		___fltol
  2010 ;;		___xxtofl
  2011 ;; This function is called by:
  2012 ;;		_main
  2013 ;; This function uses a non-reentrant model
  2014 ;;
  2015                           
  2016                           	psect	text9
  2017  0012FE                     __ptext9:
  2018                           	callstack 0
  2019  0012FE                     _Servo_SetAngle:
  2020                           	callstack 24
  2021  0012FE                     
  2022                           ;ECU/SERVO_MOTOR_CONTROL_BY_I2C/ecu_servo_motor_i2c.c: 46:     if (((void*)0)==i2c_obj)
  2023  0012FE  5046               	movf	Servo_SetAngle@i2c_obj^0,w,c
  2024  001300  1047               	iorwf	(Servo_SetAngle@i2c_obj+1)^0,w,c
  2025  001302  A4D8               	btfss	status,2,c
  2026  001304  EF86  F009         	goto	u4051
  2027  001308  EF88  F009         	goto	u4050
  2028  00130C                     u4051:
  2029  00130C  EF8A  F009         	goto	l3780
  2030  001310                     u4050:
  2031  001310                     
  2032                           ;ECU/SERVO_MOTOR_CONTROL_BY_I2C/ecu_servo_motor_i2c.c: 49:     }
  2033  001310  EFEA  F009         	goto	l735
  2034  001314                     l3780:
  2035                           
  2036                           ;ECU/SERVO_MOTOR_CONTROL_BY_I2C/ecu_servo_motor_i2c.c: 51:     {;ECU/SERVO_MOTOR_CONTROL
      +                          _BY_I2C/ecu_servo_motor_i2c.c: 52:         uint8 reg_addrees=6+(servo_no*4)+2;
  2037  001314  504A               	movf	Servo_SetAngle@servo_no^0,w,c
  2038  001316  0D04               	mullw	4
  2039  001318  50F3               	movf	243,w,c
  2040  00131A  0F08               	addlw	8
  2041  00131C  6E4F               	movwf	Servo_SetAngle@reg_addrees^0,c
  2042  00131E                     
  2043                           ;ECU/SERVO_MOTOR_CONTROL_BY_I2C/ecu_servo_motor_i2c.c: 53:         uint16 angle_in_reg=(
      +                          uint16)(angle*1.14+205);
  2044  00131E  0E00               	movlw	0
  2045  001320  6E30               	movwf	___fladd@a^0,c
  2046  001322  0E00               	movlw	0
  2047  001324  6E31               	movwf	(___fladd@a+1)^0,c
  2048  001326  0E4D               	movlw	77
  2049  001328  6E32               	movwf	(___fladd@a+2)^0,c
  2050  00132A  0E43               	movlw	67
  2051  00132C  6E33               	movwf	(___fladd@a+3)^0,c
  2052  00132E  0E85               	movlw	133
  2053  001330  6E17               	movwf	___flmul@a^0,c
  2054  001332  0EEB               	movlw	235
  2055  001334  6E18               	movwf	(___flmul@a+1)^0,c
  2056  001336  0E91               	movlw	145
  2057  001338  6E19               	movwf	(___flmul@a+2)^0,c
  2058  00133A  0E3F               	movlw	63
  2059  00133C  6E1A               	movwf	(___flmul@a+3)^0,c
  2060  00133E  504B               	movf	Servo_SetAngle@angle^0,w,c
  2061  001340  6E05               	movwf	___xxtofl@val^0,c
  2062  001342  6A06               	clrf	(___xxtofl@val+1)^0,c
  2063  001344  6A07               	clrf	(___xxtofl@val+2)^0,c
  2064  001346  6A08               	clrf	(___xxtofl@val+3)^0,c
  2065  001348  0E01               	movlw	1
  2066  00134A  EC7F  F007         	call	___xxtofl
  2067  00134E  C005  F013         	movff	?___xxtofl,___flmul@b
  2068  001352  C006  F014         	movff	?___xxtofl+1,___flmul@b+1
  2069  001356  C007  F015         	movff	?___xxtofl+2,___flmul@b+2
  2070  00135A  C008  F016         	movff	?___xxtofl+3,___flmul@b+3
  2071  00135E  EC9D  F003         	call	___flmul	;wreg free
  2072  001362  C013  F02C         	movff	?___flmul,___fladd@b
  2073  001366  C014  F02D         	movff	?___flmul+1,___fladd@b+1
  2074  00136A  C015  F02E         	movff	?___flmul+2,___fladd@b+2
  2075  00136E  C016  F02F         	movff	?___flmul+3,___fladd@b+3
  2076  001372  EC3D  F001         	call	___fladd	;wreg free
  2077  001376  C02C  F03C         	movff	?___fladd,___fltol@f1
  2078  00137A  C02D  F03D         	movff	?___fladd+1,___fltol@f1+1
  2079  00137E  C02E  F03E         	movff	?___fladd+2,___fltol@f1+2
  2080  001382  C02F  F03F         	movff	?___fladd+3,___fltol@f1+3
  2081  001386  ECFC  F008         	call	___fltol	;wreg free
  2082  00138A  C03C  F04D         	movff	?___fltol,Servo_SetAngle@angle_in_reg
  2083  00138E  C03D  F04E         	movff	?___fltol+1,Servo_SetAngle@angle_in_reg+1
  2084  001392                     
  2085                           ;ECU/SERVO_MOTOR_CONTROL_BY_I2C/ecu_servo_motor_i2c.c: 58:         PCA_Write_Reg(i2c_obj
      +                          ,servo_driver_obj->slave_address,reg_addrees,((uint8)angle_in_reg));
  2086  001392  C046  F00B         	movff	Servo_SetAngle@i2c_obj,PCA_Write_Reg@i2c_obj
  2087  001396  C047  F00C         	movff	Servo_SetAngle@i2c_obj+1,PCA_Write_Reg@i2c_obj+1
  2088  00139A  C048  FFD9         	movff	Servo_SetAngle@servo_driver_obj,fsr2l
  2089  00139E  C049  FFDA         	movff	Servo_SetAngle@servo_driver_obj+1,fsr2h
  2090  0013A2  50DF               	movf	indf2,w,c
  2091  0013A4  6E0D               	movwf	PCA_Write_Reg@slave_address^0,c
  2092  0013A6  C04F  F00E         	movff	Servo_SetAngle@reg_addrees,PCA_Write_Reg@reg_address
  2093  0013AA  C04D  F00F         	movff	Servo_SetAngle@angle_in_reg,PCA_Write_Reg@data
  2094  0013AE  ECA2  F00B         	call	_PCA_Write_Reg	;wreg free
  2095  0013B2                     
  2096                           ;ECU/SERVO_MOTOR_CONTROL_BY_I2C/ecu_servo_motor_i2c.c: 59:         reg_addrees++;
  2097  0013B2  2A4F               	incf	Servo_SetAngle@reg_addrees^0,f,c
  2098  0013B4                     
  2099                           ;ECU/SERVO_MOTOR_CONTROL_BY_I2C/ecu_servo_motor_i2c.c: 60:         PCA_Write_Reg(i2c_obj
      +                          ,servo_driver_obj->slave_address,reg_addrees,((uint8)(angle_in_reg>>8)));
  2100  0013B4  C046  F00B         	movff	Servo_SetAngle@i2c_obj,PCA_Write_Reg@i2c_obj
  2101  0013B8  C047  F00C         	movff	Servo_SetAngle@i2c_obj+1,PCA_Write_Reg@i2c_obj+1
  2102  0013BC  C048  FFD9         	movff	Servo_SetAngle@servo_driver_obj,fsr2l
  2103  0013C0  C049  FFDA         	movff	Servo_SetAngle@servo_driver_obj+1,fsr2h
  2104  0013C4  50DF               	movf	indf2,w,c
  2105  0013C6  6E0D               	movwf	PCA_Write_Reg@slave_address^0,c
  2106  0013C8  C04F  F00E         	movff	Servo_SetAngle@reg_addrees,PCA_Write_Reg@reg_address
  2107  0013CC  504E               	movf	(Servo_SetAngle@angle_in_reg+1)^0,w,c
  2108  0013CE  6E0F               	movwf	PCA_Write_Reg@data^0,c
  2109  0013D0  ECA2  F00B         	call	_PCA_Write_Reg	;wreg free
  2110  0013D4                     l735:
  2111  0013D4  0012               	return		;funcret
  2112  0013D6                     __end_of_Servo_SetAngle:
  2113                           	callstack 0
  2114                           
  2115 ;; *************** function ___xxtofl *****************
  2116 ;; Defined at:
  2117 ;;		line 10 in file "C:\Program Files\Microchip\xc8\v2.30\pic\sources\c99\common\xxtofl.c"
  2118 ;; Parameters:    Size  Location     Type
  2119 ;;  sign            1    wreg     unsigned char 
  2120 ;;  val             4    4[COMRAM] long 
  2121 ;; Auto vars:     Size  Location     Type
  2122 ;;  sign            1   12[COMRAM] unsigned char 
  2123 ;;  arg             4   14[COMRAM] unsigned long 
  2124 ;;  exp             1   13[COMRAM] unsigned char 
  2125 ;; Return value:  Size  Location     Type
  2126 ;;                  4    4[COMRAM] unsigned char 
  2127 ;; Registers used:
  2128 ;;		wreg, status,2, status,0
  2129 ;; Tracked objects:
  2130 ;;		On entry : 0/0
  2131 ;;		On exit  : 0/0
  2132 ;;		Unchanged: 0/0
  2133 ;; Data sizes:     COMRAM   BANK0   BANK1   BANK2   BANK3   BANK4   BANK5   BANK6   BANK7   BANK8   BANK9  BANK10  BANK1
      +1  BANK12  BANK13  BANK14  BANK15
  2134 ;;      Params:         4       0       0       0       0       0       0       0       0       0       0       0       
      +0       0       0       0       0
  2135 ;;      Locals:         6       0       0       0       0       0       0       0       0       0       0       0       
      +0       0       0       0       0
  2136 ;;      Temps:          4       0       0       0       0       0       0       0       0       0       0       0       
      +0       0       0       0       0
  2137 ;;      Totals:        14       0       0       0       0       0       0       0       0       0       0       0       
      +0       0       0       0       0
  2138 ;;Total ram usage:       14 bytes
  2139 ;; Hardware stack levels used:    1
  2140 ;; Hardware stack levels required when called:    4
  2141 ;; This function calls:
  2142 ;;		Nothing
  2143 ;; This function is called by:
  2144 ;;		_I2C_Master_Mode_Clock_Configurations
  2145 ;;		_Servo_SetAngle
  2146 ;; This function uses a non-reentrant model
  2147 ;;
  2148                           
  2149                           	psect	text10
  2150  000EFE                     __ptext10:
  2151                           	callstack 0
  2152  000EFE                     ___xxtofl:
  2153                           	callstack 22
  2154                           
  2155                           ;incstack = 0
  2156                           ;___xxtofl@sign stored from wreg
  2157  000EFE  6E0D               	movwf	___xxtofl@sign^0,c
  2158  000F00  500D               	movf	___xxtofl@sign^0,w,c
  2159  000F02  B4D8               	btfsc	status,2,c
  2160  000F04  EF86  F007         	goto	u3391
  2161  000F08  EF88  F007         	goto	u3390
  2162  000F0C                     u3391:
  2163  000F0C  EFAA  F007         	goto	l1396
  2164  000F10                     u3390:
  2165  000F10  BE08               	btfsc	(___xxtofl@val+3)^0,7,c
  2166  000F12  EF8F  F007         	goto	u3400
  2167  000F16  EF8D  F007         	goto	u3401
  2168  000F1A                     u3401:
  2169  000F1A  EFAA  F007         	goto	l1396
  2170  000F1E                     u3400:
  2171  000F1E  C005  F009         	movff	___xxtofl@val,??___xxtofl
  2172  000F22  C006  F00A         	movff	___xxtofl@val+1,??___xxtofl+1
  2173  000F26  C007  F00B         	movff	___xxtofl@val+2,??___xxtofl+2
  2174  000F2A  C008  F00C         	movff	___xxtofl@val+3,??___xxtofl+3
  2175  000F2E  1E09               	comf	??___xxtofl^0,f,c
  2176  000F30  1E0A               	comf	(??___xxtofl+1)^0,f,c
  2177  000F32  1E0B               	comf	(??___xxtofl+2)^0,f,c
  2178  000F34  1E0C               	comf	(??___xxtofl+3)^0,f,c
  2179  000F36  2A09               	incf	??___xxtofl^0,f,c
  2180  000F38  0E00               	movlw	0
  2181  000F3A  220A               	addwfc	(??___xxtofl+1)^0,f,c
  2182  000F3C  220B               	addwfc	(??___xxtofl+2)^0,f,c
  2183  000F3E  220C               	addwfc	(??___xxtofl+3)^0,f,c
  2184  000F40  C009  F00F         	movff	??___xxtofl,___xxtofl@arg
  2185  000F44  C00A  F010         	movff	??___xxtofl+1,___xxtofl@arg+1
  2186  000F48  C00B  F011         	movff	??___xxtofl+2,___xxtofl@arg+2
  2187  000F4C  C00C  F012         	movff	??___xxtofl+3,___xxtofl@arg+3
  2188  000F50  EFB2  F007         	goto	l3396
  2189  000F54                     l1396:
  2190  000F54  C005  F00F         	movff	___xxtofl@val,___xxtofl@arg
  2191  000F58  C006  F010         	movff	___xxtofl@val+1,___xxtofl@arg+1
  2192  000F5C  C007  F011         	movff	___xxtofl@val+2,___xxtofl@arg+2
  2193  000F60  C008  F012         	movff	___xxtofl@val+3,___xxtofl@arg+3
  2194  000F64                     l3396:
  2195  000F64  5005               	movf	___xxtofl@val^0,w,c
  2196  000F66  1006               	iorwf	(___xxtofl@val+1)^0,w,c
  2197  000F68  1007               	iorwf	(___xxtofl@val+2)^0,w,c
  2198  000F6A  1008               	iorwf	(___xxtofl@val+3)^0,w,c
  2199  000F6C  A4D8               	btfss	status,2,c
  2200  000F6E  EFBB  F007         	goto	u3411
  2201  000F72  EFBD  F007         	goto	u3410
  2202  000F76                     u3411:
  2203  000F76  EFC7  F007         	goto	l3402
  2204  000F7A                     u3410:
  2205  000F7A  0E00               	movlw	0
  2206  000F7C  6E05               	movwf	?___xxtofl^0,c
  2207  000F7E  0E00               	movlw	0
  2208  000F80  6E06               	movwf	(?___xxtofl+1)^0,c
  2209  000F82  0E00               	movlw	0
  2210  000F84  6E07               	movwf	(?___xxtofl+2)^0,c
  2211  000F86  0E00               	movlw	0
  2212  000F88  6E08               	movwf	(?___xxtofl+3)^0,c
  2213  000F8A  EF58  F008         	goto	l1399
  2214  000F8E                     l3402:
  2215  000F8E  0E96               	movlw	150
  2216  000F90  6E0E               	movwf	___xxtofl@exp^0,c
  2217  000F92  EFD1  F007         	goto	l3406
  2218  000F96                     l3404:
  2219  000F96  2A0E               	incf	___xxtofl@exp^0,f,c
  2220  000F98  90D8               	bcf	status,0,c
  2221  000F9A  3212               	rrcf	(___xxtofl@arg+3)^0,f,c
  2222  000F9C  3211               	rrcf	(___xxtofl@arg+2)^0,f,c
  2223  000F9E  3210               	rrcf	(___xxtofl@arg+1)^0,f,c
  2224  000FA0  320F               	rrcf	___xxtofl@arg^0,f,c
  2225  000FA2                     l3406:
  2226  000FA2  0E00               	movlw	0
  2227  000FA4  140F               	andwf	___xxtofl@arg^0,w,c
  2228  000FA6  6E09               	movwf	??___xxtofl^0,c
  2229  000FA8  0E00               	movlw	0
  2230  000FAA  1410               	andwf	(___xxtofl@arg+1)^0,w,c
  2231  000FAC  6E0A               	movwf	(??___xxtofl+1)^0,c
  2232  000FAE  0E00               	movlw	0
  2233  000FB0  1411               	andwf	(___xxtofl@arg+2)^0,w,c
  2234  000FB2  6E0B               	movwf	(??___xxtofl+2)^0,c
  2235  000FB4  0EFE               	movlw	254
  2236  000FB6  1412               	andwf	(___xxtofl@arg+3)^0,w,c
  2237  000FB8  6E0C               	movwf	(??___xxtofl+3)^0,c
  2238  000FBA  5009               	movf	??___xxtofl^0,w,c
  2239  000FBC  100A               	iorwf	(??___xxtofl+1)^0,w,c
  2240  000FBE  100B               	iorwf	(??___xxtofl+2)^0,w,c
  2241  000FC0  100C               	iorwf	(??___xxtofl+3)^0,w,c
  2242  000FC2  A4D8               	btfss	status,2,c
  2243  000FC4  EFE6  F007         	goto	u3421
  2244  000FC8  EFE8  F007         	goto	u3420
  2245  000FCC                     u3421:
  2246  000FCC  EFCB  F007         	goto	l3404
  2247  000FD0                     u3420:
  2248  000FD0  EFF6  F007         	goto	l1403
  2249  000FD4                     l3408:
  2250  000FD4  2A0E               	incf	___xxtofl@exp^0,f,c
  2251  000FD6  0E01               	movlw	1
  2252  000FD8  260F               	addwf	___xxtofl@arg^0,f,c
  2253  000FDA  0E00               	movlw	0
  2254  000FDC  2210               	addwfc	(___xxtofl@arg+1)^0,f,c
  2255  000FDE  2211               	addwfc	(___xxtofl@arg+2)^0,f,c
  2256  000FE0  2212               	addwfc	(___xxtofl@arg+3)^0,f,c
  2257  000FE2  90D8               	bcf	status,0,c
  2258  000FE4  3212               	rrcf	(___xxtofl@arg+3)^0,f,c
  2259  000FE6  3211               	rrcf	(___xxtofl@arg+2)^0,f,c
  2260  000FE8  3210               	rrcf	(___xxtofl@arg+1)^0,f,c
  2261  000FEA  320F               	rrcf	___xxtofl@arg^0,f,c
  2262  000FEC                     l1403:
  2263  000FEC  0E00               	movlw	0
  2264  000FEE  140F               	andwf	___xxtofl@arg^0,w,c
  2265  000FF0  6E09               	movwf	??___xxtofl^0,c
  2266  000FF2  0E00               	movlw	0
  2267  000FF4  1410               	andwf	(___xxtofl@arg+1)^0,w,c
  2268  000FF6  6E0A               	movwf	(??___xxtofl+1)^0,c
  2269  000FF8  0E00               	movlw	0
  2270  000FFA  1411               	andwf	(___xxtofl@arg+2)^0,w,c
  2271  000FFC  6E0B               	movwf	(??___xxtofl+2)^0,c
  2272  000FFE  0EFF               	movlw	255
  2273  001000  1412               	andwf	(___xxtofl@arg+3)^0,w,c
  2274  001002  6E0C               	movwf	(??___xxtofl+3)^0,c
  2275  001004  5009               	movf	??___xxtofl^0,w,c
  2276  001006  100A               	iorwf	(??___xxtofl+1)^0,w,c
  2277  001008  100B               	iorwf	(??___xxtofl+2)^0,w,c
  2278  00100A  100C               	iorwf	(??___xxtofl+3)^0,w,c
  2279  00100C  A4D8               	btfss	status,2,c
  2280  00100E  EF0B  F008         	goto	u3431
  2281  001012  EF0D  F008         	goto	u3430
  2282  001016                     u3431:
  2283  001016  EFEA  F007         	goto	l3408
  2284  00101A                     u3430:
  2285  00101A  EF15  F008         	goto	l3416
  2286  00101E                     l3414:
  2287  00101E  060E               	decf	___xxtofl@exp^0,f,c
  2288  001020  90D8               	bcf	status,0,c
  2289  001022  360F               	rlcf	___xxtofl@arg^0,f,c
  2290  001024  3610               	rlcf	(___xxtofl@arg+1)^0,f,c
  2291  001026  3611               	rlcf	(___xxtofl@arg+2)^0,f,c
  2292  001028  3612               	rlcf	(___xxtofl@arg+3)^0,f,c
  2293  00102A                     l3416:
  2294  00102A  BE11               	btfsc	(___xxtofl@arg+2)^0,7,c
  2295  00102C  EF1A  F008         	goto	u3441
  2296  001030  EF1C  F008         	goto	u3440
  2297  001034                     u3441:
  2298  001034  EF24  F008         	goto	l1410
  2299  001038                     u3440:
  2300  001038  0E02               	movlw	2
  2301  00103A  600E               	cpfslt	___xxtofl@exp^0,c
  2302  00103C  EF22  F008         	goto	u3451
  2303  001040  EF24  F008         	goto	u3450
  2304  001044                     u3451:
  2305  001044  EF0F  F008         	goto	l3414
  2306  001048                     u3450:
  2307  001048                     l1410:
  2308  001048  B00E               	btfsc	___xxtofl@exp^0,0,c
  2309  00104A  EF29  F008         	goto	u3461
  2310  00104E  EF2B  F008         	goto	u3460
  2311  001052                     u3461:
  2312  001052  EF2C  F008         	goto	l3422
  2313  001056                     u3460:
  2314  001056  9E11               	bcf	(___xxtofl@arg+2)^0,7,c
  2315  001058                     l3422:
  2316  001058  90D8               	bcf	status,0,c
  2317  00105A  320E               	rrcf	___xxtofl@exp^0,f,c
  2318  00105C  C00E  F009         	movff	___xxtofl@exp,??___xxtofl
  2319  001060  6A0A               	clrf	(??___xxtofl+1)^0,c
  2320  001062  6A0B               	clrf	(??___xxtofl+2)^0,c
  2321  001064  6A0C               	clrf	(??___xxtofl+3)^0,c
  2322  001066  C009  F00C         	movff	??___xxtofl,??___xxtofl+3
  2323  00106A  6A0B               	clrf	(??___xxtofl+2)^0,c
  2324  00106C  6A0A               	clrf	(??___xxtofl+1)^0,c
  2325  00106E  6A09               	clrf	??___xxtofl^0,c
  2326  001070  5009               	movf	??___xxtofl^0,w,c
  2327  001072  120F               	iorwf	___xxtofl@arg^0,f,c
  2328  001074  500A               	movf	(??___xxtofl+1)^0,w,c
  2329  001076  1210               	iorwf	(___xxtofl@arg+1)^0,f,c
  2330  001078  500B               	movf	(??___xxtofl+2)^0,w,c
  2331  00107A  1211               	iorwf	(___xxtofl@arg+2)^0,f,c
  2332  00107C  500C               	movf	(??___xxtofl+3)^0,w,c
  2333  00107E  1212               	iorwf	(___xxtofl@arg+3)^0,f,c
  2334  001080  500D               	movf	___xxtofl@sign^0,w,c
  2335  001082  B4D8               	btfsc	status,2,c
  2336  001084  EF46  F008         	goto	u3471
  2337  001088  EF48  F008         	goto	u3470
  2338  00108C                     u3471:
  2339  00108C  EF50  F008         	goto	l3432
  2340  001090                     u3470:
  2341  001090  BE08               	btfsc	(___xxtofl@val+3)^0,7,c
  2342  001092  EF4F  F008         	goto	u3480
  2343  001096  EF4D  F008         	goto	u3481
  2344  00109A                     u3481:
  2345  00109A  EF50  F008         	goto	l3432
  2346  00109E                     u3480:
  2347  00109E  8E12               	bsf	(___xxtofl@arg+3)^0,7,c
  2348  0010A0                     l3432:
  2349  0010A0  C00F  F005         	movff	___xxtofl@arg,?___xxtofl
  2350  0010A4  C010  F006         	movff	___xxtofl@arg+1,?___xxtofl+1
  2351  0010A8  C011  F007         	movff	___xxtofl@arg+2,?___xxtofl+2
  2352  0010AC  C012  F008         	movff	___xxtofl@arg+3,?___xxtofl+3
  2353  0010B0                     l1399:
  2354  0010B0  0012               	return		;funcret
  2355  0010B2                     __end_of___xxtofl:
  2356                           	callstack 0
  2357                           
  2358 ;; *************** function ___fltol *****************
  2359 ;; Defined at:
  2360 ;;		line 43 in file "C:\Program Files\Microchip\xc8\v2.30\pic\sources\c99\common\fltol.c"
  2361 ;; Parameters:    Size  Location     Type
  2362 ;;  f1              4   59[COMRAM] unsigned char 
  2363 ;; Auto vars:     Size  Location     Type
  2364 ;;  exp1            1   68[COMRAM] unsigned char 
  2365 ;;  sign1           1   67[COMRAM] unsigned char 
  2366 ;; Return value:  Size  Location     Type
  2367 ;;                  4   59[COMRAM] long 
  2368 ;; Registers used:
  2369 ;;		wreg, status,2, status,0
  2370 ;; Tracked objects:
  2371 ;;		On entry : 0/0
  2372 ;;		On exit  : 0/0
  2373 ;;		Unchanged: 0/0
  2374 ;; Data sizes:     COMRAM   BANK0   BANK1   BANK2   BANK3   BANK4   BANK5   BANK6   BANK7   BANK8   BANK9  BANK10  BANK1
      +1  BANK12  BANK13  BANK14  BANK15
  2375 ;;      Params:         4       0       0       0       0       0       0       0       0       0       0       0       
      +0       0       0       0       0
  2376 ;;      Locals:         2       0       0       0       0       0       0       0       0       0       0       0       
      +0       0       0       0       0
  2377 ;;      Temps:          4       0       0       0       0       0       0       0       0       0       0       0       
      +0       0       0       0       0
  2378 ;;      Totals:        10       0       0       0       0       0       0       0       0       0       0       0       
      +0       0       0       0       0
  2379 ;;Total ram usage:       10 bytes
  2380 ;; Hardware stack levels used:    1
  2381 ;; Hardware stack levels required when called:    4
  2382 ;; This function calls:
  2383 ;;		Nothing
  2384 ;; This function is called by:
  2385 ;;		_I2C_Master_Mode_Clock_Configurations
  2386 ;;		_Servo_SetAngle
  2387 ;; This function uses a non-reentrant model
  2388 ;;
  2389                           
  2390                           	psect	text11
  2391  0011F8                     __ptext11:
  2392                           	callstack 0
  2393  0011F8                     ___fltol:
  2394                           	callstack 22
  2395  0011F8  343E               	rlcf	(___fltol@f1+2)^0,w,c
  2396  0011FA  343F               	rlcf	(___fltol@f1+3)^0,w,c
  2397  0011FC  6E45               	movwf	___fltol@exp1^0,c
  2398  0011FE  5045               	movf	___fltol@exp1^0,w,c
  2399  001200  A4D8               	btfss	status,2,c
  2400  001202  EF05  F009         	goto	u3321
  2401  001206  EF07  F009         	goto	u3320
  2402  00120A                     u3321:
  2403  00120A  EF11  F009         	goto	l3352
  2404  00120E                     u3320:
  2405  00120E                     l3348:
  2406  00120E  0E00               	movlw	0
  2407  001210  6E3C               	movwf	?___fltol^0,c
  2408  001212  0E00               	movlw	0
  2409  001214  6E3D               	movwf	(?___fltol+1)^0,c
  2410  001216  0E00               	movlw	0
  2411  001218  6E3E               	movwf	(?___fltol+2)^0,c
  2412  00121A  0E00               	movlw	0
  2413  00121C  6E3F               	movwf	(?___fltol+3)^0,c
  2414  00121E  EF7E  F009         	goto	l1038
  2415  001222                     l3352:
  2416  001222  C03C  F040         	movff	___fltol@f1,??___fltol
  2417  001226  C03D  F041         	movff	___fltol@f1+1,??___fltol+1
  2418  00122A  C03E  F042         	movff	___fltol@f1+2,??___fltol+2
  2419  00122E  C03F  F043         	movff	___fltol@f1+3,??___fltol+3
  2420  001232  0E20               	movlw	32
  2421  001234  EF21  F009         	goto	u3330
  2422  001238                     u3335:
  2423  001238  90D8               	bcf	status,0,c
  2424  00123A  3243               	rrcf	(??___fltol+3)^0,f,c
  2425  00123C  3242               	rrcf	(??___fltol+2)^0,f,c
  2426  00123E  3241               	rrcf	(??___fltol+1)^0,f,c
  2427  001240  3240               	rrcf	??___fltol^0,f,c
  2428  001242                     u3330:
  2429  001242  2EE8               	decfsz	wreg,f,c
  2430  001244  EF1C  F009         	goto	u3335
  2431  001248  5040               	movf	??___fltol^0,w,c
  2432  00124A  6E44               	movwf	___fltol@sign1^0,c
  2433  00124C  8E3E               	bsf	(___fltol@f1+2)^0,7,c
  2434  00124E  0EFF               	movlw	255
  2435  001250  163C               	andwf	___fltol@f1^0,f,c
  2436  001252  0EFF               	movlw	255
  2437  001254  163D               	andwf	(___fltol@f1+1)^0,f,c
  2438  001256  0EFF               	movlw	255
  2439  001258  163E               	andwf	(___fltol@f1+2)^0,f,c
  2440  00125A  0E00               	movlw	0
  2441  00125C  163F               	andwf	(___fltol@f1+3)^0,f,c
  2442  00125E  0E96               	movlw	150
  2443  001260  5E45               	subwf	___fltol@exp1^0,f,c
  2444  001262  BE45               	btfsc	___fltol@exp1^0,7,c
  2445  001264  EF38  F009         	goto	u3340
  2446  001268  EF36  F009         	goto	u3341
  2447  00126C                     u3341:
  2448  00126C  EF4E  F009         	goto	l3372
  2449  001270                     u3340:
  2450  001270  5045               	movf	___fltol@exp1^0,w,c
  2451  001272  0A80               	xorlw	128
  2452  001274  0F97               	addlw	151
  2453  001276  B0D8               	btfsc	status,0,c
  2454  001278  EF40  F009         	goto	u3351
  2455  00127C  EF42  F009         	goto	u3350
  2456  001280                     u3351:
  2457  001280  EF44  F009         	goto	l3368
  2458  001284                     u3350:
  2459  001284  EF07  F009         	goto	l3348
  2460  001288                     l3368:
  2461  001288  90D8               	bcf	status,0,c
  2462  00128A  323F               	rrcf	(___fltol@f1+3)^0,f,c
  2463  00128C  323E               	rrcf	(___fltol@f1+2)^0,f,c
  2464  00128E  323D               	rrcf	(___fltol@f1+1)^0,f,c
  2465  001290  323C               	rrcf	___fltol@f1^0,f,c
  2466  001292  3E45               	incfsz	___fltol@exp1^0,f,c
  2467  001294  EF44  F009         	goto	l3368
  2468  001298  EF66  F009         	goto	l3382
  2469  00129C                     l3372:
  2470  00129C  0E1F               	movlw	31
  2471  00129E  6445               	cpfsgt	___fltol@exp1^0,c
  2472  0012A0  EF54  F009         	goto	u3361
  2473  0012A4  EF56  F009         	goto	u3360
  2474  0012A8                     u3361:
  2475  0012A8  EF5E  F009         	goto	l3380
  2476  0012AC                     u3360:
  2477  0012AC  EF07  F009         	goto	l3348
  2478  0012B0                     l3378:
  2479  0012B0  90D8               	bcf	status,0,c
  2480  0012B2  363C               	rlcf	___fltol@f1^0,f,c
  2481  0012B4  363D               	rlcf	(___fltol@f1+1)^0,f,c
  2482  0012B6  363E               	rlcf	(___fltol@f1+2)^0,f,c
  2483  0012B8  363F               	rlcf	(___fltol@f1+3)^0,f,c
  2484  0012BA  0645               	decf	___fltol@exp1^0,f,c
  2485  0012BC                     l3380:
  2486  0012BC  5045               	movf	___fltol@exp1^0,w,c
  2487  0012BE  A4D8               	btfss	status,2,c
  2488  0012C0  EF64  F009         	goto	u3371
  2489  0012C4  EF66  F009         	goto	u3370
  2490  0012C8                     u3371:
  2491  0012C8  EF58  F009         	goto	l3378
  2492  0012CC                     u3370:
  2493  0012CC                     l3382:
  2494  0012CC  5044               	movf	___fltol@sign1^0,w,c
  2495  0012CE  B4D8               	btfsc	status,2,c
  2496  0012D0  EF6C  F009         	goto	u3381
  2497  0012D4  EF6E  F009         	goto	u3380
  2498  0012D8                     u3381:
  2499  0012D8  EF76  F009         	goto	l3386
  2500  0012DC                     u3380:
  2501  0012DC  1E3F               	comf	(___fltol@f1+3)^0,f,c
  2502  0012DE  1E3E               	comf	(___fltol@f1+2)^0,f,c
  2503  0012E0  1E3D               	comf	(___fltol@f1+1)^0,f,c
  2504  0012E2  6C3C               	negf	___fltol@f1^0,c
  2505  0012E4  0E00               	movlw	0
  2506  0012E6  223D               	addwfc	(___fltol@f1+1)^0,f,c
  2507  0012E8  223E               	addwfc	(___fltol@f1+2)^0,f,c
  2508  0012EA  223F               	addwfc	(___fltol@f1+3)^0,f,c
  2509  0012EC                     l3386:
  2510  0012EC  C03C  F03C         	movff	___fltol@f1,?___fltol
  2511  0012F0  C03D  F03D         	movff	___fltol@f1+1,?___fltol+1
  2512  0012F4  C03E  F03E         	movff	___fltol@f1+2,?___fltol+2
  2513  0012F8  C03F  F03F         	movff	___fltol@f1+3,?___fltol+3
  2514  0012FC                     l1038:
  2515  0012FC  0012               	return		;funcret
  2516  0012FE                     __end_of___fltol:
  2517                           	callstack 0
  2518                           
  2519 ;; *************** function ___flmul *****************
  2520 ;; Defined at:
  2521 ;;		line 8 in file "C:\Program Files\Microchip\xc8\v2.30\pic\sources\c99\common\sprcmul.c"
  2522 ;; Parameters:    Size  Location     Type
  2523 ;;  b               4   18[COMRAM] long 
  2524 ;;  a               4   22[COMRAM] long 
  2525 ;; Auto vars:     Size  Location     Type
  2526 ;;  prod            4   37[COMRAM] struct .
  2527 ;;  grs             4   31[COMRAM] unsigned long 
  2528 ;;  temp            2   41[COMRAM] struct .
  2529 ;;  bexp            1   36[COMRAM] unsigned char 
  2530 ;;  aexp            1   35[COMRAM] unsigned char 
  2531 ;;  sign            1   30[COMRAM] unsigned char 
  2532 ;; Return value:  Size  Location     Type
  2533 ;;                  4   18[COMRAM] unsigned char 
  2534 ;; Registers used:
  2535 ;;		wreg, status,2, status,0, prodl, prodh
  2536 ;; Tracked objects:
  2537 ;;		On entry : 0/0
  2538 ;;		On exit  : 0/0
  2539 ;;		Unchanged: 0/0
  2540 ;; Data sizes:     COMRAM   BANK0   BANK1   BANK2   BANK3   BANK4   BANK5   BANK6   BANK7   BANK8   BANK9  BANK10  BANK1
      +1  BANK12  BANK13  BANK14  BANK15
  2541 ;;      Params:         8       0       0       0       0       0       0       0       0       0       0       0       
      +0       0       0       0       0
  2542 ;;      Locals:        13       0       0       0       0       0       0       0       0       0       0       0       
      +0       0       0       0       0
  2543 ;;      Temps:          4       0       0       0       0       0       0       0       0       0       0       0       
      +0       0       0       0       0
  2544 ;;      Totals:        25       0       0       0       0       0       0       0       0       0       0       0       
      +0       0       0       0       0
  2545 ;;Total ram usage:       25 bytes
  2546 ;; Hardware stack levels used:    1
  2547 ;; Hardware stack levels required when called:    4
  2548 ;; This function calls:
  2549 ;;		Nothing
  2550 ;; This function is called by:
  2551 ;;		_Servo_SetAngle
  2552 ;; This function uses a non-reentrant model
  2553 ;;
  2554                           
  2555                           	psect	text12
  2556  00073A                     __ptext12:
  2557                           	callstack 0
  2558  00073A                     ___flmul:
  2559                           	callstack 25
  2560  00073A  5016               	movf	(___flmul@b+3)^0,w,c
  2561  00073C  0B80               	andlw	128
  2562  00073E  6E1F               	movwf	___flmul@sign^0,c
  2563  000740  5016               	movf	(___flmul@b+3)^0,w,c
  2564  000742  2416               	addwf	(___flmul@b+3)^0,w,c
  2565  000744  6E25               	movwf	___flmul@bexp^0,c
  2566  000746  AE15               	btfss	(___flmul@b+2)^0,7,c
  2567  000748  EFA8  F003         	goto	u3761
  2568  00074C  EFAA  F003         	goto	u3760
  2569  000750                     u3761:
  2570  000750  EFAB  F003         	goto	l3600
  2571  000754                     u3760:
  2572  000754  8025               	bsf	___flmul@bexp^0,0,c
  2573  000756                     l3600:
  2574  000756  5025               	movf	___flmul@bexp^0,w,c
  2575  000758  B4D8               	btfsc	status,2,c
  2576  00075A  EFB1  F003         	goto	u3771
  2577  00075E  EFB3  F003         	goto	u3770
  2578  000762                     u3771:
  2579  000762  EFC6  F003         	goto	l3608
  2580  000766                     u3770:
  2581  000766  2825               	incf	___flmul@bexp^0,w,c
  2582  000768  A4D8               	btfss	status,2,c
  2583  00076A  EFB9  F003         	goto	u3781
  2584  00076E  EFBB  F003         	goto	u3780
  2585  000772                     u3781:
  2586  000772  EFC3  F003         	goto	l3606
  2587  000776                     u3780:
  2588  000776  0E00               	movlw	0
  2589  000778  6E13               	movwf	___flmul@b^0,c
  2590  00077A  0E00               	movlw	0
  2591  00077C  6E14               	movwf	(___flmul@b+1)^0,c
  2592  00077E  0E00               	movlw	0
  2593  000780  6E15               	movwf	(___flmul@b+2)^0,c
  2594  000782  0E00               	movlw	0
  2595  000784  6E16               	movwf	(___flmul@b+3)^0,c
  2596  000786                     l3606:
  2597  000786  8E15               	bsf	(___flmul@b+2)^0,7,c
  2598  000788  EFCE  F003         	goto	l3610
  2599  00078C                     l3608:
  2600  00078C  0E00               	movlw	0
  2601  00078E  6E13               	movwf	___flmul@b^0,c
  2602  000790  0E00               	movlw	0
  2603  000792  6E14               	movwf	(___flmul@b+1)^0,c
  2604  000794  0E00               	movlw	0
  2605  000796  6E15               	movwf	(___flmul@b+2)^0,c
  2606  000798  0E00               	movlw	0
  2607  00079A  6E16               	movwf	(___flmul@b+3)^0,c
  2608  00079C                     l3610:
  2609  00079C  501A               	movf	(___flmul@a+3)^0,w,c
  2610  00079E  0B80               	andlw	128
  2611  0007A0  1A1F               	xorwf	___flmul@sign^0,f,c
  2612  0007A2  501A               	movf	(___flmul@a+3)^0,w,c
  2613  0007A4  241A               	addwf	(___flmul@a+3)^0,w,c
  2614  0007A6  6E24               	movwf	___flmul@aexp^0,c
  2615  0007A8  AE19               	btfss	(___flmul@a+2)^0,7,c
  2616  0007AA  EFD9  F003         	goto	u3791
  2617  0007AE  EFDB  F003         	goto	u3790
  2618  0007B2                     u3791:
  2619  0007B2  EFDC  F003         	goto	l3618
  2620  0007B6                     u3790:
  2621  0007B6  8024               	bsf	___flmul@aexp^0,0,c
  2622  0007B8                     l3618:
  2623  0007B8  5024               	movf	___flmul@aexp^0,w,c
  2624  0007BA  B4D8               	btfsc	status,2,c
  2625  0007BC  EFE2  F003         	goto	u3801
  2626  0007C0  EFE4  F003         	goto	u3800
  2627  0007C4                     u3801:
  2628  0007C4  EFF7  F003         	goto	l3626
  2629  0007C8                     u3800:
  2630  0007C8  2824               	incf	___flmul@aexp^0,w,c
  2631  0007CA  A4D8               	btfss	status,2,c
  2632  0007CC  EFEA  F003         	goto	u3811
  2633  0007D0  EFEC  F003         	goto	u3810
  2634  0007D4                     u3811:
  2635  0007D4  EFF4  F003         	goto	l3624
  2636  0007D8                     u3810:
  2637  0007D8  0E00               	movlw	0
  2638  0007DA  6E17               	movwf	___flmul@a^0,c
  2639  0007DC  0E00               	movlw	0
  2640  0007DE  6E18               	movwf	(___flmul@a+1)^0,c
  2641  0007E0  0E00               	movlw	0
  2642  0007E2  6E19               	movwf	(___flmul@a+2)^0,c
  2643  0007E4  0E00               	movlw	0
  2644  0007E6  6E1A               	movwf	(___flmul@a+3)^0,c
  2645  0007E8                     l3624:
  2646  0007E8  8E19               	bsf	(___flmul@a+2)^0,7,c
  2647  0007EA  EFFF  F003         	goto	l1355
  2648  0007EE                     l3626:
  2649  0007EE  0E00               	movlw	0
  2650  0007F0  6E17               	movwf	___flmul@a^0,c
  2651  0007F2  0E00               	movlw	0
  2652  0007F4  6E18               	movwf	(___flmul@a+1)^0,c
  2653  0007F6  0E00               	movlw	0
  2654  0007F8  6E19               	movwf	(___flmul@a+2)^0,c
  2655  0007FA  0E00               	movlw	0
  2656  0007FC  6E1A               	movwf	(___flmul@a+3)^0,c
  2657  0007FE                     l1355:
  2658  0007FE  5024               	movf	___flmul@aexp^0,w,c
  2659  000800  B4D8               	btfsc	status,2,c
  2660  000802  EF05  F004         	goto	u3821
  2661  000806  EF07  F004         	goto	u3820
  2662  00080A                     u3821:
  2663  00080A  EF0F  F004         	goto	l3630
  2664  00080E                     u3820:
  2665  00080E  5025               	movf	___flmul@bexp^0,w,c
  2666  000810  A4D8               	btfss	status,2,c
  2667  000812  EF0D  F004         	goto	u3831
  2668  000816  EF0F  F004         	goto	u3830
  2669  00081A                     u3831:
  2670  00081A  EF19  F004         	goto	l3634
  2671  00081E                     u3830:
  2672  00081E                     l3630:
  2673  00081E  0E00               	movlw	0
  2674  000820  6E13               	movwf	?___flmul^0,c
  2675  000822  0E00               	movlw	0
  2676  000824  6E14               	movwf	(?___flmul+1)^0,c
  2677  000826  0E00               	movlw	0
  2678  000828  6E15               	movwf	(?___flmul+2)^0,c
  2679  00082A  0E00               	movlw	0
  2680  00082C  6E16               	movwf	(?___flmul+3)^0,c
  2681  00082E  EFB1  F005         	goto	l1359
  2682  000832                     l3634:
  2683  000832  5019               	movf	(___flmul@a+2)^0,w,c
  2684  000834  0213               	mulwf	___flmul@b^0,c
  2685  000836  CFF3 F02A          	movff	prodl,___flmul@temp
  2686  00083A  CFF4 F02B          	movff	prodh,___flmul@temp+1
  2687  00083E  502A               	movf	___flmul@temp^0,w,c
  2688  000840  6E20               	movwf	___flmul@grs^0,c
  2689  000842  6A21               	clrf	(___flmul@grs+1)^0,c
  2690  000844  6A22               	clrf	(___flmul@grs+2)^0,c
  2691  000846  6A23               	clrf	(___flmul@grs+3)^0,c
  2692  000848  502B               	movf	(___flmul@temp+1)^0,w,c
  2693  00084A  6E26               	movwf	___flmul@prod^0,c
  2694  00084C  6A27               	clrf	(___flmul@prod+1)^0,c
  2695  00084E  6A28               	clrf	(___flmul@prod+2)^0,c
  2696  000850  6A29               	clrf	(___flmul@prod+3)^0,c
  2697  000852  5018               	movf	(___flmul@a+1)^0,w,c
  2698  000854  0214               	mulwf	(___flmul@b+1)^0,c
  2699  000856  CFF3 F02A          	movff	prodl,___flmul@temp
  2700  00085A  CFF4 F02B          	movff	prodh,___flmul@temp+1
  2701  00085E  502A               	movf	___flmul@temp^0,w,c
  2702  000860  2620               	addwf	___flmul@grs^0,f,c
  2703  000862  0E00               	movlw	0
  2704  000864  2221               	addwfc	(___flmul@grs+1)^0,f,c
  2705  000866  2222               	addwfc	(___flmul@grs+2)^0,f,c
  2706  000868  2223               	addwfc	(___flmul@grs+3)^0,f,c
  2707  00086A  502B               	movf	(___flmul@temp+1)^0,w,c
  2708  00086C  2626               	addwf	___flmul@prod^0,f,c
  2709  00086E  0E00               	movlw	0
  2710  000870  2227               	addwfc	(___flmul@prod+1)^0,f,c
  2711  000872  2228               	addwfc	(___flmul@prod+2)^0,f,c
  2712  000874  2229               	addwfc	(___flmul@prod+3)^0,f,c
  2713  000876  5017               	movf	___flmul@a^0,w,c
  2714  000878  0215               	mulwf	(___flmul@b+2)^0,c
  2715  00087A  CFF3 F02A          	movff	prodl,___flmul@temp
  2716  00087E  CFF4 F02B          	movff	prodh,___flmul@temp+1
  2717  000882  502A               	movf	___flmul@temp^0,w,c
  2718  000884  2620               	addwf	___flmul@grs^0,f,c
  2719  000886  0E00               	movlw	0
  2720  000888  2221               	addwfc	(___flmul@grs+1)^0,f,c
  2721  00088A  2222               	addwfc	(___flmul@grs+2)^0,f,c
  2722  00088C  2223               	addwfc	(___flmul@grs+3)^0,f,c
  2723  00088E  502B               	movf	(___flmul@temp+1)^0,w,c
  2724  000890  2626               	addwf	___flmul@prod^0,f,c
  2725  000892  0E00               	movlw	0
  2726  000894  2227               	addwfc	(___flmul@prod+1)^0,f,c
  2727  000896  2228               	addwfc	(___flmul@prod+2)^0,f,c
  2728  000898  2229               	addwfc	(___flmul@prod+3)^0,f,c
  2729  00089A  C022  F023         	movff	___flmul@grs+2,___flmul@grs+3
  2730  00089E  C021  F022         	movff	___flmul@grs+1,___flmul@grs+2
  2731  0008A2  C020  F021         	movff	___flmul@grs,___flmul@grs+1
  2732  0008A6  6A20               	clrf	___flmul@grs^0,c
  2733  0008A8  5017               	movf	___flmul@a^0,w,c
  2734  0008AA  0214               	mulwf	(___flmul@b+1)^0,c
  2735  0008AC  CFF3 F02A          	movff	prodl,___flmul@temp
  2736  0008B0  CFF4 F02B          	movff	prodh,___flmul@temp+1
  2737  0008B4  502A               	movf	___flmul@temp^0,w,c
  2738  0008B6  2620               	addwf	___flmul@grs^0,f,c
  2739  0008B8  502B               	movf	(___flmul@temp+1)^0,w,c
  2740  0008BA  2221               	addwfc	(___flmul@grs+1)^0,f,c
  2741  0008BC  0E00               	movlw	0
  2742  0008BE  2222               	addwfc	(___flmul@grs+2)^0,f,c
  2743  0008C0  0E00               	movlw	0
  2744  0008C2  2223               	addwfc	(___flmul@grs+3)^0,f,c
  2745  0008C4  5018               	movf	(___flmul@a+1)^0,w,c
  2746  0008C6  0213               	mulwf	___flmul@b^0,c
  2747  0008C8  CFF3 F02A          	movff	prodl,___flmul@temp
  2748  0008CC  CFF4 F02B          	movff	prodh,___flmul@temp+1
  2749  0008D0  502A               	movf	___flmul@temp^0,w,c
  2750  0008D2  2620               	addwf	___flmul@grs^0,f,c
  2751  0008D4  502B               	movf	(___flmul@temp+1)^0,w,c
  2752  0008D6  2221               	addwfc	(___flmul@grs+1)^0,f,c
  2753  0008D8  0E00               	movlw	0
  2754  0008DA  2222               	addwfc	(___flmul@grs+2)^0,f,c
  2755  0008DC  0E00               	movlw	0
  2756  0008DE  2223               	addwfc	(___flmul@grs+3)^0,f,c
  2757  0008E0  C022  F023         	movff	___flmul@grs+2,___flmul@grs+3
  2758  0008E4  C021  F022         	movff	___flmul@grs+1,___flmul@grs+2
  2759  0008E8  C020  F021         	movff	___flmul@grs,___flmul@grs+1
  2760  0008EC  6A20               	clrf	___flmul@grs^0,c
  2761  0008EE  5017               	movf	___flmul@a^0,w,c
  2762  0008F0  0213               	mulwf	___flmul@b^0,c
  2763  0008F2  CFF3 F02A          	movff	prodl,___flmul@temp
  2764  0008F6  CFF4 F02B          	movff	prodh,___flmul@temp+1
  2765  0008FA  502A               	movf	___flmul@temp^0,w,c
  2766  0008FC  2620               	addwf	___flmul@grs^0,f,c
  2767  0008FE  502B               	movf	(___flmul@temp+1)^0,w,c
  2768  000900  2221               	addwfc	(___flmul@grs+1)^0,f,c
  2769  000902  0E00               	movlw	0
  2770  000904  2222               	addwfc	(___flmul@grs+2)^0,f,c
  2771  000906  0E00               	movlw	0
  2772  000908  2223               	addwfc	(___flmul@grs+3)^0,f,c
  2773  00090A  5019               	movf	(___flmul@a+2)^0,w,c
  2774  00090C  0214               	mulwf	(___flmul@b+1)^0,c
  2775  00090E  CFF3 F02A          	movff	prodl,___flmul@temp
  2776  000912  CFF4 F02B          	movff	prodh,___flmul@temp+1
  2777  000916  502A               	movf	___flmul@temp^0,w,c
  2778  000918  2626               	addwf	___flmul@prod^0,f,c
  2779  00091A  502B               	movf	(___flmul@temp+1)^0,w,c
  2780  00091C  2227               	addwfc	(___flmul@prod+1)^0,f,c
  2781  00091E  0E00               	movlw	0
  2782  000920  2228               	addwfc	(___flmul@prod+2)^0,f,c
  2783  000922  0E00               	movlw	0
  2784  000924  2229               	addwfc	(___flmul@prod+3)^0,f,c
  2785  000926  5018               	movf	(___flmul@a+1)^0,w,c
  2786  000928  0215               	mulwf	(___flmul@b+2)^0,c
  2787  00092A  CFF3 F02A          	movff	prodl,___flmul@temp
  2788  00092E  CFF4 F02B          	movff	prodh,___flmul@temp+1
  2789  000932  502A               	movf	___flmul@temp^0,w,c
  2790  000934  2626               	addwf	___flmul@prod^0,f,c
  2791  000936  502B               	movf	(___flmul@temp+1)^0,w,c
  2792  000938  2227               	addwfc	(___flmul@prod+1)^0,f,c
  2793  00093A  0E00               	movlw	0
  2794  00093C  2228               	addwfc	(___flmul@prod+2)^0,f,c
  2795  00093E  0E00               	movlw	0
  2796  000940  2229               	addwfc	(___flmul@prod+3)^0,f,c
  2797  000942  5019               	movf	(___flmul@a+2)^0,w,c
  2798  000944  0215               	mulwf	(___flmul@b+2)^0,c
  2799  000946  CFF3 F02A          	movff	prodl,___flmul@temp
  2800  00094A  CFF4 F02B          	movff	prodh,___flmul@temp+1
  2801  00094E  502A               	movf	___flmul@temp^0,w,c
  2802  000950  6E1B               	movwf	??___flmul^0,c
  2803  000952  502B               	movf	(___flmul@temp+1)^0,w,c
  2804  000954  6E1C               	movwf	(??___flmul+1)^0,c
  2805  000956  6A1D               	clrf	(??___flmul+2)^0,c
  2806  000958  6A1E               	clrf	(??___flmul+3)^0,c
  2807  00095A  C01D  F01E         	movff	??___flmul+2,??___flmul+3
  2808  00095E  C01C  F01D         	movff	??___flmul+1,??___flmul+2
  2809  000962  C01B  F01C         	movff	??___flmul,??___flmul+1
  2810  000966  6A1B               	clrf	??___flmul^0,c
  2811  000968  501B               	movf	??___flmul^0,w,c
  2812  00096A  2626               	addwf	___flmul@prod^0,f,c
  2813  00096C  501C               	movf	(??___flmul+1)^0,w,c
  2814  00096E  2227               	addwfc	(___flmul@prod+1)^0,f,c
  2815  000970  501D               	movf	(??___flmul+2)^0,w,c
  2816  000972  2228               	addwfc	(___flmul@prod+2)^0,f,c
  2817  000974  501E               	movf	(??___flmul+3)^0,w,c
  2818  000976  2229               	addwfc	(___flmul@prod+3)^0,f,c
  2819  000978  C020  F01B         	movff	___flmul@grs,??___flmul
  2820  00097C  C021  F01C         	movff	___flmul@grs+1,??___flmul+1
  2821  000980  C022  F01D         	movff	___flmul@grs+2,??___flmul+2
  2822  000984  C023  F01E         	movff	___flmul@grs+3,??___flmul+3
  2823  000988  0E19               	movlw	25
  2824  00098A  EFCC  F004         	goto	u3840
  2825  00098E                     u3845:
  2826  00098E  90D8               	bcf	status,0,c
  2827  000990  321E               	rrcf	(??___flmul+3)^0,f,c
  2828  000992  321D               	rrcf	(??___flmul+2)^0,f,c
  2829  000994  321C               	rrcf	(??___flmul+1)^0,f,c
  2830  000996  321B               	rrcf	??___flmul^0,f,c
  2831  000998                     u3840:
  2832  000998  2EE8               	decfsz	wreg,f,c
  2833  00099A  EFC7  F004         	goto	u3845
  2834  00099E  501B               	movf	??___flmul^0,w,c
  2835  0009A0  2626               	addwf	___flmul@prod^0,f,c
  2836  0009A2  501C               	movf	(??___flmul+1)^0,w,c
  2837  0009A4  2227               	addwfc	(___flmul@prod+1)^0,f,c
  2838  0009A6  501D               	movf	(??___flmul+2)^0,w,c
  2839  0009A8  2228               	addwfc	(___flmul@prod+2)^0,f,c
  2840  0009AA  501E               	movf	(??___flmul+3)^0,w,c
  2841  0009AC  2229               	addwfc	(___flmul@prod+3)^0,f,c
  2842  0009AE  C022  F023         	movff	___flmul@grs+2,___flmul@grs+3
  2843  0009B2  C021  F022         	movff	___flmul@grs+1,___flmul@grs+2
  2844  0009B6  C020  F021         	movff	___flmul@grs,___flmul@grs+1
  2845  0009BA  6A20               	clrf	___flmul@grs^0,c
  2846  0009BC  5024               	movf	___flmul@aexp^0,w,c
  2847  0009BE  C025  F01B         	movff	___flmul@bexp,??___flmul
  2848  0009C2  6A1C               	clrf	(??___flmul+1)^0,c
  2849  0009C4  261B               	addwf	??___flmul^0,f,c
  2850  0009C6  0E00               	movlw	0
  2851  0009C8  221C               	addwfc	(??___flmul+1)^0,f,c
  2852  0009CA  0E82               	movlw	130
  2853  0009CC  241B               	addwf	??___flmul^0,w,c
  2854  0009CE  6E2A               	movwf	___flmul@temp^0,c
  2855  0009D0  0EFF               	movlw	255
  2856  0009D2  201C               	addwfc	(??___flmul+1)^0,w,c
  2857  0009D4  6E2B               	movwf	(___flmul@temp+1)^0,c
  2858  0009D6  EF02  F005         	goto	l3682
  2859  0009DA                     l3676:
  2860  0009DA  90D8               	bcf	status,0,c
  2861  0009DC  3626               	rlcf	___flmul@prod^0,f,c
  2862  0009DE  3627               	rlcf	(___flmul@prod+1)^0,f,c
  2863  0009E0  3628               	rlcf	(___flmul@prod+2)^0,f,c
  2864  0009E2  3629               	rlcf	(___flmul@prod+3)^0,f,c
  2865  0009E4  AE23               	btfss	(___flmul@grs+3)^0,7,c
  2866  0009E6  EFF7  F004         	goto	u3851
  2867  0009EA  EFF9  F004         	goto	u3850
  2868  0009EE                     u3851:
  2869  0009EE  EFFA  F004         	goto	l1362
  2870  0009F2                     u3850:
  2871  0009F2  8026               	bsf	___flmul@prod^0,0,c
  2872  0009F4                     l1362:
  2873  0009F4  90D8               	bcf	status,0,c
  2874  0009F6  3620               	rlcf	___flmul@grs^0,f,c
  2875  0009F8  3621               	rlcf	(___flmul@grs+1)^0,f,c
  2876  0009FA  3622               	rlcf	(___flmul@grs+2)^0,f,c
  2877  0009FC  3623               	rlcf	(___flmul@grs+3)^0,f,c
  2878  0009FE  062A               	decf	___flmul@temp^0,f,c
  2879  000A00  A0D8               	btfss	status,0,c
  2880  000A02  062B               	decf	(___flmul@temp+1)^0,f,c
  2881  000A04                     l3682:
  2882  000A04  AE28               	btfss	(___flmul@prod+2)^0,7,c
  2883  000A06  EF07  F005         	goto	u3861
  2884  000A0A  EF09  F005         	goto	u3860
  2885  000A0E                     u3861:
  2886  000A0E  EFED  F004         	goto	l3676
  2887  000A12                     u3860:
  2888  000A12  0E00               	movlw	0
  2889  000A14  6E24               	movwf	___flmul@aexp^0,c
  2890  000A16  AE23               	btfss	(___flmul@grs+3)^0,7,c
  2891  000A18  EF10  F005         	goto	u3871
  2892  000A1C  EF12  F005         	goto	u3870
  2893  000A20                     u3871:
  2894  000A20  EF36  F005         	goto	l1364
  2895  000A24                     u3870:
  2896  000A24  0EFF               	movlw	255
  2897  000A26  1420               	andwf	___flmul@grs^0,w,c
  2898  000A28  6E1B               	movwf	??___flmul^0,c
  2899  000A2A  0EFF               	movlw	255
  2900  000A2C  1421               	andwf	(___flmul@grs+1)^0,w,c
  2901  000A2E  6E1C               	movwf	(??___flmul+1)^0,c
  2902  000A30  0EFF               	movlw	255
  2903  000A32  1422               	andwf	(___flmul@grs+2)^0,w,c
  2904  000A34  6E1D               	movwf	(??___flmul+2)^0,c
  2905  000A36  0E7F               	movlw	127
  2906  000A38  1423               	andwf	(___flmul@grs+3)^0,w,c
  2907  000A3A  6E1E               	movwf	(??___flmul+3)^0,c
  2908  000A3C  501B               	movf	??___flmul^0,w,c
  2909  000A3E  101C               	iorwf	(??___flmul+1)^0,w,c
  2910  000A40  101D               	iorwf	(??___flmul+2)^0,w,c
  2911  000A42  101E               	iorwf	(??___flmul+3)^0,w,c
  2912  000A44  B4D8               	btfsc	status,2,c
  2913  000A46  EF27  F005         	goto	u3881
  2914  000A4A  EF29  F005         	goto	u3880
  2915  000A4E                     u3881:
  2916  000A4E  EF2D  F005         	goto	l1365
  2917  000A52                     u3880:
  2918  000A52                     l3690:
  2919  000A52  0E01               	movlw	1
  2920  000A54  6E24               	movwf	___flmul@aexp^0,c
  2921  000A56  EF36  F005         	goto	l1364
  2922  000A5A                     l1365:
  2923  000A5A  A026               	btfss	___flmul@prod^0,0,c
  2924  000A5C  EF32  F005         	goto	u3891
  2925  000A60  EF34  F005         	goto	u3890
  2926  000A64                     u3891:
  2927  000A64  EF36  F005         	goto	l1364
  2928  000A68                     u3890:
  2929  000A68  EF29  F005         	goto	l3690
  2930  000A6C                     l1364:
  2931  000A6C  5024               	movf	___flmul@aexp^0,w,c
  2932  000A6E  B4D8               	btfsc	status,2,c
  2933  000A70  EF3C  F005         	goto	u3901
  2934  000A74  EF3E  F005         	goto	u3900
  2935  000A78                     u3901:
  2936  000A78  EF62  F005         	goto	l3702
  2937  000A7C                     u3900:
  2938  000A7C  0E01               	movlw	1
  2939  000A7E  2626               	addwf	___flmul@prod^0,f,c
  2940  000A80  0E00               	movlw	0
  2941  000A82  2227               	addwfc	(___flmul@prod+1)^0,f,c
  2942  000A84  2228               	addwfc	(___flmul@prod+2)^0,f,c
  2943  000A86  2229               	addwfc	(___flmul@prod+3)^0,f,c
  2944  000A88  A029               	btfss	(___flmul@prod+3)^0,0,c
  2945  000A8A  EF49  F005         	goto	u3911
  2946  000A8E  EF4B  F005         	goto	u3910
  2947  000A92                     u3911:
  2948  000A92  EF62  F005         	goto	l3702
  2949  000A96                     u3910:
  2950  000A96  C026  F01B         	movff	___flmul@prod,??___flmul
  2951  000A9A  C027  F01C         	movff	___flmul@prod+1,??___flmul+1
  2952  000A9E  C028  F01D         	movff	___flmul@prod+2,??___flmul+2
  2953  000AA2  C029  F01E         	movff	___flmul@prod+3,??___flmul+3
  2954  000AA6  341E               	rlcf	(??___flmul+3)^0,w,c
  2955  000AA8  321E               	rrcf	(??___flmul+3)^0,f,c
  2956  000AAA  321D               	rrcf	(??___flmul+2)^0,f,c
  2957  000AAC  321C               	rrcf	(??___flmul+1)^0,f,c
  2958  000AAE  321B               	rrcf	??___flmul^0,f,c
  2959  000AB0  C01B  F026         	movff	??___flmul,___flmul@prod
  2960  000AB4  C01C  F027         	movff	??___flmul+1,___flmul@prod+1
  2961  000AB8  C01D  F028         	movff	??___flmul+2,___flmul@prod+2
  2962  000ABC  C01E  F029         	movff	??___flmul+3,___flmul@prod+3
  2963  000AC0  4A2A               	infsnz	___flmul@temp^0,f,c
  2964  000AC2  2A2B               	incf	(___flmul@temp+1)^0,f,c
  2965  000AC4                     l3702:
  2966  000AC4  BE2B               	btfsc	(___flmul@temp+1)^0,7,c
  2967  000AC6  EF6D  F005         	goto	u3921
  2968  000ACA  502B               	movf	(___flmul@temp+1)^0,w,c
  2969  000ACC  E108               	bnz	u3920
  2970  000ACE  282A               	incf	___flmul@temp^0,w,c
  2971  000AD0  A0D8               	btfss	status,0,c
  2972  000AD2  EF6D  F005         	goto	u3921
  2973  000AD6  EF6F  F005         	goto	u3920
  2974  000ADA                     u3921:
  2975  000ADA  EF79  F005         	goto	l3706
  2976  000ADE                     u3920:
  2977  000ADE  0E00               	movlw	0
  2978  000AE0  6E26               	movwf	___flmul@prod^0,c
  2979  000AE2  0E00               	movlw	0
  2980  000AE4  6E27               	movwf	(___flmul@prod+1)^0,c
  2981  000AE6  0E80               	movlw	128
  2982  000AE8  6E28               	movwf	(___flmul@prod+2)^0,c
  2983  000AEA  0E7F               	movlw	127
  2984  000AEC  6E29               	movwf	(___flmul@prod+3)^0,c
  2985  000AEE  EFA7  F005         	goto	l3718
  2986  000AF2                     l3706:
  2987  000AF2  BE2B               	btfsc	(___flmul@temp+1)^0,7,c
  2988  000AF4  EF86  F005         	goto	u3930
  2989  000AF8  502B               	movf	(___flmul@temp+1)^0,w,c
  2990  000AFA  E106               	bnz	u3931
  2991  000AFC  042A               	decf	___flmul@temp^0,w,c
  2992  000AFE  B0D8               	btfsc	status,0,c
  2993  000B00  EF84  F005         	goto	u3931
  2994  000B04  EF86  F005         	goto	u3930
  2995  000B08                     u3931:
  2996  000B08  EF92  F005         	goto	l1372
  2997  000B0C                     u3930:
  2998  000B0C  0E00               	movlw	0
  2999  000B0E  6E26               	movwf	___flmul@prod^0,c
  3000  000B10  0E00               	movlw	0
  3001  000B12  6E27               	movwf	(___flmul@prod+1)^0,c
  3002  000B14  0E00               	movlw	0
  3003  000B16  6E28               	movwf	(___flmul@prod+2)^0,c
  3004  000B18  0E00               	movlw	0
  3005  000B1A  6E29               	movwf	(___flmul@prod+3)^0,c
  3006  000B1C  0E00               	movlw	0
  3007  000B1E  6E1F               	movwf	___flmul@sign^0,c
  3008  000B20  EFA7  F005         	goto	l3718
  3009  000B24                     l1372:
  3010  000B24  C02A  F025         	movff	___flmul@temp,___flmul@bexp
  3011  000B28  0EFF               	movlw	255
  3012  000B2A  1626               	andwf	___flmul@prod^0,f,c
  3013  000B2C  0EFF               	movlw	255
  3014  000B2E  1627               	andwf	(___flmul@prod+1)^0,f,c
  3015  000B30  0E7F               	movlw	127
  3016  000B32  1628               	andwf	(___flmul@prod+2)^0,f,c
  3017  000B34  0E00               	movlw	0
  3018  000B36  1629               	andwf	(___flmul@prod+3)^0,f,c
  3019  000B38  A025               	btfss	___flmul@bexp^0,0,c
  3020  000B3A  EFA1  F005         	goto	u3941
  3021  000B3E  EFA3  F005         	goto	u3940
  3022  000B42                     u3941:
  3023  000B42  EFA4  F005         	goto	l3716
  3024  000B46                     u3940:
  3025  000B46  8E28               	bsf	(___flmul@prod+2)^0,7,c
  3026  000B48                     l3716:
  3027  000B48  90D8               	bcf	status,0,c
  3028  000B4A  3025               	rrcf	___flmul@bexp^0,w,c
  3029  000B4C  6E29               	movwf	(___flmul@prod+3)^0,c
  3030  000B4E                     l3718:
  3031  000B4E  501F               	movf	___flmul@sign^0,w,c
  3032  000B50  1229               	iorwf	(___flmul@prod+3)^0,f,c
  3033  000B52  C026  F013         	movff	___flmul@prod,?___flmul
  3034  000B56  C027  F014         	movff	___flmul@prod+1,?___flmul+1
  3035  000B5A  C028  F015         	movff	___flmul@prod+2,?___flmul+2
  3036  000B5E  C029  F016         	movff	___flmul@prod+3,?___flmul+3
  3037  000B62                     l1359:
  3038  000B62  0012               	return		;funcret
  3039  000B64                     __end_of___flmul:
  3040                           	callstack 0
  3041                           
  3042 ;; *************** function ___fladd *****************
  3043 ;; Defined at:
  3044 ;;		line 10 in file "C:\Program Files\Microchip\xc8\v2.30\pic\sources\c99\common\sprcadd.c"
  3045 ;; Parameters:    Size  Location     Type
  3046 ;;  b               4   43[COMRAM] unsigned char 
  3047 ;;  a               4   47[COMRAM] unsigned char 
  3048 ;; Auto vars:     Size  Location     Type
  3049 ;;  grs             1   58[COMRAM] unsigned char 
  3050 ;;  bexp            1   57[COMRAM] unsigned char 
  3051 ;;  aexp            1   56[COMRAM] unsigned char 
  3052 ;;  signs           1   55[COMRAM] unsigned char 
  3053 ;; Return value:  Size  Location     Type
  3054 ;;                  4   43[COMRAM] unsigned char 
  3055 ;; Registers used:
  3056 ;;		wreg, status,2, status,0
  3057 ;; Tracked objects:
  3058 ;;		On entry : 0/0
  3059 ;;		On exit  : 0/0
  3060 ;;		Unchanged: 0/0
  3061 ;; Data sizes:     COMRAM   BANK0   BANK1   BANK2   BANK3   BANK4   BANK5   BANK6   BANK7   BANK8   BANK9  BANK10  BANK1
      +1  BANK12  BANK13  BANK14  BANK15
  3062 ;;      Params:         8       0       0       0       0       0       0       0       0       0       0       0       
      +0       0       0       0       0
  3063 ;;      Locals:         4       0       0       0       0       0       0       0       0       0       0       0       
      +0       0       0       0       0
  3064 ;;      Temps:          4       0       0       0       0       0       0       0       0       0       0       0       
      +0       0       0       0       0
  3065 ;;      Totals:        16       0       0       0       0       0       0       0       0       0       0       0       
      +0       0       0       0       0
  3066 ;;Total ram usage:       16 bytes
  3067 ;; Hardware stack levels used:    1
  3068 ;; Hardware stack levels required when called:    4
  3069 ;; This function calls:
  3070 ;;		Nothing
  3071 ;; This function is called by:
  3072 ;;		_I2C_Master_Mode_Clock_Configurations
  3073 ;;		_Servo_SetAngle
  3074 ;; This function uses a non-reentrant model
  3075 ;;
  3076                           
  3077                           	psect	text13
  3078  00027A                     __ptext13:
  3079                           	callstack 0
  3080  00027A                     ___fladd:
  3081                           	callstack 22
  3082  00027A  502F               	movf	(___fladd@b+3)^0,w,c
  3083  00027C  0B80               	andlw	128
  3084  00027E  6E38               	movwf	___fladd@signs^0,c
  3085  000280  502F               	movf	(___fladd@b+3)^0,w,c
  3086  000282  242F               	addwf	(___fladd@b+3)^0,w,c
  3087  000284  6E3A               	movwf	___fladd@bexp^0,c
  3088  000286  AE2E               	btfss	(___fladd@b+2)^0,7,c
  3089  000288  EF48  F001         	goto	u2701
  3090  00028C  EF4A  F001         	goto	u2700
  3091  000290                     u2701:
  3092  000290  EF4B  F001         	goto	l3012
  3093  000294                     u2700:
  3094  000294  803A               	bsf	___fladd@bexp^0,0,c
  3095  000296                     l3012:
  3096  000296  503A               	movf	___fladd@bexp^0,w,c
  3097  000298  B4D8               	btfsc	status,2,c
  3098  00029A  EF51  F001         	goto	u2711
  3099  00029E  EF53  F001         	goto	u2710
  3100  0002A2                     u2711:
  3101  0002A2  EF68  F001         	goto	l3022
  3102  0002A6                     u2710:
  3103  0002A6  283A               	incf	___fladd@bexp^0,w,c
  3104  0002A8  A4D8               	btfss	status,2,c
  3105  0002AA  EF59  F001         	goto	u2721
  3106  0002AE  EF5B  F001         	goto	u2720
  3107  0002B2                     u2721:
  3108  0002B2  EF63  F001         	goto	l3018
  3109  0002B6                     u2720:
  3110  0002B6  0E00               	movlw	0
  3111  0002B8  6E2C               	movwf	___fladd@b^0,c
  3112  0002BA  0E00               	movlw	0
  3113  0002BC  6E2D               	movwf	(___fladd@b+1)^0,c
  3114  0002BE  0E00               	movlw	0
  3115  0002C0  6E2E               	movwf	(___fladd@b+2)^0,c
  3116  0002C2  0E00               	movlw	0
  3117  0002C4  6E2F               	movwf	(___fladd@b+3)^0,c
  3118  0002C6                     l3018:
  3119  0002C6  8E2E               	bsf	(___fladd@b+2)^0,7,c
  3120  0002C8  0E00               	movlw	0
  3121  0002CA  6E2F               	movwf	(___fladd@b+3)^0,c
  3122  0002CC  EF70  F001         	goto	l3024
  3123  0002D0                     l3022:
  3124  0002D0  0E00               	movlw	0
  3125  0002D2  6E2C               	movwf	___fladd@b^0,c
  3126  0002D4  0E00               	movlw	0
  3127  0002D6  6E2D               	movwf	(___fladd@b+1)^0,c
  3128  0002D8  0E00               	movlw	0
  3129  0002DA  6E2E               	movwf	(___fladd@b+2)^0,c
  3130  0002DC  0E00               	movlw	0
  3131  0002DE  6E2F               	movwf	(___fladd@b+3)^0,c
  3132  0002E0                     l3024:
  3133  0002E0  5033               	movf	(___fladd@a+3)^0,w,c
  3134  0002E2  0B80               	andlw	128
  3135  0002E4  6E39               	movwf	___fladd@aexp^0,c
  3136  0002E6  5038               	movf	___fladd@signs^0,w,c
  3137  0002E8  1839               	xorwf	___fladd@aexp^0,w,c
  3138  0002EA  B4D8               	btfsc	status,2,c
  3139  0002EC  EF7A  F001         	goto	u2731
  3140  0002F0  EF7C  F001         	goto	u2730
  3141  0002F4                     u2731:
  3142  0002F4  EF7D  F001         	goto	l3030
  3143  0002F8                     u2730:
  3144  0002F8  8C38               	bsf	___fladd@signs^0,6,c
  3145  0002FA                     l3030:
  3146  0002FA  5033               	movf	(___fladd@a+3)^0,w,c
  3147  0002FC  2433               	addwf	(___fladd@a+3)^0,w,c
  3148  0002FE  6E39               	movwf	___fladd@aexp^0,c
  3149  000300  AE32               	btfss	(___fladd@a+2)^0,7,c
  3150  000302  EF85  F001         	goto	u2741
  3151  000306  EF87  F001         	goto	u2740
  3152  00030A                     u2741:
  3153  00030A  EF88  F001         	goto	l3036
  3154  00030E                     u2740:
  3155  00030E  8039               	bsf	___fladd@aexp^0,0,c
  3156  000310                     l3036:
  3157  000310  5039               	movf	___fladd@aexp^0,w,c
  3158  000312  B4D8               	btfsc	status,2,c
  3159  000314  EF8E  F001         	goto	u2751
  3160  000318  EF90  F001         	goto	u2750
  3161  00031C                     u2751:
  3162  00031C  EFA5  F001         	goto	l3046
  3163  000320                     u2750:
  3164  000320  2839               	incf	___fladd@aexp^0,w,c
  3165  000322  A4D8               	btfss	status,2,c
  3166  000324  EF96  F001         	goto	u2761
  3167  000328  EF98  F001         	goto	u2760
  3168  00032C                     u2761:
  3169  00032C  EFA0  F001         	goto	l3042
  3170  000330                     u2760:
  3171  000330  0E00               	movlw	0
  3172  000332  6E30               	movwf	___fladd@a^0,c
  3173  000334  0E00               	movlw	0
  3174  000336  6E31               	movwf	(___fladd@a+1)^0,c
  3175  000338  0E00               	movlw	0
  3176  00033A  6E32               	movwf	(___fladd@a+2)^0,c
  3177  00033C  0E00               	movlw	0
  3178  00033E  6E33               	movwf	(___fladd@a+3)^0,c
  3179  000340                     l3042:
  3180  000340  8E32               	bsf	(___fladd@a+2)^0,7,c
  3181  000342  0E00               	movlw	0
  3182  000344  6E33               	movwf	(___fladd@a+3)^0,c
  3183  000346  EFAD  F001         	goto	l3048
  3184  00034A                     l3046:
  3185  00034A  0E00               	movlw	0
  3186  00034C  6E30               	movwf	___fladd@a^0,c
  3187  00034E  0E00               	movlw	0
  3188  000350  6E31               	movwf	(___fladd@a+1)^0,c
  3189  000352  0E00               	movlw	0
  3190  000354  6E32               	movwf	(___fladd@a+2)^0,c
  3191  000356  0E00               	movlw	0
  3192  000358  6E33               	movwf	(___fladd@a+3)^0,c
  3193  00035A                     l3048:
  3194  00035A  503A               	movf	___fladd@bexp^0,w,c
  3195  00035C  5C39               	subwf	___fladd@aexp^0,w,c
  3196  00035E  B0D8               	btfsc	status,0,c
  3197  000360  EFB4  F001         	goto	u2771
  3198  000364  EFB6  F001         	goto	u2770
  3199  000368                     u2771:
  3200  000368  EFDD  F001         	goto	l3084
  3201  00036C                     u2770:
  3202  00036C  AC38               	btfss	___fladd@signs^0,6,c
  3203  00036E  EFBB  F001         	goto	u2781
  3204  000372  EFBD  F001         	goto	u2780
  3205  000376                     u2781:
  3206  000376  EFBF  F001         	goto	l3054
  3207  00037A                     u2780:
  3208  00037A  0E80               	movlw	128
  3209  00037C  1A38               	xorwf	___fladd@signs^0,f,c
  3210  00037E                     l3054:
  3211  00037E  C03A  F03B         	movff	___fladd@bexp,___fladd@grs
  3212  000382  C039  F03A         	movff	___fladd@aexp,___fladd@bexp
  3213  000386  C03B  F039         	movff	___fladd@grs,___fladd@aexp
  3214  00038A  C02C  F03B         	movff	___fladd@b,___fladd@grs
  3215  00038E  C030  F02C         	movff	___fladd@a,___fladd@b
  3216  000392  C03B  F030         	movff	___fladd@grs,___fladd@a
  3217  000396  C02D  F03B         	movff	___fladd@b+1,___fladd@grs
  3218  00039A  C031  F02D         	movff	___fladd@a+1,___fladd@b+1
  3219  00039E  C03B  F031         	movff	___fladd@grs,___fladd@a+1
  3220  0003A2  C02E  F03B         	movff	___fladd@b+2,___fladd@grs
  3221  0003A6  C032  F02E         	movff	___fladd@a+2,___fladd@b+2
  3222  0003AA  C03B  F032         	movff	___fladd@grs,___fladd@a+2
  3223  0003AE  C02F  F03B         	movff	___fladd@b+3,___fladd@grs
  3224  0003B2  C033  F02F         	movff	___fladd@a+3,___fladd@b+3
  3225  0003B6  C03B  F033         	movff	___fladd@grs,___fladd@a+3
  3226  0003BA                     l3084:
  3227  0003BA  0E00               	movlw	0
  3228  0003BC  6E3B               	movwf	___fladd@grs^0,c
  3229  0003BE  503A               	movf	___fladd@bexp^0,w,c
  3230  0003C0  C039  F034         	movff	___fladd@aexp,??___fladd
  3231  0003C4  6A35               	clrf	(??___fladd+1)^0,c
  3232  0003C6  5E34               	subwf	??___fladd^0,f,c
  3233  0003C8  0E00               	movlw	0
  3234  0003CA  5A35               	subwfb	(??___fladd+1)^0,f,c
  3235  0003CC  BE35               	btfsc	(??___fladd+1)^0,7,c
  3236  0003CE  EFF2  F001         	goto	u2791
  3237  0003D2  5035               	movf	(??___fladd+1)^0,w,c
  3238  0003D4  E109               	bnz	u2790
  3239  0003D6  0E1A               	movlw	26
  3240  0003D8  5C34               	subwf	??___fladd^0,w,c
  3241  0003DA  A0D8               	btfss	status,0,c
  3242  0003DC  EFF2  F001         	goto	u2791
  3243  0003E0  EFF4  F001         	goto	u2790
  3244  0003E4                     u2791:
  3245  0003E4  EF2B  F002         	goto	l1270
  3246  0003E8                     u2790:
  3247  0003E8  502C               	movf	___fladd@b^0,w,c
  3248  0003EA  102D               	iorwf	(___fladd@b+1)^0,w,c
  3249  0003EC  102E               	iorwf	(___fladd@b+2)^0,w,c
  3250  0003EE  102F               	iorwf	(___fladd@b+3)^0,w,c
  3251  0003F0  A4D8               	btfss	status,2,c
  3252  0003F2  EFFD  F001         	goto	u2801
  3253  0003F6  EF00  F002         	goto	u2800
  3254  0003FA                     u2801:
  3255  0003FA  0E01               	movlw	1
  3256  0003FC  EF01  F002         	goto	u2810
  3257  000400                     u2800:
  3258  000400  0E00               	movlw	0
  3259  000402                     u2810:
  3260  000402  6E3B               	movwf	___fladd@grs^0,c
  3261  000404  0E00               	movlw	0
  3262  000406  6E2C               	movwf	___fladd@b^0,c
  3263  000408  0E00               	movlw	0
  3264  00040A  6E2D               	movwf	(___fladd@b+1)^0,c
  3265  00040C  0E00               	movlw	0
  3266  00040E  6E2E               	movwf	(___fladd@b+2)^0,c
  3267  000410  0E00               	movlw	0
  3268  000412  6E2F               	movwf	(___fladd@b+3)^0,c
  3269  000414  C039  F03A         	movff	___fladd@aexp,___fladd@bexp
  3270  000418  EF34  F002         	goto	l1269
  3271  00041C                     l1271:
  3272  00041C  A03B               	btfss	___fladd@grs^0,0,c
  3273  00041E  EF13  F002         	goto	u2821
  3274  000422  EF15  F002         	goto	u2820
  3275  000426                     u2821:
  3276  000426  EF1B  F002         	goto	l3096
  3277  00042A                     u2820:
  3278  00042A  90D8               	bcf	status,0,c
  3279  00042C  303B               	rrcf	___fladd@grs^0,w,c
  3280  00042E  0901               	iorlw	1
  3281  000430  6E3B               	movwf	___fladd@grs^0,c
  3282  000432  EF1D  F002         	goto	l3098
  3283  000436                     l3096:
  3284  000436  90D8               	bcf	status,0,c
  3285  000438  323B               	rrcf	___fladd@grs^0,f,c
  3286  00043A                     l3098:
  3287  00043A  A02C               	btfss	___fladd@b^0,0,c
  3288  00043C  EF22  F002         	goto	u2831
  3289  000440  EF24  F002         	goto	u2830
  3290  000444                     u2831:
  3291  000444  EF25  F002         	goto	l3102
  3292  000448                     u2830:
  3293  000448  8E3B               	bsf	___fladd@grs^0,7,c
  3294  00044A                     l3102:
  3295  00044A  342F               	rlcf	(___fladd@b+3)^0,w,c
  3296  00044C  322F               	rrcf	(___fladd@b+3)^0,f,c
  3297  00044E  322E               	rrcf	(___fladd@b+2)^0,f,c
  3298  000450  322D               	rrcf	(___fladd@b+1)^0,f,c
  3299  000452  322C               	rrcf	___fladd@b^0,f,c
  3300  000454  2A3A               	incf	___fladd@bexp^0,f,c
  3301  000456                     l1270:
  3302  000456  5039               	movf	___fladd@aexp^0,w,c
  3303  000458  5C3A               	subwf	___fladd@bexp^0,w,c
  3304  00045A  A0D8               	btfss	status,0,c
  3305  00045C  EF32  F002         	goto	u2841
  3306  000460  EF34  F002         	goto	u2840
  3307  000464                     u2841:
  3308  000464  EF0E  F002         	goto	l1271
  3309  000468                     u2840:
  3310  000468                     l1269:
  3311  000468  BC38               	btfsc	___fladd@signs^0,6,c
  3312  00046A  EF39  F002         	goto	u2851
  3313  00046E  EF3B  F002         	goto	u2850
  3314  000472                     u2851:
  3315  000472  EF7B  F002         	goto	l3130
  3316  000476                     u2850:
  3317  000476  503A               	movf	___fladd@bexp^0,w,c
  3318  000478  A4D8               	btfss	status,2,c
  3319  00047A  EF41  F002         	goto	u2861
  3320  00047E  EF43  F002         	goto	u2860
  3321  000482                     u2861:
  3322  000482  EF4D  F002         	goto	l3112
  3323  000486                     u2860:
  3324  000486  0E00               	movlw	0
  3325  000488  6E2C               	movwf	?___fladd^0,c
  3326  00048A  0E00               	movlw	0
  3327  00048C  6E2D               	movwf	(?___fladd+1)^0,c
  3328  00048E  0E00               	movlw	0
  3329  000490  6E2E               	movwf	(?___fladd+2)^0,c
  3330  000492  0E00               	movlw	0
  3331  000494  6E2F               	movwf	(?___fladd+3)^0,c
  3332  000496  EF9C  F003         	goto	l1278
  3333  00049A                     l3112:
  3334  00049A  5030               	movf	___fladd@a^0,w,c
  3335  00049C  262C               	addwf	___fladd@b^0,f,c
  3336  00049E  5031               	movf	(___fladd@a+1)^0,w,c
  3337  0004A0  222D               	addwfc	(___fladd@b+1)^0,f,c
  3338  0004A2  5032               	movf	(___fladd@a+2)^0,w,c
  3339  0004A4  222E               	addwfc	(___fladd@b+2)^0,f,c
  3340  0004A6  5033               	movf	(___fladd@a+3)^0,w,c
  3341  0004A8  222F               	addwfc	(___fladd@b+3)^0,f,c
  3342  0004AA  A02F               	btfss	(___fladd@b+3)^0,0,c
  3343  0004AC  EF5A  F002         	goto	u2871
  3344  0004B0  EF5C  F002         	goto	u2870
  3345  0004B4                     u2871:
  3346  0004B4  EF08  F003         	goto	l3166
  3347  0004B8                     u2870:
  3348  0004B8  A03B               	btfss	___fladd@grs^0,0,c
  3349  0004BA  EF61  F002         	goto	u2881
  3350  0004BE  EF63  F002         	goto	u2880
  3351  0004C2                     u2881:
  3352  0004C2  EF69  F002         	goto	l3120
  3353  0004C6                     u2880:
  3354  0004C6  90D8               	bcf	status,0,c
  3355  0004C8  303B               	rrcf	___fladd@grs^0,w,c
  3356  0004CA  0901               	iorlw	1
  3357  0004CC  6E3B               	movwf	___fladd@grs^0,c
  3358  0004CE  EF6B  F002         	goto	l3122
  3359  0004D2                     l3120:
  3360  0004D2  90D8               	bcf	status,0,c
  3361  0004D4  323B               	rrcf	___fladd@grs^0,f,c
  3362  0004D6                     l3122:
  3363  0004D6  A02C               	btfss	___fladd@b^0,0,c
  3364  0004D8  EF70  F002         	goto	u2891
  3365  0004DC  EF72  F002         	goto	u2890
  3366  0004E0                     u2891:
  3367  0004E0  EF73  F002         	goto	l3126
  3368  0004E4                     u2890:
  3369  0004E4  8E3B               	bsf	___fladd@grs^0,7,c
  3370  0004E6                     l3126:
  3371  0004E6  342F               	rlcf	(___fladd@b+3)^0,w,c
  3372  0004E8  322F               	rrcf	(___fladd@b+3)^0,f,c
  3373  0004EA  322E               	rrcf	(___fladd@b+2)^0,f,c
  3374  0004EC  322D               	rrcf	(___fladd@b+1)^0,f,c
  3375  0004EE  322C               	rrcf	___fladd@b^0,f,c
  3376  0004F0  2A3A               	incf	___fladd@bexp^0,f,c
  3377  0004F2  EF08  F003         	goto	l3166
  3378  0004F6                     l3130:
  3379  0004F6  5030               	movf	___fladd@a^0,w,c
  3380  0004F8  5C2C               	subwf	___fladd@b^0,w,c
  3381  0004FA  5031               	movf	(___fladd@a+1)^0,w,c
  3382  0004FC  582D               	subwfb	(___fladd@b+1)^0,w,c
  3383  0004FE  5032               	movf	(___fladd@a+2)^0,w,c
  3384  000500  582E               	subwfb	(___fladd@b+2)^0,w,c
  3385  000502  502F               	movf	(___fladd@b+3)^0,w,c
  3386  000504  0A80               	xorlw	128
  3387  000506  6E34               	movwf	??___fladd^0,c
  3388  000508  5033               	movf	(___fladd@a+3)^0,w,c
  3389  00050A  0A80               	xorlw	128
  3390  00050C  5834               	subwfb	??___fladd^0,w,c
  3391  00050E  B0D8               	btfsc	status,0,c
  3392  000510  EF8C  F002         	goto	u2901
  3393  000514  EF8E  F002         	goto	u2900
  3394  000518                     u2901:
  3395  000518  EFB9  F002         	goto	l3140
  3396  00051C                     u2900:
  3397  00051C  502C               	movf	___fladd@b^0,w,c
  3398  00051E  5C30               	subwf	___fladd@a^0,w,c
  3399  000520  6E34               	movwf	??___fladd^0,c
  3400  000522  502D               	movf	(___fladd@b+1)^0,w,c
  3401  000524  5831               	subwfb	(___fladd@a+1)^0,w,c
  3402  000526  6E35               	movwf	(??___fladd+1)^0,c
  3403  000528  502E               	movf	(___fladd@b+2)^0,w,c
  3404  00052A  5832               	subwfb	(___fladd@a+2)^0,w,c
  3405  00052C  6E36               	movwf	(??___fladd+2)^0,c
  3406  00052E  502F               	movf	(___fladd@b+3)^0,w,c
  3407  000530  5833               	subwfb	(___fladd@a+3)^0,w,c
  3408  000532  6E37               	movwf	(??___fladd+3)^0,c
  3409  000534  0EFF               	movlw	255
  3410  000536  2434               	addwf	??___fladd^0,w,c
  3411  000538  6E2C               	movwf	___fladd@b^0,c
  3412  00053A  0EFF               	movlw	255
  3413  00053C  2035               	addwfc	(??___fladd+1)^0,w,c
  3414  00053E  6E2D               	movwf	(___fladd@b+1)^0,c
  3415  000540  0EFF               	movlw	255
  3416  000542  2036               	addwfc	(??___fladd+2)^0,w,c
  3417  000544  6E2E               	movwf	(___fladd@b+2)^0,c
  3418  000546  0EFF               	movlw	255
  3419  000548  2037               	addwfc	(??___fladd+3)^0,w,c
  3420  00054A  6E2F               	movwf	(___fladd@b+3)^0,c
  3421  00054C  0E80               	movlw	128
  3422  00054E  1A38               	xorwf	___fladd@signs^0,f,c
  3423  000550  6C3B               	negf	___fladd@grs^0,c
  3424  000552  503B               	movf	___fladd@grs^0,w,c
  3425  000554  A4D8               	btfss	status,2,c
  3426  000556  EFAF  F002         	goto	u2911
  3427  00055A  EFB1  F002         	goto	u2910
  3428  00055E                     u2911:
  3429  00055E  EFC1  F002         	goto	l1286
  3430  000562                     u2910:
  3431  000562  0E01               	movlw	1
  3432  000564  262C               	addwf	___fladd@b^0,f,c
  3433  000566  0E00               	movlw	0
  3434  000568  222D               	addwfc	(___fladd@b+1)^0,f,c
  3435  00056A  222E               	addwfc	(___fladd@b+2)^0,f,c
  3436  00056C  222F               	addwfc	(___fladd@b+3)^0,f,c
  3437  00056E  EFC1  F002         	goto	l1286
  3438  000572                     l3140:
  3439  000572  5030               	movf	___fladd@a^0,w,c
  3440  000574  5E2C               	subwf	___fladd@b^0,f,c
  3441  000576  5031               	movf	(___fladd@a+1)^0,w,c
  3442  000578  5A2D               	subwfb	(___fladd@b+1)^0,f,c
  3443  00057A  5032               	movf	(___fladd@a+2)^0,w,c
  3444  00057C  5A2E               	subwfb	(___fladd@b+2)^0,f,c
  3445  00057E  5033               	movf	(___fladd@a+3)^0,w,c
  3446  000580  5A2F               	subwfb	(___fladd@b+3)^0,f,c
  3447  000582                     l1286:
  3448  000582  502C               	movf	___fladd@b^0,w,c
  3449  000584  102D               	iorwf	(___fladd@b+1)^0,w,c
  3450  000586  102E               	iorwf	(___fladd@b+2)^0,w,c
  3451  000588  102F               	iorwf	(___fladd@b+3)^0,w,c
  3452  00058A  A4D8               	btfss	status,2,c
  3453  00058C  EFCA  F002         	goto	u2921
  3454  000590  EFCC  F002         	goto	u2920
  3455  000594                     u2921:
  3456  000594  EF01  F003         	goto	l3164
  3457  000598                     u2920:
  3458  000598  503B               	movf	___fladd@grs^0,w,c
  3459  00059A  A4D8               	btfss	status,2,c
  3460  00059C  EFD2  F002         	goto	u2931
  3461  0005A0  EFD4  F002         	goto	u2930
  3462  0005A4                     u2931:
  3463  0005A4  EF01  F003         	goto	l3164
  3464  0005A8                     u2930:
  3465  0005A8  0E00               	movlw	0
  3466  0005AA  6E2C               	movwf	?___fladd^0,c
  3467  0005AC  0E00               	movlw	0
  3468  0005AE  6E2D               	movwf	(?___fladd+1)^0,c
  3469  0005B0  0E00               	movlw	0
  3470  0005B2  6E2E               	movwf	(?___fladd+2)^0,c
  3471  0005B4  0E00               	movlw	0
  3472  0005B6  6E2F               	movwf	(?___fladd+3)^0,c
  3473  0005B8  EF9C  F003         	goto	l1278
  3474  0005BC                     l3148:
  3475  0005BC  90D8               	bcf	status,0,c
  3476  0005BE  362C               	rlcf	___fladd@b^0,f,c
  3477  0005C0  362D               	rlcf	(___fladd@b+1)^0,f,c
  3478  0005C2  362E               	rlcf	(___fladd@b+2)^0,f,c
  3479  0005C4  362F               	rlcf	(___fladd@b+3)^0,f,c
  3480  0005C6  AE3B               	btfss	___fladd@grs^0,7,c
  3481  0005C8  EFE8  F002         	goto	u2941
  3482  0005CC  EFEA  F002         	goto	u2940
  3483  0005D0                     u2941:
  3484  0005D0  EFEB  F002         	goto	l3154
  3485  0005D4                     u2940:
  3486  0005D4  802C               	bsf	___fladd@b^0,0,c
  3487  0005D6                     l3154:
  3488  0005D6  A03B               	btfss	___fladd@grs^0,0,c
  3489  0005D8  EFF0  F002         	goto	u2951
  3490  0005DC  EFF2  F002         	goto	u2950
  3491  0005E0                     u2951:
  3492  0005E0  EFF6  F002         	goto	l3158
  3493  0005E4                     u2950:
  3494  0005E4  80D8               	bsf	status,0,c
  3495  0005E6  363B               	rlcf	___fladd@grs^0,f,c
  3496  0005E8  EFF8  F002         	goto	l3160
  3497  0005EC                     l3158:
  3498  0005EC  90D8               	bcf	status,0,c
  3499  0005EE  363B               	rlcf	___fladd@grs^0,f,c
  3500  0005F0                     l3160:
  3501  0005F0  503A               	movf	___fladd@bexp^0,w,c
  3502  0005F2  B4D8               	btfsc	status,2,c
  3503  0005F4  EFFE  F002         	goto	u2961
  3504  0005F8  EF00  F003         	goto	u2960
  3505  0005FC                     u2961:
  3506  0005FC  EF01  F003         	goto	l3164
  3507  000600                     u2960:
  3508  000600  063A               	decf	___fladd@bexp^0,f,c
  3509  000602                     l3164:
  3510  000602  AE2E               	btfss	(___fladd@b+2)^0,7,c
  3511  000604  EF06  F003         	goto	u2971
  3512  000608  EF08  F003         	goto	u2970
  3513  00060C                     u2971:
  3514  00060C  EFDE  F002         	goto	l3148
  3515  000610                     u2970:
  3516  000610                     l3166:
  3517  000610  0E00               	movlw	0
  3518  000612  6E39               	movwf	___fladd@aexp^0,c
  3519  000614  AE3B               	btfss	___fladd@grs^0,7,c
  3520  000616  EF0F  F003         	goto	u2981
  3521  00061A  EF11  F003         	goto	u2980
  3522  00061E                     u2981:
  3523  00061E  EF29  F003         	goto	l1295
  3524  000622                     u2980:
  3525  000622  C03B  F034         	movff	___fladd@grs,??___fladd
  3526  000626  0E7F               	movlw	127
  3527  000628  1634               	andwf	??___fladd^0,f,c
  3528  00062A  B4D8               	btfsc	status,2,c
  3529  00062C  EF1A  F003         	goto	u2991
  3530  000630  EF1C  F003         	goto	u2990
  3531  000634                     u2991:
  3532  000634  EF20  F003         	goto	l1296
  3533  000638                     u2990:
  3534  000638                     l3172:
  3535  000638  0E01               	movlw	1
  3536  00063A  6E39               	movwf	___fladd@aexp^0,c
  3537  00063C  EF29  F003         	goto	l1295
  3538  000640                     l1296:
  3539  000640  A02C               	btfss	___fladd@b^0,0,c
  3540  000642  EF25  F003         	goto	u3001
  3541  000646  EF27  F003         	goto	u3000
  3542  00064A                     u3001:
  3543  00064A  EF29  F003         	goto	l1295
  3544  00064E                     u3000:
  3545  00064E  EF1C  F003         	goto	l3172
  3546  000652                     l1295:
  3547  000652  5039               	movf	___fladd@aexp^0,w,c
  3548  000654  B4D8               	btfsc	status,2,c
  3549  000656  EF2F  F003         	goto	u3011
  3550  00065A  EF31  F003         	goto	u3010
  3551  00065E                     u3011:
  3552  00065E  EF5C  F003         	goto	l3184
  3553  000662                     u3010:
  3554  000662  0E01               	movlw	1
  3555  000664  262C               	addwf	___fladd@b^0,f,c
  3556  000666  0E00               	movlw	0
  3557  000668  222D               	addwfc	(___fladd@b+1)^0,f,c
  3558  00066A  222E               	addwfc	(___fladd@b+2)^0,f,c
  3559  00066C  222F               	addwfc	(___fladd@b+3)^0,f,c
  3560  00066E  A02F               	btfss	(___fladd@b+3)^0,0,c
  3561  000670  EF3C  F003         	goto	u3021
  3562  000674  EF3E  F003         	goto	u3020
  3563  000678                     u3021:
  3564  000678  EF5C  F003         	goto	l3184
  3565  00067C                     u3020:
  3566  00067C  C02C  F034         	movff	___fladd@b,??___fladd
  3567  000680  C02D  F035         	movff	___fladd@b+1,??___fladd+1
  3568  000684  C02E  F036         	movff	___fladd@b+2,??___fladd+2
  3569  000688  C02F  F037         	movff	___fladd@b+3,??___fladd+3
  3570  00068C  3437               	rlcf	(??___fladd+3)^0,w,c
  3571  00068E  3237               	rrcf	(??___fladd+3)^0,f,c
  3572  000690  3236               	rrcf	(??___fladd+2)^0,f,c
  3573  000692  3235               	rrcf	(??___fladd+1)^0,f,c
  3574  000694  3234               	rrcf	??___fladd^0,f,c
  3575  000696  C034  F02C         	movff	??___fladd,___fladd@b
  3576  00069A  C035  F02D         	movff	??___fladd+1,___fladd@b+1
  3577  00069E  C036  F02E         	movff	??___fladd+2,___fladd@b+2
  3578  0006A2  C037  F02F         	movff	??___fladd+3,___fladd@b+3
  3579  0006A6  283A               	incf	___fladd@bexp^0,w,c
  3580  0006A8  B4D8               	btfsc	status,2,c
  3581  0006AA  EF59  F003         	goto	u3031
  3582  0006AE  EF5B  F003         	goto	u3030
  3583  0006B2                     u3031:
  3584  0006B2  EF5C  F003         	goto	l3184
  3585  0006B6                     u3030:
  3586  0006B6  2A3A               	incf	___fladd@bexp^0,f,c
  3587  0006B8                     l3184:
  3588  0006B8  283A               	incf	___fladd@bexp^0,w,c
  3589  0006BA  B4D8               	btfsc	status,2,c
  3590  0006BC  EF62  F003         	goto	u3041
  3591  0006C0  EF64  F003         	goto	u3040
  3592  0006C4                     u3041:
  3593  0006C4  EF6C  F003         	goto	l3188
  3594  0006C8                     u3040:
  3595  0006C8  503A               	movf	___fladd@bexp^0,w,c
  3596  0006CA  A4D8               	btfss	status,2,c
  3597  0006CC  EF6A  F003         	goto	u3051
  3598  0006D0  EF6C  F003         	goto	u3050
  3599  0006D4                     u3051:
  3600  0006D4  EF7E  F003         	goto	l3192
  3601  0006D8                     u3050:
  3602  0006D8                     l3188:
  3603  0006D8  0E00               	movlw	0
  3604  0006DA  6E2C               	movwf	___fladd@b^0,c
  3605  0006DC  0E00               	movlw	0
  3606  0006DE  6E2D               	movwf	(___fladd@b+1)^0,c
  3607  0006E0  0E00               	movlw	0
  3608  0006E2  6E2E               	movwf	(___fladd@b+2)^0,c
  3609  0006E4  0E00               	movlw	0
  3610  0006E6  6E2F               	movwf	(___fladd@b+3)^0,c
  3611  0006E8  503A               	movf	___fladd@bexp^0,w,c
  3612  0006EA  A4D8               	btfss	status,2,c
  3613  0006EC  EF7A  F003         	goto	u3061
  3614  0006F0  EF7C  F003         	goto	u3060
  3615  0006F4                     u3061:
  3616  0006F4  EF7E  F003         	goto	l3192
  3617  0006F8                     u3060:
  3618  0006F8  0E00               	movlw	0
  3619  0006FA  6E38               	movwf	___fladd@signs^0,c
  3620  0006FC                     l3192:
  3621  0006FC  A03A               	btfss	___fladd@bexp^0,0,c
  3622  0006FE  EF83  F003         	goto	u3071
  3623  000702  EF85  F003         	goto	u3070
  3624  000706                     u3071:
  3625  000706  EF88  F003         	goto	l3196
  3626  00070A                     u3070:
  3627  00070A  8E2E               	bsf	(___fladd@b+2)^0,7,c
  3628  00070C  EF89  F003         	goto	l3198
  3629  000710                     l3196:
  3630  000710  9E2E               	bcf	(___fladd@b+2)^0,7,c
  3631  000712                     l3198:
  3632  000712  90D8               	bcf	status,0,c
  3633  000714  303A               	rrcf	___fladd@bexp^0,w,c
  3634  000716  6E2F               	movwf	(___fladd@b+3)^0,c
  3635  000718  AE38               	btfss	___fladd@signs^0,7,c
  3636  00071A  EF91  F003         	goto	u3081
  3637  00071E  EF93  F003         	goto	u3080
  3638  000722                     u3081:
  3639  000722  EF94  F003         	goto	l3204
  3640  000726                     u3080:
  3641  000726  8E2F               	bsf	(___fladd@b+3)^0,7,c
  3642  000728                     l3204:
  3643  000728  C02C  F02C         	movff	___fladd@b,?___fladd
  3644  00072C  C02D  F02D         	movff	___fladd@b+1,?___fladd+1
  3645  000730  C02E  F02E         	movff	___fladd@b+2,?___fladd+2
  3646  000734  C02F  F02F         	movff	___fladd@b+3,?___fladd+3
  3647  000738                     l1278:
  3648  000738  0012               	return		;funcret
  3649  00073A                     __end_of___fladd:
  3650                           	callstack 0
  3651                           
  3652 ;; *************** function _PCA_Write_Reg *****************
  3653 ;; Defined at:
  3654 ;;		line 65 in file "ECU/SERVO_MOTOR_CONTROL_BY_I2C/ecu_servo_motor_i2c.c"
  3655 ;; Parameters:    Size  Location     Type
  3656 ;;  i2c_obj         2   10[COMRAM] PTR const struct .
  3657 ;;		 -> i2c_obj(15), 
  3658 ;;  slave_addres    1   12[COMRAM] unsigned char 
  3659 ;;  reg_address     1   13[COMRAM] unsigned char 
  3660 ;;  data            1   14[COMRAM] unsigned char 
  3661 ;; Auto vars:     Size  Location     Type
  3662 ;;  ack             1   15[COMRAM] unsigned char 
  3663 ;; Return value:  Size  Location     Type
  3664 ;;                  1    wreg      void 
  3665 ;; Registers used:
  3666 ;;		wreg, fsr2l, fsr2h, status,2, status,0, cstack
  3667 ;; Tracked objects:
  3668 ;;		On entry : 0/0
  3669 ;;		On exit  : 0/0
  3670 ;;		Unchanged: 0/0
  3671 ;; Data sizes:     COMRAM   BANK0   BANK1   BANK2   BANK3   BANK4   BANK5   BANK6   BANK7   BANK8   BANK9  BANK10  BANK1
      +1  BANK12  BANK13  BANK14  BANK15
  3672 ;;      Params:         5       0       0       0       0       0       0       0       0       0       0       0       
      +0       0       0       0       0
  3673 ;;      Locals:         1       0       0       0       0       0       0       0       0       0       0       0       
      +0       0       0       0       0
  3674 ;;      Temps:          0       0       0       0       0       0       0       0       0       0       0       0       
      +0       0       0       0       0
  3675 ;;      Totals:         6       0       0       0       0       0       0       0       0       0       0       0       
      +0       0       0       0       0
  3676 ;;Total ram usage:        6 bytes
  3677 ;; Hardware stack levels used:    1
  3678 ;; Hardware stack levels required when called:    5
  3679 ;; This function calls:
  3680 ;;		_MSSP_I2C_Master_Send_Start
  3681 ;;		_MSSP_I2C_Master_Send_Stop
  3682 ;;		_MSSP_I2C_Master_Write_Blocking
  3683 ;; This function is called by:
  3684 ;;		_ServoDriver_Init
  3685 ;;		_Servo_SetAngle
  3686 ;; This function uses a non-reentrant model
  3687 ;;
  3688                           
  3689                           	psect	text14
  3690  001744                     __ptext14:
  3691                           	callstack 0
  3692  001744                     _PCA_Write_Reg:
  3693                           	callstack 23
  3694  001744                     
  3695                           ;ECU/SERVO_MOTOR_CONTROL_BY_I2C/ecu_servo_motor_i2c.c: 65: static void PCA_Write_Reg(con
      +                          st mssp_i2c_st *i2c_obj,uint8 slave_address,uint8 reg_address,uint8 data);ECU/SERVO_MOTO
      +                          R_CONTROL_BY_I2C/ecu_servo_motor_i2c.c: 66: {;ECU/SERVO_MOTOR_CONTROL_BY_I2C/ecu_servo_m
      +                          otor_i2c.c: 67:     uint8 ack=6;
  3696  001744  0E06               	movlw	6
  3697  001746  6E10               	movwf	PCA_Write_Reg@ack^0,c
  3698  001748                     
  3699                           ;ECU/SERVO_MOTOR_CONTROL_BY_I2C/ecu_servo_motor_i2c.c: 69:     MSSP_I2C_Master_Send_Star
      +                          t(i2c_obj);
  3700  001748  C00B  F005         	movff	PCA_Write_Reg@i2c_obj,MSSP_I2C_Master_Send_Start@i2c_obj
  3701  00174C  C00C  F006         	movff	PCA_Write_Reg@i2c_obj+1,MSSP_I2C_Master_Send_Start@i2c_obj+1
  3702  001750  EC48  F00C         	call	_MSSP_I2C_Master_Send_Start	;wreg free
  3703  001754                     
  3704                           ;ECU/SERVO_MOTOR_CONTROL_BY_I2C/ecu_servo_motor_i2c.c: 71:     MSSP_I2C_Master_Write_Blo
      +                          cking(i2c_obj,slave_address,&ack);
  3705  001754  C00B  F005         	movff	PCA_Write_Reg@i2c_obj,MSSP_I2C_Master_Write_Blocking@i2c_obj
  3706  001758  C00C  F006         	movff	PCA_Write_Reg@i2c_obj+1,MSSP_I2C_Master_Write_Blocking@i2c_obj+1
  3707  00175C  C00D  F007         	movff	PCA_Write_Reg@slave_address,MSSP_I2C_Master_Write_Blocking@i2c_data
  3708  001760  0E10               	movlw	low PCA_Write_Reg@ack
  3709  001762  6E08               	movwf	MSSP_I2C_Master_Write_Blocking@_ack^0,c
  3710  001764  0E00               	movlw	high PCA_Write_Reg@ack
  3711  001766  6E09               	movwf	(MSSP_I2C_Master_Write_Blocking@_ack+1)^0,c
  3712  001768  EC6E  F00B         	call	_MSSP_I2C_Master_Write_Blocking	;wreg free
  3713  00176C                     
  3714                           ;ECU/SERVO_MOTOR_CONTROL_BY_I2C/ecu_servo_motor_i2c.c: 73:     MSSP_I2C_Master_Write_Blo
      +                          cking(i2c_obj,reg_address,&ack);
  3715  00176C  C00B  F005         	movff	PCA_Write_Reg@i2c_obj,MSSP_I2C_Master_Write_Blocking@i2c_obj
  3716  001770  C00C  F006         	movff	PCA_Write_Reg@i2c_obj+1,MSSP_I2C_Master_Write_Blocking@i2c_obj+1
  3717  001774  C00E  F007         	movff	PCA_Write_Reg@reg_address,MSSP_I2C_Master_Write_Blocking@i2c_data
  3718  001778  0E10               	movlw	low PCA_Write_Reg@ack
  3719  00177A  6E08               	movwf	MSSP_I2C_Master_Write_Blocking@_ack^0,c
  3720  00177C  0E00               	movlw	high PCA_Write_Reg@ack
  3721  00177E  6E09               	movwf	(MSSP_I2C_Master_Write_Blocking@_ack+1)^0,c
  3722  001780  EC6E  F00B         	call	_MSSP_I2C_Master_Write_Blocking	;wreg free
  3723  001784                     
  3724                           ;ECU/SERVO_MOTOR_CONTROL_BY_I2C/ecu_servo_motor_i2c.c: 75:     MSSP_I2C_Master_Write_Blo
      +                          cking(i2c_obj,data,&ack);
  3725  001784  C00B  F005         	movff	PCA_Write_Reg@i2c_obj,MSSP_I2C_Master_Write_Blocking@i2c_obj
  3726  001788  C00C  F006         	movff	PCA_Write_Reg@i2c_obj+1,MSSP_I2C_Master_Write_Blocking@i2c_obj+1
  3727  00178C  C00F  F007         	movff	PCA_Write_Reg@data,MSSP_I2C_Master_Write_Blocking@i2c_data
  3728  001790  0E10               	movlw	low PCA_Write_Reg@ack
  3729  001792  6E08               	movwf	MSSP_I2C_Master_Write_Blocking@_ack^0,c
  3730  001794  0E00               	movlw	high PCA_Write_Reg@ack
  3731  001796  6E09               	movwf	(MSSP_I2C_Master_Write_Blocking@_ack+1)^0,c
  3732  001798  EC6E  F00B         	call	_MSSP_I2C_Master_Write_Blocking	;wreg free
  3733  00179C                     
  3734                           ;ECU/SERVO_MOTOR_CONTROL_BY_I2C/ecu_servo_motor_i2c.c: 77:     MSSP_I2C_Master_Send_Stop
      +                          (i2c_obj);
  3735  00179C  C00B  F005         	movff	PCA_Write_Reg@i2c_obj,MSSP_I2C_Master_Send_Stop@i2c_obj
  3736  0017A0  C00C  F006         	movff	PCA_Write_Reg@i2c_obj+1,MSSP_I2C_Master_Send_Stop@i2c_obj+1
  3737  0017A4  EC2C  F00C         	call	_MSSP_I2C_Master_Send_Stop	;wreg free
  3738  0017A8  0012               	return		;funcret
  3739  0017AA                     __end_of_PCA_Write_Reg:
  3740                           	callstack 0
  3741                           
  3742 ;; *************** function _MSSP_I2C_Master_Write_Blocking *****************
  3743 ;; Defined at:
  3744 ;;		line 196 in file "MCAL/I2C/mcal_i2c.c"
  3745 ;; Parameters:    Size  Location     Type
  3746 ;;  i2c_obj         2    4[COMRAM] PTR const struct .
  3747 ;;		 -> i2c_obj(15), 
  3748 ;;  i2c_data        1    6[COMRAM] unsigned char 
  3749 ;;  _ack            2    7[COMRAM] PTR unsigned char 
  3750 ;;		 -> PCA_Write_Reg@ack(1), 
  3751 ;; Auto vars:     Size  Location     Type
  3752 ;;  ERRORSTATUS     1    0        unsigned char 
  3753 ;; Return value:  Size  Location     Type
  3754 ;;                  1    wreg      unsigned char 
  3755 ;; Registers used:
  3756 ;;		wreg, fsr2l, fsr2h, status,2, status,0
  3757 ;; Tracked objects:
  3758 ;;		On entry : 0/0
  3759 ;;		On exit  : 0/0
  3760 ;;		Unchanged: 0/0
  3761 ;; Data sizes:     COMRAM   BANK0   BANK1   BANK2   BANK3   BANK4   BANK5   BANK6   BANK7   BANK8   BANK9  BANK10  BANK1
      +1  BANK12  BANK13  BANK14  BANK15
  3762 ;;      Params:         5       0       0       0       0       0       0       0       0       0       0       0       
      +0       0       0       0       0
  3763 ;;      Locals:         1       0       0       0       0       0       0       0       0       0       0       0       
      +0       0       0       0       0
  3764 ;;      Temps:          0       0       0       0       0       0       0       0       0       0       0       0       
      +0       0       0       0       0
  3765 ;;      Totals:         6       0       0       0       0       0       0       0       0       0       0       0       
      +0       0       0       0       0
  3766 ;;Total ram usage:        6 bytes
  3767 ;; Hardware stack levels used:    1
  3768 ;; Hardware stack levels required when called:    4
  3769 ;; This function calls:
  3770 ;;		Nothing
  3771 ;; This function is called by:
  3772 ;;		_PCA_Write_Reg
  3773 ;; This function uses a non-reentrant model
  3774 ;;
  3775                           
  3776                           	psect	text15
  3777  0016DC                     __ptext15:
  3778                           	callstack 0
  3779  0016DC                     _MSSP_I2C_Master_Write_Blocking:
  3780                           	callstack 23
  3781  0016DC                     
  3782                           ;MCAL/I2C/mcal_i2c.c: 199:     if (((void*)0)==i2c_obj||((void*)0)==_ack)
  3783  0016DC  5005               	movf	MSSP_I2C_Master_Write_Blocking@i2c_obj^0,w,c
  3784  0016DE  1006               	iorwf	(MSSP_I2C_Master_Write_Blocking@i2c_obj+1)^0,w,c
  3785  0016E0  B4D8               	btfsc	status,2,c
  3786  0016E2  EF75  F00B         	goto	u3611
  3787  0016E6  EF77  F00B         	goto	u3610
  3788  0016EA                     u3611:
  3789  0016EA  EF80  F00B         	goto	l3514
  3790  0016EE                     u3610:
  3791  0016EE  5008               	movf	MSSP_I2C_Master_Write_Blocking@_ack^0,w,c
  3792  0016F0  1009               	iorwf	(MSSP_I2C_Master_Write_Blocking@_ack+1)^0,w,c
  3793  0016F2  A4D8               	btfss	status,2,c
  3794  0016F4  EF7E  F00B         	goto	u3621
  3795  0016F8  EF80  F00B         	goto	u3620
  3796  0016FC                     u3621:
  3797  0016FC  EF82  F00B         	goto	l631
  3798  001700                     u3620:
  3799  001700                     l3514:
  3800                           
  3801                           ;MCAL/I2C/mcal_i2c.c: 202:     }
  3802  001700  EFA1  F00B         	goto	l640
  3803  001704                     l631:
  3804                           
  3805                           ;MCAL/I2C/mcal_i2c.c: 204:     {;MCAL/I2C/mcal_i2c.c: 206:         SSPBUF=i2c_data;
  3806  001704  C007  FFC9         	movff	MSSP_I2C_Master_Write_Blocking@i2c_data,4041	;volatile
  3807  001708                     l635:
  3808  001708  B0C7               	btfsc	199,0,c	;volatile
  3809  00170A  EF89  F00B         	goto	u3631
  3810  00170E  EF8B  F00B         	goto	u3630
  3811  001712                     u3631:
  3812  001712  EF84  F00B         	goto	l635
  3813  001716                     u3630:
  3814  001716                     
  3815                           ;MCAL/I2C/mcal_i2c.c: 210:         PIR1bits.SSPIF = 0;
  3816  001716  969E               	bcf	158,3,c	;volatile
  3817                           
  3818                           ;MCAL/I2C/mcal_i2c.c: 212:         if(0 == SSPCON2bits.ACKSTAT)
  3819  001718  BCC5               	btfsc	197,6,c	;volatile
  3820  00171A  EF91  F00B         	goto	u3641
  3821  00171E  EF93  F00B         	goto	u3640
  3822  001722                     u3641:
  3823  001722  EF9B  F00B         	goto	l3518
  3824  001726                     u3640:
  3825  001726                     
  3826                           ;MCAL/I2C/mcal_i2c.c: 213:         {;MCAL/I2C/mcal_i2c.c: 214:             *_ack = 0;
  3827  001726  C008  FFD9         	movff	MSSP_I2C_Master_Write_Blocking@_ack,fsr2l
  3828  00172A  C009  FFDA         	movff	MSSP_I2C_Master_Write_Blocking@_ack+1,fsr2h
  3829  00172E  0E00               	movlw	0
  3830  001730  6EDF               	movwf	indf2,c
  3831                           
  3832                           ;MCAL/I2C/mcal_i2c.c: 215:         }
  3833  001732  EFA1  F00B         	goto	l640
  3834  001736                     l3518:
  3835                           
  3836                           ;MCAL/I2C/mcal_i2c.c: 217:         {;MCAL/I2C/mcal_i2c.c: 218:             *_ack = 1;
  3837  001736  C008  FFD9         	movff	MSSP_I2C_Master_Write_Blocking@_ack,fsr2l
  3838  00173A  C009  FFDA         	movff	MSSP_I2C_Master_Write_Blocking@_ack+1,fsr2h
  3839  00173E  0E01               	movlw	1
  3840  001740  6EDF               	movwf	indf2,c
  3841  001742                     l640:
  3842  001742  0012               	return		;funcret
  3843  001744                     __end_of_MSSP_I2C_Master_Write_Blocking:
  3844                           	callstack 0
  3845                           
  3846 ;; *************** function _MSSP_I2C_Master_Send_Stop *****************
  3847 ;; Defined at:
  3848 ;;		line 166 in file "MCAL/I2C/mcal_i2c.c"
  3849 ;; Parameters:    Size  Location     Type
  3850 ;;  i2c_obj         2    4[COMRAM] PTR const struct .
  3851 ;;		 -> i2c_obj(15), 
  3852 ;; Auto vars:     Size  Location     Type
  3853 ;;  ERRORSTATUS     1    0        unsigned char 
  3854 ;; Return value:  Size  Location     Type
  3855 ;;                  1    wreg      unsigned char 
  3856 ;; Registers used:
  3857 ;;		wreg, status,2, status,0
  3858 ;; Tracked objects:
  3859 ;;		On entry : 0/0
  3860 ;;		On exit  : 0/0
  3861 ;;		Unchanged: 0/0
  3862 ;; Data sizes:     COMRAM   BANK0   BANK1   BANK2   BANK3   BANK4   BANK5   BANK6   BANK7   BANK8   BANK9  BANK10  BANK1
      +1  BANK12  BANK13  BANK14  BANK15
  3863 ;;      Params:         2       0       0       0       0       0       0       0       0       0       0       0       
      +0       0       0       0       0
  3864 ;;      Locals:         1       0       0       0       0       0       0       0       0       0       0       0       
      +0       0       0       0       0
  3865 ;;      Temps:          0       0       0       0       0       0       0       0       0       0       0       0       
      +0       0       0       0       0
  3866 ;;      Totals:         3       0       0       0       0       0       0       0       0       0       0       0       
      +0       0       0       0       0
  3867 ;;Total ram usage:        3 bytes
  3868 ;; Hardware stack levels used:    1
  3869 ;; Hardware stack levels required when called:    4
  3870 ;; This function calls:
  3871 ;;		Nothing
  3872 ;; This function is called by:
  3873 ;;		_PCA_Write_Reg
  3874 ;; This function uses a non-reentrant model
  3875 ;;
  3876                           
  3877                           	psect	text16
  3878  001858                     __ptext16:
  3879                           	callstack 0
  3880  001858                     _MSSP_I2C_Master_Send_Stop:
  3881                           	callstack 23
  3882  001858                     
  3883                           ;MCAL/I2C/mcal_i2c.c: 169:     if (((void*)0)==i2c_obj)
  3884  001858  5005               	movf	MSSP_I2C_Master_Send_Stop@i2c_obj^0,w,c
  3885  00185A  1006               	iorwf	(MSSP_I2C_Master_Send_Stop@i2c_obj+1)^0,w,c
  3886  00185C  A4D8               	btfss	status,2,c
  3887  00185E  EF33  F00C         	goto	u3581
  3888  001862  EF35  F00C         	goto	u3580
  3889  001866                     u3581:
  3890  001866  EF37  F00C         	goto	l621
  3891  00186A                     u3580:
  3892  00186A                     l3500:
  3893                           
  3894                           ;MCAL/I2C/mcal_i2c.c: 172:     }
  3895  00186A  EF47  F00C         	goto	l628
  3896  00186E                     l621:
  3897                           
  3898                           ;MCAL/I2C/mcal_i2c.c: 174:     {;MCAL/I2C/mcal_i2c.c: 176:         SSPCON2bits.PEN = 1;
  3899  00186E  84C5               	bsf	197,2,c	;volatile
  3900  001870                     l623:
  3901  001870  B4C5               	btfsc	197,2,c	;volatile
  3902  001872  EF3D  F00C         	goto	u3591
  3903  001876  EF3F  F00C         	goto	u3590
  3904  00187A                     u3591:
  3905  00187A  EF38  F00C         	goto	l623
  3906  00187E                     u3590:
  3907  00187E                     
  3908                           ;MCAL/I2C/mcal_i2c.c: 180:         PIR1bits.SSPIF = 0;
  3909  00187E  969E               	bcf	158,3,c	;volatile
  3910                           
  3911                           ;MCAL/I2C/mcal_i2c.c: 182:         if(1 == SSPSTATbits.P)
  3912  001880  A8C7               	btfss	199,4,c	;volatile
  3913  001882  EF45  F00C         	goto	u3601
  3914  001886  EF47  F00C         	goto	u3600
  3915  00188A                     u3601:
  3916  00188A  EF35  F00C         	goto	l3500
  3917  00188E                     u3600:
  3918  00188E                     l628:
  3919  00188E  0012               	return		;funcret
  3920  001890                     __end_of_MSSP_I2C_Master_Send_Stop:
  3921                           	callstack 0
  3922                           
  3923 ;; *************** function _MSSP_I2C_Master_Send_Start *****************
  3924 ;; Defined at:
  3925 ;;		line 116 in file "MCAL/I2C/mcal_i2c.c"
  3926 ;; Parameters:    Size  Location     Type
  3927 ;;  i2c_obj         2    4[COMRAM] PTR const struct .
  3928 ;;		 -> i2c_obj(15), 
  3929 ;; Auto vars:     Size  Location     Type
  3930 ;;  ERRORSTATUS     1    0        unsigned char 
  3931 ;; Return value:  Size  Location     Type
  3932 ;;                  1    wreg      unsigned char 
  3933 ;; Registers used:
  3934 ;;		wreg, status,2, status,0
  3935 ;; Tracked objects:
  3936 ;;		On entry : 0/0
  3937 ;;		On exit  : 0/0
  3938 ;;		Unchanged: 0/0
  3939 ;; Data sizes:     COMRAM   BANK0   BANK1   BANK2   BANK3   BANK4   BANK5   BANK6   BANK7   BANK8   BANK9  BANK10  BANK1
      +1  BANK12  BANK13  BANK14  BANK15
  3940 ;;      Params:         2       0       0       0       0       0       0       0       0       0       0       0       
      +0       0       0       0       0
  3941 ;;      Locals:         1       0       0       0       0       0       0       0       0       0       0       0       
      +0       0       0       0       0
  3942 ;;      Temps:          0       0       0       0       0       0       0       0       0       0       0       0       
      +0       0       0       0       0
  3943 ;;      Totals:         3       0       0       0       0       0       0       0       0       0       0       0       
      +0       0       0       0       0
  3944 ;;Total ram usage:        3 bytes
  3945 ;; Hardware stack levels used:    1
  3946 ;; Hardware stack levels required when called:    4
  3947 ;; This function calls:
  3948 ;;		Nothing
  3949 ;; This function is called by:
  3950 ;;		_PCA_Write_Reg
  3951 ;; This function uses a non-reentrant model
  3952 ;;
  3953                           
  3954                           	psect	text17
  3955  001890                     __ptext17:
  3956                           	callstack 0
  3957  001890                     _MSSP_I2C_Master_Send_Start:
  3958                           	callstack 23
  3959  001890                     
  3960                           ;MCAL/I2C/mcal_i2c.c: 119:     if (((void*)0)==i2c_obj)
  3961  001890  5005               	movf	MSSP_I2C_Master_Send_Start@i2c_obj^0,w,c
  3962  001892  1006               	iorwf	(MSSP_I2C_Master_Send_Start@i2c_obj+1)^0,w,c
  3963  001894  A4D8               	btfss	status,2,c
  3964  001896  EF4F  F00C         	goto	u3551
  3965  00189A  EF51  F00C         	goto	u3550
  3966  00189E                     u3551:
  3967  00189E  EF53  F00C         	goto	l603
  3968  0018A2                     u3550:
  3969  0018A2                     l3488:
  3970                           
  3971                           ;MCAL/I2C/mcal_i2c.c: 122:     }
  3972  0018A2  EF63  F00C         	goto	l610
  3973  0018A6                     l603:
  3974                           
  3975                           ;MCAL/I2C/mcal_i2c.c: 124:     {;MCAL/I2C/mcal_i2c.c: 126:         SSPCON2bits.SEN = 1;
  3976  0018A6  80C5               	bsf	197,0,c	;volatile
  3977  0018A8                     l605:
  3978  0018A8  B0C5               	btfsc	197,0,c	;volatile
  3979  0018AA  EF59  F00C         	goto	u3561
  3980  0018AE  EF5B  F00C         	goto	u3560
  3981  0018B2                     u3561:
  3982  0018B2  EF54  F00C         	goto	l605
  3983  0018B6                     u3560:
  3984  0018B6                     
  3985                           ;MCAL/I2C/mcal_i2c.c: 130:         PIR1bits.SSPIF = 0;
  3986  0018B6  969E               	bcf	158,3,c	;volatile
  3987                           
  3988                           ;MCAL/I2C/mcal_i2c.c: 132:         if(1 == SSPSTATbits.S)
  3989  0018B8  A6C7               	btfss	199,3,c	;volatile
  3990  0018BA  EF61  F00C         	goto	u3571
  3991  0018BE  EF63  F00C         	goto	u3570
  3992  0018C2                     u3571:
  3993  0018C2  EF51  F00C         	goto	l3488
  3994  0018C6                     u3570:
  3995  0018C6                     l610:
  3996  0018C6  0012               	return		;funcret
  3997  0018C8                     __end_of_MSSP_I2C_Master_Send_Start:
  3998                           	callstack 0
  3999                           
  4000 ;; *************** function _InterruptManagerLow *****************
  4001 ;; Defined at:
  4002 ;;		line 101 in file "MCAL/Interrupts/mcal_interrupt_manager.c"
  4003 ;; Parameters:    Size  Location     Type
  4004 ;;		None
  4005 ;; Auto vars:     Size  Location     Type
  4006 ;;		None
  4007 ;; Return value:  Size  Location     Type
  4008 ;;                  1    wreg      void 
  4009 ;; Registers used:
  4010 ;;		wreg, status,2, cstack
  4011 ;; Tracked objects:
  4012 ;;		On entry : 0/0
  4013 ;;		On exit  : 0/0
  4014 ;;		Unchanged: 0/0
  4015 ;; Data sizes:     COMRAM   BANK0   BANK1   BANK2   BANK3   BANK4   BANK5   BANK6   BANK7   BANK8   BANK9  BANK10  BANK1
      +1  BANK12  BANK13  BANK14  BANK15
  4016 ;;      Params:         0       0       0       0       0       0       0       0       0       0       0       0       
      +0       0       0       0       0
  4017 ;;      Locals:         0       0       0       0       0       0       0       0       0       0       0       0       
      +0       0       0       0       0
  4018 ;;      Temps:          3       0       0       0       0       0       0       0       0       0       0       0       
      +0       0       0       0       0
  4019 ;;      Totals:         3       0       0       0       0       0       0       0       0       0       0       0       
      +0       0       0       0       0
  4020 ;;Total ram usage:        3 bytes
  4021 ;; Hardware stack levels used:    1
  4022 ;; Hardware stack levels required when called:    3
  4023 ;; This function calls:
  4024 ;;		_INT1_ISR
  4025 ;;		_RB4_ISR
  4026 ;;		_RB5_ISR
  4027 ;;		_RB6_ISR
  4028 ;;		_RB7_ISR
  4029 ;; This function is called by:
  4030 ;;		Interrupt level 1
  4031 ;; This function uses a non-reentrant model
  4032 ;;
  4033                           
  4034                           	psect	intcodelo
  4035  000018                     __pintcodelo:
  4036                           	callstack 0
  4037  000018                     _InterruptManagerLow:
  4038                           	callstack 22
  4039                           
  4040                           ;incstack = 0
  4041  000018  8076               	bsf	int$flags,0,c	;set compiler interrupt flag (level 1)
  4042  00001A  CFD8 F002          	movff	status,??_InterruptManagerLow
  4043  00001E  CFE8 F003          	movff	wreg,??_InterruptManagerLow+1
  4044  000022  CFE0 F004          	movff	bsr,??_InterruptManagerLow+2
  4045  000026                     
  4046                           ;MCAL/Interrupts/mcal_interrupt_manager.c: 103:     if( (1 == INTCON3bits.INT1IE) && (1 
      +                          == INTCON3bits.INT1IF) )
  4047  000026  A6F0               	btfss	240,3,c	;volatile
  4048  000028  EF18  F000         	goto	i1u184_21
  4049  00002C  EF1A  F000         	goto	i1u184_20
  4050  000030                     i1u184_21:
  4051  000030  EF23  F000         	goto	i1l201
  4052  000034                     i1u184_20:
  4053  000034  A0F0               	btfss	240,0,c	;volatile
  4054  000036  EF1F  F000         	goto	i1u185_21
  4055  00003A  EF21  F000         	goto	i1u185_20
  4056  00003E                     i1u185_21:
  4057  00003E  EF23  F000         	goto	i1l201
  4058  000042                     i1u185_20:
  4059  000042                     
  4060                           ;MCAL/Interrupts/mcal_interrupt_manager.c: 104:     {;MCAL/Interrupts/mcal_interrupt_man
      +                          ager.c: 105:         INT1_ISR();
  4061  000042  ECDF  F00C         	call	_INT1_ISR	;wreg free
  4062  000046                     i1l201:
  4063                           
  4064                           ;MCAL/Interrupts/mcal_interrupt_manager.c: 111:     if( (1 == INTCONbits.RBIE) && (1 == 
      +                          INTCONbits.RBIF) &&
  4065  000046  A6F2               	btfss	242,3,c	;volatile
  4066  000048  EF28  F000         	goto	i1u186_21
  4067  00004C  EF2A  F000         	goto	i1u186_20
  4068  000050                     i1u186_21:
  4069  000050  EF43  F000         	goto	i1l203
  4070  000054                     i1u186_20:
  4071  000054  A0F2               	btfss	242,0,c	;volatile
  4072  000056  EF2F  F000         	goto	i1u187_21
  4073  00005A  EF31  F000         	goto	i1u187_20
  4074  00005E                     i1u187_21:
  4075  00005E  EF43  F000         	goto	i1l203
  4076  000062                     i1u187_20:
  4077  000062  A881               	btfss	129,4,c	;volatile
  4078  000064  EF36  F000         	goto	i1u188_21
  4079  000068  EF38  F000         	goto	i1u188_20
  4080  00006C                     i1u188_21:
  4081  00006C  EF43  F000         	goto	i1l203
  4082  000070                     i1u188_20:
  4083  000070  A071               	btfss	_flags^0,0,c	;volatile
  4084  000072  EF3D  F000         	goto	i1u189_21
  4085  000076  EF3F  F000         	goto	i1u189_20
  4086  00007A                     i1u189_21:
  4087  00007A  EF43  F000         	goto	i1l203
  4088  00007E                     i1u189_20:
  4089  00007E                     
  4090                           ;MCAL/Interrupts/mcal_interrupt_manager.c: 113:     {;MCAL/Interrupts/mcal_interrupt_man
      +                          ager.c: 114:         flags.rb4_flag = 0x00 ;
  4091  00007E  9071               	bcf	_flags^0,0,c	;volatile
  4092  000080                     
  4093                           ;MCAL/Interrupts/mcal_interrupt_manager.c: 115:         RB4_ISR(0x01);
  4094  000080  0E01               	movlw	1
  4095  000082  ECCC  F00C         	call	_RB4_ISR
  4096  000086                     i1l203:
  4097                           
  4098                           ;MCAL/Interrupts/mcal_interrupt_manager.c: 119:     if( (1 == INTCONbits.RBIE) && (1 == 
      +                          INTCONbits.RBIF) &&
  4099  000086  A6F2               	btfss	242,3,c	;volatile
  4100  000088  EF48  F000         	goto	i1u190_21
  4101  00008C  EF4A  F000         	goto	i1u190_20
  4102  000090                     i1u190_21:
  4103  000090  EF63  F000         	goto	i1l205
  4104  000094                     i1u190_20:
  4105  000094  A0F2               	btfss	242,0,c	;volatile
  4106  000096  EF4F  F000         	goto	i1u191_21
  4107  00009A  EF51  F000         	goto	i1u191_20
  4108  00009E                     i1u191_21:
  4109  00009E  EF63  F000         	goto	i1l205
  4110  0000A2                     i1u191_20:
  4111  0000A2  B881               	btfsc	129,4,c	;volatile
  4112  0000A4  EF56  F000         	goto	i1u192_21
  4113  0000A8  EF58  F000         	goto	i1u192_20
  4114  0000AC                     i1u192_21:
  4115  0000AC  EF63  F000         	goto	i1l205
  4116  0000B0                     i1u192_20:
  4117  0000B0  B071               	btfsc	_flags^0,0,c	;volatile
  4118  0000B2  EF5D  F000         	goto	i1u193_21
  4119  0000B6  EF5F  F000         	goto	i1u193_20
  4120  0000BA                     i1u193_21:
  4121  0000BA  EF63  F000         	goto	i1l205
  4122  0000BE                     i1u193_20:
  4123  0000BE                     
  4124                           ;MCAL/Interrupts/mcal_interrupt_manager.c: 121:     {;MCAL/Interrupts/mcal_interrupt_man
      +                          ager.c: 122:         flags.rb4_flag = 0x01 ;
  4125  0000BE  8071               	bsf	_flags^0,0,c	;volatile
  4126  0000C0                     
  4127                           ;MCAL/Interrupts/mcal_interrupt_manager.c: 123:         RB4_ISR(0x00);
  4128  0000C0  0E00               	movlw	0
  4129  0000C2  ECCC  F00C         	call	_RB4_ISR
  4130  0000C6                     i1l205:
  4131                           
  4132                           ;MCAL/Interrupts/mcal_interrupt_manager.c: 128:     if( (1 == INTCONbits.RBIE) && (1 == 
      +                          INTCONbits.RBIF) &&
  4133  0000C6  A6F2               	btfss	242,3,c	;volatile
  4134  0000C8  EF68  F000         	goto	i1u194_21
  4135  0000CC  EF6A  F000         	goto	i1u194_20
  4136  0000D0                     i1u194_21:
  4137  0000D0  EF83  F000         	goto	i1l207
  4138  0000D4                     i1u194_20:
  4139  0000D4  A0F2               	btfss	242,0,c	;volatile
  4140  0000D6  EF6F  F000         	goto	i1u195_21
  4141  0000DA  EF71  F000         	goto	i1u195_20
  4142  0000DE                     i1u195_21:
  4143  0000DE  EF83  F000         	goto	i1l207
  4144  0000E2                     i1u195_20:
  4145  0000E2  AA81               	btfss	129,5,c	;volatile
  4146  0000E4  EF76  F000         	goto	i1u196_21
  4147  0000E8  EF78  F000         	goto	i1u196_20
  4148  0000EC                     i1u196_21:
  4149  0000EC  EF83  F000         	goto	i1l207
  4150  0000F0                     i1u196_20:
  4151  0000F0  A271               	btfss	_flags^0,1,c	;volatile
  4152  0000F2  EF7D  F000         	goto	i1u197_21
  4153  0000F6  EF7F  F000         	goto	i1u197_20
  4154  0000FA                     i1u197_21:
  4155  0000FA  EF83  F000         	goto	i1l207
  4156  0000FE                     i1u197_20:
  4157  0000FE                     
  4158                           ;MCAL/Interrupts/mcal_interrupt_manager.c: 130:     {;MCAL/Interrupts/mcal_interrupt_man
      +                          ager.c: 131:         flags.rb5_flag = 0x00 ;
  4159  0000FE  9271               	bcf	_flags^0,1,c	;volatile
  4160  000100                     
  4161                           ;MCAL/Interrupts/mcal_interrupt_manager.c: 132:         RB5_ISR(0x01);
  4162  000100  0E01               	movlw	1
  4163  000102  ECBF  F00C         	call	_RB5_ISR
  4164  000106                     i1l207:
  4165                           
  4166                           ;MCAL/Interrupts/mcal_interrupt_manager.c: 136:     if( (1 == INTCONbits.RBIE) && (1 == 
      +                          INTCONbits.RBIF) &&
  4167  000106  A6F2               	btfss	242,3,c	;volatile
  4168  000108  EF88  F000         	goto	i1u198_21
  4169  00010C  EF8A  F000         	goto	i1u198_20
  4170  000110                     i1u198_21:
  4171  000110  EFA3  F000         	goto	i1l209
  4172  000114                     i1u198_20:
  4173  000114  A0F2               	btfss	242,0,c	;volatile
  4174  000116  EF8F  F000         	goto	i1u199_21
  4175  00011A  EF91  F000         	goto	i1u199_20
  4176  00011E                     i1u199_21:
  4177  00011E  EFA3  F000         	goto	i1l209
  4178  000122                     i1u199_20:
  4179  000122  BA81               	btfsc	129,5,c	;volatile
  4180  000124  EF96  F000         	goto	i1u200_21
  4181  000128  EF98  F000         	goto	i1u200_20
  4182  00012C                     i1u200_21:
  4183  00012C  EFA3  F000         	goto	i1l209
  4184  000130                     i1u200_20:
  4185  000130  B271               	btfsc	_flags^0,1,c	;volatile
  4186  000132  EF9D  F000         	goto	i1u201_21
  4187  000136  EF9F  F000         	goto	i1u201_20
  4188  00013A                     i1u201_21:
  4189  00013A  EFA3  F000         	goto	i1l209
  4190  00013E                     i1u201_20:
  4191  00013E                     
  4192                           ;MCAL/Interrupts/mcal_interrupt_manager.c: 138:     {;MCAL/Interrupts/mcal_interrupt_man
      +                          ager.c: 139:         flags.rb5_flag = 0x01 ;
  4193  00013E  8271               	bsf	_flags^0,1,c	;volatile
  4194  000140                     
  4195                           ;MCAL/Interrupts/mcal_interrupt_manager.c: 140:         RB5_ISR(0x00);
  4196  000140  0E00               	movlw	0
  4197  000142  ECBF  F00C         	call	_RB5_ISR
  4198  000146                     i1l209:
  4199                           
  4200                           ;MCAL/Interrupts/mcal_interrupt_manager.c: 145:     if( (1 == INTCONbits.RBIE) && (1 == 
      +                          INTCONbits.RBIF) &&
  4201  000146  A6F2               	btfss	242,3,c	;volatile
  4202  000148  EFA8  F000         	goto	i1u202_21
  4203  00014C  EFAA  F000         	goto	i1u202_20
  4204  000150                     i1u202_21:
  4205  000150  EFC3  F000         	goto	i1l211
  4206  000154                     i1u202_20:
  4207  000154  A0F2               	btfss	242,0,c	;volatile
  4208  000156  EFAF  F000         	goto	i1u203_21
  4209  00015A  EFB1  F000         	goto	i1u203_20
  4210  00015E                     i1u203_21:
  4211  00015E  EFC3  F000         	goto	i1l211
  4212  000162                     i1u203_20:
  4213  000162  AC81               	btfss	129,6,c	;volatile
  4214  000164  EFB6  F000         	goto	i1u204_21
  4215  000168  EFB8  F000         	goto	i1u204_20
  4216  00016C                     i1u204_21:
  4217  00016C  EFC3  F000         	goto	i1l211
  4218  000170                     i1u204_20:
  4219  000170  A471               	btfss	_flags^0,2,c	;volatile
  4220  000172  EFBD  F000         	goto	i1u205_21
  4221  000176  EFBF  F000         	goto	i1u205_20
  4222  00017A                     i1u205_21:
  4223  00017A  EFC3  F000         	goto	i1l211
  4224  00017E                     i1u205_20:
  4225  00017E                     
  4226                           ;MCAL/Interrupts/mcal_interrupt_manager.c: 147:     {;MCAL/Interrupts/mcal_interrupt_man
      +                          ager.c: 148:         flags.rb6_flag = 0x00 ;
  4227  00017E  9471               	bcf	_flags^0,2,c	;volatile
  4228  000180                     
  4229                           ;MCAL/Interrupts/mcal_interrupt_manager.c: 149:         RB6_ISR(0x01);
  4230  000180  0E01               	movlw	1
  4231  000182  ECB2  F00C         	call	_RB6_ISR
  4232  000186                     i1l211:
  4233                           
  4234                           ;MCAL/Interrupts/mcal_interrupt_manager.c: 153:     if( (1 == INTCONbits.RBIE) && (1 == 
      +                          INTCONbits.RBIF) &&
  4235  000186  A6F2               	btfss	242,3,c	;volatile
  4236  000188  EFC8  F000         	goto	i1u206_21
  4237  00018C  EFCA  F000         	goto	i1u206_20
  4238  000190                     i1u206_21:
  4239  000190  EFE3  F000         	goto	i1l213
  4240  000194                     i1u206_20:
  4241  000194  A0F2               	btfss	242,0,c	;volatile
  4242  000196  EFCF  F000         	goto	i1u207_21
  4243  00019A  EFD1  F000         	goto	i1u207_20
  4244  00019E                     i1u207_21:
  4245  00019E  EFE3  F000         	goto	i1l213
  4246  0001A2                     i1u207_20:
  4247  0001A2  BC81               	btfsc	129,6,c	;volatile
  4248  0001A4  EFD6  F000         	goto	i1u208_21
  4249  0001A8  EFD8  F000         	goto	i1u208_20
  4250  0001AC                     i1u208_21:
  4251  0001AC  EFE3  F000         	goto	i1l213
  4252  0001B0                     i1u208_20:
  4253  0001B0  B471               	btfsc	_flags^0,2,c	;volatile
  4254  0001B2  EFDD  F000         	goto	i1u209_21
  4255  0001B6  EFDF  F000         	goto	i1u209_20
  4256  0001BA                     i1u209_21:
  4257  0001BA  EFE3  F000         	goto	i1l213
  4258  0001BE                     i1u209_20:
  4259  0001BE                     
  4260                           ;MCAL/Interrupts/mcal_interrupt_manager.c: 155:     {;MCAL/Interrupts/mcal_interrupt_man
      +                          ager.c: 156:         flags.rb6_flag = 0x01 ;
  4261  0001BE  8471               	bsf	_flags^0,2,c	;volatile
  4262  0001C0                     
  4263                           ;MCAL/Interrupts/mcal_interrupt_manager.c: 157:         RB6_ISR(0x00);
  4264  0001C0  0E00               	movlw	0
  4265  0001C2  ECB2  F00C         	call	_RB6_ISR
  4266  0001C6                     i1l213:
  4267                           
  4268                           ;MCAL/Interrupts/mcal_interrupt_manager.c: 162:     if( (1 == INTCONbits.RBIE) && (1 == 
      +                          INTCONbits.RBIF) &&
  4269  0001C6  A6F2               	btfss	242,3,c	;volatile
  4270  0001C8  EFE8  F000         	goto	i1u210_21
  4271  0001CC  EFEA  F000         	goto	i1u210_20
  4272  0001D0                     i1u210_21:
  4273  0001D0  EF03  F001         	goto	i1l215
  4274  0001D4                     i1u210_20:
  4275  0001D4  A0F2               	btfss	242,0,c	;volatile
  4276  0001D6  EFEF  F000         	goto	i1u211_21
  4277  0001DA  EFF1  F000         	goto	i1u211_20
  4278  0001DE                     i1u211_21:
  4279  0001DE  EF03  F001         	goto	i1l215
  4280  0001E2                     i1u211_20:
  4281  0001E2  AE81               	btfss	129,7,c	;volatile
  4282  0001E4  EFF6  F000         	goto	i1u212_21
  4283  0001E8  EFF8  F000         	goto	i1u212_20
  4284  0001EC                     i1u212_21:
  4285  0001EC  EF03  F001         	goto	i1l215
  4286  0001F0                     i1u212_20:
  4287  0001F0  A671               	btfss	_flags^0,3,c	;volatile
  4288  0001F2  EFFD  F000         	goto	i1u213_21
  4289  0001F6  EFFF  F000         	goto	i1u213_20
  4290  0001FA                     i1u213_21:
  4291  0001FA  EF03  F001         	goto	i1l215
  4292  0001FE                     i1u213_20:
  4293  0001FE                     
  4294                           ;MCAL/Interrupts/mcal_interrupt_manager.c: 164:     {;MCAL/Interrupts/mcal_interrupt_man
      +                          ager.c: 165:         flags.rb7_flag = 0x00 ;
  4295  0001FE  9671               	bcf	_flags^0,3,c	;volatile
  4296  000200                     
  4297                           ;MCAL/Interrupts/mcal_interrupt_manager.c: 166:         RB7_ISR(0x01);
  4298  000200  0E01               	movlw	1
  4299  000202  ECA5  F00C         	call	_RB7_ISR
  4300  000206                     i1l215:
  4301                           
  4302                           ;MCAL/Interrupts/mcal_interrupt_manager.c: 170:     if( (1 == INTCONbits.RBIE) && (1 == 
      +                          INTCONbits.RBIF) &&
  4303  000206  A6F2               	btfss	242,3,c	;volatile
  4304  000208  EF08  F001         	goto	i1u214_21
  4305  00020C  EF0A  F001         	goto	i1u214_20
  4306  000210                     i1u214_21:
  4307  000210  EF23  F001         	goto	i1l217
  4308  000214                     i1u214_20:
  4309  000214  A0F2               	btfss	242,0,c	;volatile
  4310  000216  EF0F  F001         	goto	i1u215_21
  4311  00021A  EF11  F001         	goto	i1u215_20
  4312  00021E                     i1u215_21:
  4313  00021E  EF23  F001         	goto	i1l217
  4314  000222                     i1u215_20:
  4315  000222  BE81               	btfsc	129,7,c	;volatile
  4316  000224  EF16  F001         	goto	i1u216_21
  4317  000228  EF18  F001         	goto	i1u216_20
  4318  00022C                     i1u216_21:
  4319  00022C  EF23  F001         	goto	i1l217
  4320  000230                     i1u216_20:
  4321  000230  B671               	btfsc	_flags^0,3,c	;volatile
  4322  000232  EF1D  F001         	goto	i1u217_21
  4323  000236  EF1F  F001         	goto	i1u217_20
  4324  00023A                     i1u217_21:
  4325  00023A  EF23  F001         	goto	i1l217
  4326  00023E                     i1u217_20:
  4327  00023E                     
  4328                           ;MCAL/Interrupts/mcal_interrupt_manager.c: 172:     {;MCAL/Interrupts/mcal_interrupt_man
      +                          ager.c: 173:         flags.rb7_flag = 0x01 ;
  4329  00023E  8671               	bsf	_flags^0,3,c	;volatile
  4330  000240                     
  4331                           ;MCAL/Interrupts/mcal_interrupt_manager.c: 174:         RB7_ISR(0x00);
  4332  000240  0E00               	movlw	0
  4333  000242  ECA5  F00C         	call	_RB7_ISR
  4334  000246                     i1l217:
  4335                           
  4336                           ;MCAL/Interrupts/mcal_interrupt_manager.c: 181:     if( (1 == PIE1bits.ADIE) && (1 == PI
      +                          R1bits.ADIF) )
  4337  000246  AC9D               	btfss	157,6,c	;volatile
  4338  000248  EF28  F001         	goto	i1u218_21
  4339  00024C  EF2A  F001         	goto	i1u218_20
  4340  000250                     i1u218_21:
  4341  000250  EF2B  F001         	goto	i1l219
  4342  000254                     i1u218_20:
  4343  000254  509E               	movf	158,w,c	;volatile
  4344  000256                     i1l219:
  4345                           
  4346                           ;MCAL/Interrupts/mcal_interrupt_manager.c: 187:     if( (1 == PIE1bits.TMR1IE) && (1 == 
      +                          PIR1bits.TMR1IF) )
  4347  000256  A09D               	btfss	157,0,c	;volatile
  4348  000258  EF30  F001         	goto	i1u219_21
  4349  00025C  EF32  F001         	goto	i1u219_20
  4350  000260                     i1u219_21:
  4351  000260  EF33  F001         	goto	i1l222
  4352  000264                     i1u219_20:
  4353  000264  509E               	movf	158,w,c	;volatile
  4354  000266                     i1l222:
  4355  000266  C004  FFE0         	movff	??_InterruptManagerLow+2,bsr
  4356  00026A  C003  FFE8         	movff	??_InterruptManagerLow+1,wreg
  4357  00026E  C002  FFD8         	movff	??_InterruptManagerLow,status
  4358  000272  9076               	bcf	int$flags,0,c	;clear compiler interrupt flag (level 1)
  4359  000274  0010               	retfie	
  4360  000276                     __end_of_InterruptManagerLow:
  4361                           	callstack 0
  4362                           
  4363 ;; *************** function _RB7_ISR *****************
  4364 ;; Defined at:
  4365 ;;		line 175 in file "MCAL/Interrupts/mcal_external_interrupt.c"
  4366 ;; Parameters:    Size  Location     Type
  4367 ;;  Handler_Sele    1    wreg     unsigned char 
  4368 ;; Auto vars:     Size  Location     Type
  4369 ;;  Handler_Sele    1    0[COMRAM] unsigned char 
  4370 ;; Return value:  Size  Location     Type
  4371 ;;                  1    wreg      void 
  4372 ;; Registers used:
  4373 ;;		wreg, status,2
  4374 ;; Tracked objects:
  4375 ;;		On entry : 0/0
  4376 ;;		On exit  : 0/0
  4377 ;;		Unchanged: 0/0
  4378 ;; Data sizes:     COMRAM   BANK0   BANK1   BANK2   BANK3   BANK4   BANK5   BANK6   BANK7   BANK8   BANK9  BANK10  BANK1
      +1  BANK12  BANK13  BANK14  BANK15
  4379 ;;      Params:         0       0       0       0       0       0       0       0       0       0       0       0       
      +0       0       0       0       0
  4380 ;;      Locals:         1       0       0       0       0       0       0       0       0       0       0       0       
      +0       0       0       0       0
  4381 ;;      Temps:          0       0       0       0       0       0       0       0       0       0       0       0       
      +0       0       0       0       0
  4382 ;;      Totals:         1       0       0       0       0       0       0       0       0       0       0       0       
      +0       0       0       0       0
  4383 ;;Total ram usage:        1 bytes
  4384 ;; Hardware stack levels used:    1
  4385 ;; Hardware stack levels required when called:    2
  4386 ;; This function calls:
  4387 ;;		Nothing
  4388 ;; This function is called by:
  4389 ;;		_InterruptManagerLow
  4390 ;; This function uses a non-reentrant model
  4391 ;;
  4392                           
  4393                           	psect	text19
  4394  00194A                     __ptext19:
  4395                           	callstack 0
  4396  00194A                     _RB7_ISR:
  4397                           	callstack 22
  4398                           
  4399                           ;incstack = 0
  4400                           ;RB7_ISR@Handler_Select stored from wreg
  4401  00194A  6E01               	movwf	RB7_ISR@Handler_Select^0,c
  4402  00194C                     
  4403                           ;MCAL/Interrupts/mcal_external_interrupt.c: 175: void RB7_ISR(uint8_t Handler_Select);MC
      +                          AL/Interrupts/mcal_external_interrupt.c: 176: {;MCAL/Interrupts/mcal_external_interrupt.
      +                          c: 178:     (INTCONbits.RBIF = 0 );
  4404  00194C  90F2               	bcf	242,0,c	;volatile
  4405  00194E                     
  4406                           ;MCAL/Interrupts/mcal_external_interrupt.c: 182:     if(Handler_Select)
  4407  00194E  5001               	movf	RB7_ISR@Handler_Select^0,w,c
  4408  001950  B4D8               	btfsc	status,2,c
  4409  001952  EFAD  F00C         	goto	i1u140_21
  4410  001956  EFAF  F00C         	goto	i1u140_20
  4411  00195A                     i1u140_21:
  4412  00195A  EFB1  F00C         	goto	i1l2248
  4413  00195E                     i1u140_20:
  4414  00195E  EFB1  F00C         	goto	i1l328
  4415  001962                     i1l2248:
  4416  001962                     i1l328:
  4417  001962  0012               	return		;funcret
  4418  001964                     __end_of_RB7_ISR:
  4419                           	callstack 0
  4420                           
  4421 ;; *************** function _RB6_ISR *****************
  4422 ;; Defined at:
  4423 ;;		line 150 in file "MCAL/Interrupts/mcal_external_interrupt.c"
  4424 ;; Parameters:    Size  Location     Type
  4425 ;;  Handler_Sele    1    wreg     unsigned char 
  4426 ;; Auto vars:     Size  Location     Type
  4427 ;;  Handler_Sele    1    0[COMRAM] unsigned char 
  4428 ;; Return value:  Size  Location     Type
  4429 ;;                  1    wreg      void 
  4430 ;; Registers used:
  4431 ;;		wreg, status,2
  4432 ;; Tracked objects:
  4433 ;;		On entry : 0/0
  4434 ;;		On exit  : 0/0
  4435 ;;		Unchanged: 0/0
  4436 ;; Data sizes:     COMRAM   BANK0   BANK1   BANK2   BANK3   BANK4   BANK5   BANK6   BANK7   BANK8   BANK9  BANK10  BANK1
      +1  BANK12  BANK13  BANK14  BANK15
  4437 ;;      Params:         0       0       0       0       0       0       0       0       0       0       0       0       
      +0       0       0       0       0
  4438 ;;      Locals:         1       0       0       0       0       0       0       0       0       0       0       0       
      +0       0       0       0       0
  4439 ;;      Temps:          0       0       0       0       0       0       0       0       0       0       0       0       
      +0       0       0       0       0
  4440 ;;      Totals:         1       0       0       0       0       0       0       0       0       0       0       0       
      +0       0       0       0       0
  4441 ;;Total ram usage:        1 bytes
  4442 ;; Hardware stack levels used:    1
  4443 ;; Hardware stack levels required when called:    2
  4444 ;; This function calls:
  4445 ;;		Nothing
  4446 ;; This function is called by:
  4447 ;;		_InterruptManagerLow
  4448 ;; This function uses a non-reentrant model
  4449 ;;
  4450                           
  4451                           	psect	text20
  4452  001964                     __ptext20:
  4453                           	callstack 0
  4454  001964                     _RB6_ISR:
  4455                           	callstack 22
  4456                           
  4457                           ;incstack = 0
  4458                           ;RB6_ISR@Handler_Select stored from wreg
  4459  001964  6E01               	movwf	RB6_ISR@Handler_Select^0,c
  4460  001966                     
  4461                           ;MCAL/Interrupts/mcal_external_interrupt.c: 150: void RB6_ISR(uint8_t Handler_Select);MC
      +                          AL/Interrupts/mcal_external_interrupt.c: 151: {;MCAL/Interrupts/mcal_external_interrupt.
      +                          c: 153:     (INTCONbits.RBIF = 0 );
  4462  001966  90F2               	bcf	242,0,c	;volatile
  4463  001968                     
  4464                           ;MCAL/Interrupts/mcal_external_interrupt.c: 157:     if(Handler_Select)
  4465  001968  5001               	movf	RB6_ISR@Handler_Select^0,w,c
  4466  00196A  B4D8               	btfsc	status,2,c
  4467  00196C  EFBA  F00C         	goto	i1u139_21
  4468  001970  EFBC  F00C         	goto	i1u139_20
  4469  001974                     i1u139_21:
  4470  001974  EFBE  F00C         	goto	i1l2238
  4471  001978                     i1u139_20:
  4472  001978  EFBE  F00C         	goto	i1l319
  4473  00197C                     i1l2238:
  4474  00197C                     i1l319:
  4475  00197C  0012               	return		;funcret
  4476  00197E                     __end_of_RB6_ISR:
  4477                           	callstack 0
  4478                           
  4479 ;; *************** function _RB5_ISR *****************
  4480 ;; Defined at:
  4481 ;;		line 125 in file "MCAL/Interrupts/mcal_external_interrupt.c"
  4482 ;; Parameters:    Size  Location     Type
  4483 ;;  Handler_Sele    1    wreg     unsigned char 
  4484 ;; Auto vars:     Size  Location     Type
  4485 ;;  Handler_Sele    1    0[COMRAM] unsigned char 
  4486 ;; Return value:  Size  Location     Type
  4487 ;;                  1    wreg      void 
  4488 ;; Registers used:
  4489 ;;		wreg, status,2
  4490 ;; Tracked objects:
  4491 ;;		On entry : 0/0
  4492 ;;		On exit  : 0/0
  4493 ;;		Unchanged: 0/0
  4494 ;; Data sizes:     COMRAM   BANK0   BANK1   BANK2   BANK3   BANK4   BANK5   BANK6   BANK7   BANK8   BANK9  BANK10  BANK1
      +1  BANK12  BANK13  BANK14  BANK15
  4495 ;;      Params:         0       0       0       0       0       0       0       0       0       0       0       0       
      +0       0       0       0       0
  4496 ;;      Locals:         1       0       0       0       0       0       0       0       0       0       0       0       
      +0       0       0       0       0
  4497 ;;      Temps:          0       0       0       0       0       0       0       0       0       0       0       0       
      +0       0       0       0       0
  4498 ;;      Totals:         1       0       0       0       0       0       0       0       0       0       0       0       
      +0       0       0       0       0
  4499 ;;Total ram usage:        1 bytes
  4500 ;; Hardware stack levels used:    1
  4501 ;; Hardware stack levels required when called:    2
  4502 ;; This function calls:
  4503 ;;		Nothing
  4504 ;; This function is called by:
  4505 ;;		_InterruptManagerLow
  4506 ;; This function uses a non-reentrant model
  4507 ;;
  4508                           
  4509                           	psect	text21
  4510  00197E                     __ptext21:
  4511                           	callstack 0
  4512  00197E                     _RB5_ISR:
  4513                           	callstack 22
  4514                           
  4515                           ;incstack = 0
  4516                           ;RB5_ISR@Handler_Select stored from wreg
  4517  00197E  6E01               	movwf	RB5_ISR@Handler_Select^0,c
  4518  001980                     
  4519                           ;MCAL/Interrupts/mcal_external_interrupt.c: 125: void RB5_ISR(uint8_t Handler_Select);MC
      +                          AL/Interrupts/mcal_external_interrupt.c: 126: {;MCAL/Interrupts/mcal_external_interrupt.
      +                          c: 128:     (INTCONbits.RBIF = 0 );
  4520  001980  90F2               	bcf	242,0,c	;volatile
  4521  001982                     
  4522                           ;MCAL/Interrupts/mcal_external_interrupt.c: 132:     if(Handler_Select)
  4523  001982  5001               	movf	RB5_ISR@Handler_Select^0,w,c
  4524  001984  B4D8               	btfsc	status,2,c
  4525  001986  EFC7  F00C         	goto	i1u138_21
  4526  00198A  EFC9  F00C         	goto	i1u138_20
  4527  00198E                     i1u138_21:
  4528  00198E  EFCB  F00C         	goto	i1l2228
  4529  001992                     i1u138_20:
  4530  001992  EFCB  F00C         	goto	i1l310
  4531  001996                     i1l2228:
  4532  001996                     i1l310:
  4533  001996  0012               	return		;funcret
  4534  001998                     __end_of_RB5_ISR:
  4535                           	callstack 0
  4536                           
  4537 ;; *************** function _RB4_ISR *****************
  4538 ;; Defined at:
  4539 ;;		line 101 in file "MCAL/Interrupts/mcal_external_interrupt.c"
  4540 ;; Parameters:    Size  Location     Type
  4541 ;;  Handler_Sele    1    wreg     unsigned char 
  4542 ;; Auto vars:     Size  Location     Type
  4543 ;;  Handler_Sele    1    0[COMRAM] unsigned char 
  4544 ;; Return value:  Size  Location     Type
  4545 ;;                  1    wreg      void 
  4546 ;; Registers used:
  4547 ;;		wreg, status,2
  4548 ;; Tracked objects:
  4549 ;;		On entry : 0/0
  4550 ;;		On exit  : 0/0
  4551 ;;		Unchanged: 0/0
  4552 ;; Data sizes:     COMRAM   BANK0   BANK1   BANK2   BANK3   BANK4   BANK5   BANK6   BANK7   BANK8   BANK9  BANK10  BANK1
      +1  BANK12  BANK13  BANK14  BANK15
  4553 ;;      Params:         0       0       0       0       0       0       0       0       0       0       0       0       
      +0       0       0       0       0
  4554 ;;      Locals:         1       0       0       0       0       0       0       0       0       0       0       0       
      +0       0       0       0       0
  4555 ;;      Temps:          0       0       0       0       0       0       0       0       0       0       0       0       
      +0       0       0       0       0
  4556 ;;      Totals:         1       0       0       0       0       0       0       0       0       0       0       0       
      +0       0       0       0       0
  4557 ;;Total ram usage:        1 bytes
  4558 ;; Hardware stack levels used:    1
  4559 ;; Hardware stack levels required when called:    2
  4560 ;; This function calls:
  4561 ;;		Nothing
  4562 ;; This function is called by:
  4563 ;;		_InterruptManagerLow
  4564 ;; This function uses a non-reentrant model
  4565 ;;
  4566                           
  4567                           	psect	text22
  4568  001998                     __ptext22:
  4569                           	callstack 0
  4570  001998                     _RB4_ISR:
  4571                           	callstack 22
  4572                           
  4573                           ;incstack = 0
  4574                           ;RB4_ISR@Handler_Select stored from wreg
  4575  001998  6E01               	movwf	RB4_ISR@Handler_Select^0,c
  4576  00199A                     
  4577                           ;MCAL/Interrupts/mcal_external_interrupt.c: 101: void RB4_ISR(uint8_t Handler_Select);MC
      +                          AL/Interrupts/mcal_external_interrupt.c: 102: {;MCAL/Interrupts/mcal_external_interrupt.
      +                          c: 104:     (INTCONbits.RBIF = 0 );
  4578  00199A  90F2               	bcf	242,0,c	;volatile
  4579  00199C                     
  4580                           ;MCAL/Interrupts/mcal_external_interrupt.c: 108:     if(Handler_Select)
  4581  00199C  5001               	movf	RB4_ISR@Handler_Select^0,w,c
  4582  00199E  B4D8               	btfsc	status,2,c
  4583  0019A0  EFD4  F00C         	goto	i1u137_21
  4584  0019A4  EFD6  F00C         	goto	i1u137_20
  4585  0019A8                     i1u137_21:
  4586  0019A8  EFD8  F00C         	goto	i1l2218
  4587  0019AC                     i1u137_20:
  4588  0019AC  EFD8  F00C         	goto	i1l301
  4589  0019B0                     i1l2218:
  4590  0019B0                     i1l301:
  4591  0019B0  0012               	return		;funcret
  4592  0019B2                     __end_of_RB4_ISR:
  4593                           	callstack 0
  4594                           
  4595 ;; *************** function _INT1_ISR *****************
  4596 ;; Defined at:
  4597 ;;		line 73 in file "MCAL/Interrupts/mcal_external_interrupt.c"
  4598 ;; Parameters:    Size  Location     Type
  4599 ;;		None
  4600 ;; Auto vars:     Size  Location     Type
  4601 ;;		None
  4602 ;; Return value:  Size  Location     Type
  4603 ;;                  1    wreg      void 
  4604 ;; Registers used:
  4605 ;;		None
  4606 ;; Tracked objects:
  4607 ;;		On entry : 0/0
  4608 ;;		On exit  : 0/0
  4609 ;;		Unchanged: 0/0
  4610 ;; Data sizes:     COMRAM   BANK0   BANK1   BANK2   BANK3   BANK4   BANK5   BANK6   BANK7   BANK8   BANK9  BANK10  BANK1
      +1  BANK12  BANK13  BANK14  BANK15
  4611 ;;      Params:         0       0       0       0       0       0       0       0       0       0       0       0       
      +0       0       0       0       0
  4612 ;;      Locals:         0       0       0       0       0       0       0       0       0       0       0       0       
      +0       0       0       0       0
  4613 ;;      Temps:          0       0       0       0       0       0       0       0       0       0       0       0       
      +0       0       0       0       0
  4614 ;;      Totals:         0       0       0       0       0       0       0       0       0       0       0       0       
      +0       0       0       0       0
  4615 ;;Total ram usage:        0 bytes
  4616 ;; Hardware stack levels used:    1
  4617 ;; Hardware stack levels required when called:    2
  4618 ;; This function calls:
  4619 ;;		Nothing
  4620 ;; This function is called by:
  4621 ;;		_InterruptManagerLow
  4622 ;; This function uses a non-reentrant model
  4623 ;;
  4624                           
  4625                           	psect	text23
  4626  0019BE                     __ptext23:
  4627                           	callstack 0
  4628  0019BE                     _INT1_ISR:
  4629                           	callstack 22
  4630  0019BE                     
  4631                           ;MCAL/Interrupts/mcal_external_interrupt.c: 76:     (INTCON3bits.INT1IF = 0 );
  4632  0019BE  90F0               	bcf	240,0,c	;volatile
  4633  0019C0  0012               	return		;funcret
  4634  0019C2                     __end_of_INT1_ISR:
  4635                           	callstack 0
  4636                           
  4637 ;; *************** function _InterruptManagerHigh *****************
  4638 ;; Defined at:
  4639 ;;		line 33 in file "MCAL/Interrupts/mcal_interrupt_manager.c"
  4640 ;; Parameters:    Size  Location     Type
  4641 ;;		None
  4642 ;; Auto vars:     Size  Location     Type
  4643 ;;		None
  4644 ;; Return value:  Size  Location     Type
  4645 ;;                  1    wreg      void 
  4646 ;; Registers used:
  4647 ;;		wreg, cstack
  4648 ;; Tracked objects:
  4649 ;;		On entry : 0/0
  4650 ;;		On exit  : 0/0
  4651 ;;		Unchanged: 0/0
  4652 ;; Data sizes:     COMRAM   BANK0   BANK1   BANK2   BANK3   BANK4   BANK5   BANK6   BANK7   BANK8   BANK9  BANK10  BANK1
      +1  BANK12  BANK13  BANK14  BANK15
  4653 ;;      Params:         0       0       0       0       0       0       0       0       0       0       0       0       
      +0       0       0       0       0
  4654 ;;      Locals:         0       0       0       0       0       0       0       0       0       0       0       0       
      +0       0       0       0       0
  4655 ;;      Temps:          0       0       0       0       0       0       0       0       0       0       0       0       
      +0       0       0       0       0
  4656 ;;      Totals:         0       0       0       0       0       0       0       0       0       0       0       0       
      +0       0       0       0       0
  4657 ;;Total ram usage:        0 bytes
  4658 ;; Hardware stack levels used:    1
  4659 ;; Hardware stack levels required when called:    1
  4660 ;; This function calls:
  4661 ;;		_INT0_ISR
  4662 ;;		_INT2_ISR
  4663 ;; This function is called by:
  4664 ;;		Interrupt level 2
  4665 ;; This function uses a non-reentrant model
  4666 ;;
  4667                           
  4668                           	psect	intcode
  4669  000008                     __pintcode:
  4670                           	callstack 0
  4671  000008                     _InterruptManagerHigh:
  4672                           	callstack 22
  4673                           
  4674                           ;incstack = 0
  4675  000008  8276               	bsf	int$flags,1,c	;set compiler interrupt flag (level 2)
  4676  00000A  ED56  F00A         	call	int_func,f	;refresh shadow registers
  4677                           
  4678                           	psect	intcode_body
  4679  0014AC                     __pintcode_body:
  4680                           	callstack 22
  4681  0014AC                     int_func:
  4682                           	callstack 22
  4683  0014AC  0006               	pop		; remove dummy address from shadow register refresh
  4684  0014AE                     
  4685                           ;MCAL/Interrupts/mcal_interrupt_manager.c: 36:     if( (1 == INTCONbits.INT0IE) && (1 ==
      +                           INTCONbits.INT0IF) )
  4686  0014AE  A8F2               	btfss	242,4,c	;volatile
  4687  0014B0  EF5C  F00A         	goto	i2u172_41
  4688  0014B4  EF5E  F00A         	goto	i2u172_40
  4689  0014B8                     i2u172_41:
  4690  0014B8  EF67  F00A         	goto	i2l176
  4691  0014BC                     i2u172_40:
  4692  0014BC  A2F2               	btfss	242,1,c	;volatile
  4693  0014BE  EF63  F00A         	goto	i2u173_41
  4694  0014C2  EF65  F00A         	goto	i2u173_40
  4695  0014C6                     i2u173_41:
  4696  0014C6  EF67  F00A         	goto	i2l176
  4697  0014CA                     i2u173_40:
  4698  0014CA                     
  4699                           ;MCAL/Interrupts/mcal_interrupt_manager.c: 37:     {;MCAL/Interrupts/mcal_interrupt_mana
      +                          ger.c: 38:         INT0_ISR();
  4700  0014CA  ECE3  F00C         	call	_INT0_ISR	;wreg free
  4701  0014CE                     i2l176:
  4702                           
  4703                           ;MCAL/Interrupts/mcal_interrupt_manager.c: 42:     if( (1 == INTCON3bits.INT2IE) && (1 =
      +                          = INTCON3bits.INT2IF) )
  4704  0014CE  A8F0               	btfss	240,4,c	;volatile
  4705  0014D0  EF6C  F00A         	goto	i2u174_41
  4706  0014D4  EF6E  F00A         	goto	i2u174_40
  4707  0014D8                     i2u174_41:
  4708  0014D8  EF77  F00A         	goto	i2l178
  4709  0014DC                     i2u174_40:
  4710  0014DC  A2F0               	btfss	240,1,c	;volatile
  4711  0014DE  EF73  F00A         	goto	i2u175_41
  4712  0014E2  EF75  F00A         	goto	i2u175_40
  4713  0014E6                     i2u175_41:
  4714  0014E6  EF77  F00A         	goto	i2l178
  4715  0014EA                     i2u175_40:
  4716  0014EA                     
  4717                           ;MCAL/Interrupts/mcal_interrupt_manager.c: 43:     {;MCAL/Interrupts/mcal_interrupt_mana
      +                          ger.c: 44:         INT2_ISR();
  4718  0014EA  ECE1  F00C         	call	_INT2_ISR	;wreg free
  4719  0014EE                     i2l178:
  4720                           
  4721                           ;MCAL/Interrupts/mcal_interrupt_manager.c: 49:     if( (1 == INTCONbits.TMR0IE) && (1 ==
      +                           INTCONbits.TMR0IF) )
  4722  0014EE  AAF2               	btfss	242,5,c	;volatile
  4723  0014F0  EF7C  F00A         	goto	i2u176_41
  4724  0014F4  EF7E  F00A         	goto	i2u176_40
  4725  0014F8                     i2u176_41:
  4726  0014F8  EF7F  F00A         	goto	i2l180
  4727  0014FC                     i2u176_40:
  4728  0014FC  50F2               	movf	242,w,c	;volatile
  4729  0014FE                     i2l180:
  4730                           
  4731                           ;MCAL/Interrupts/mcal_interrupt_manager.c: 55:     if( (1 == PIE1bits.TMR2IE) && (1 == P
      +                          IR1bits.TMR2IF) )
  4732  0014FE  A29D               	btfss	157,1,c	;volatile
  4733  001500  EF84  F00A         	goto	i2u177_41
  4734  001504  EF86  F00A         	goto	i2u177_40
  4735  001508                     i2u177_41:
  4736  001508  EF87  F00A         	goto	i2l182
  4737  00150C                     i2u177_40:
  4738  00150C  509E               	movf	158,w,c	;volatile
  4739  00150E                     i2l182:
  4740                           
  4741                           ;MCAL/Interrupts/mcal_interrupt_manager.c: 62:     if( (1 == PIE2bits.TMR3IE) && (1 == P
      +                          IR2bits.TMR3IF) )
  4742  00150E  A2A0               	btfss	160,1,c	;volatile
  4743  001510  EF8C  F00A         	goto	i2u178_41
  4744  001514  EF8E  F00A         	goto	i2u178_40
  4745  001518                     i2u178_41:
  4746  001518  EF8F  F00A         	goto	i2l184
  4747  00151C                     i2u178_40:
  4748  00151C  50A1               	movf	161,w,c	;volatile
  4749  00151E                     i2l184:
  4750                           
  4751                           ;MCAL/Interrupts/mcal_interrupt_manager.c: 68:     if( (1 == PIE2bits.CCP2IE) && (1 == P
      +                          IR2bits.CCP2IF) )
  4752  00151E  A0A0               	btfss	160,0,c	;volatile
  4753  001520  EF94  F00A         	goto	i2u179_41
  4754  001524  EF96  F00A         	goto	i2u179_40
  4755  001528                     i2u179_41:
  4756  001528  EF97  F00A         	goto	i2l186
  4757  00152C                     i2u179_40:
  4758  00152C  50A1               	movf	161,w,c	;volatile
  4759  00152E                     i2l186:
  4760                           
  4761                           ;MCAL/Interrupts/mcal_interrupt_manager.c: 74:     if( (1 == PIE1bits.RCIE) && (1 == PIR
      +                          1bits.RCIF) )
  4762  00152E  AA9D               	btfss	157,5,c	;volatile
  4763  001530  EF9C  F00A         	goto	i2u180_41
  4764  001534  EF9E  F00A         	goto	i2u180_40
  4765  001538                     i2u180_41:
  4766  001538  EF9F  F00A         	goto	i2l188
  4767  00153C                     i2u180_40:
  4768  00153C  509E               	movf	158,w,c	;volatile
  4769  00153E                     i2l188:
  4770                           
  4771                           ;MCAL/Interrupts/mcal_interrupt_manager.c: 80:     if( (1 == PIE1bits.TXIE) && (1 == PIR
      +                          1bits.TXIF) )
  4772  00153E  A89D               	btfss	157,4,c	;volatile
  4773  001540  EFA4  F00A         	goto	i2u181_41
  4774  001544  EFA6  F00A         	goto	i2u181_40
  4775  001548                     i2u181_41:
  4776  001548  EFA7  F00A         	goto	i2l190
  4777  00154C                     i2u181_40:
  4778  00154C  509E               	movf	158,w,c	;volatile
  4779  00154E                     i2l190:
  4780                           
  4781                           ;MCAL/Interrupts/mcal_interrupt_manager.c: 86:     if( (1 == PIE2bits.BCLIE) && (1 == PI
      +                          R2bits.BCLIF) )
  4782  00154E  A6A0               	btfss	160,3,c	;volatile
  4783  001550  EFAC  F00A         	goto	i2u182_41
  4784  001554  EFAE  F00A         	goto	i2u182_40
  4785  001558                     i2u182_41:
  4786  001558  EFAF  F00A         	goto	i2l192
  4787  00155C                     i2u182_40:
  4788  00155C  50A1               	movf	161,w,c	;volatile
  4789  00155E                     i2l192:
  4790                           
  4791                           ;MCAL/Interrupts/mcal_interrupt_manager.c: 92:     if( (1 == PIE1bits.SSPIE) && (1 == PI
      +                          R1bits.SSPIF) )
  4792  00155E  A69D               	btfss	157,3,c	;volatile
  4793  001560  EFB4  F00A         	goto	i2u183_41
  4794  001564  EFB6  F00A         	goto	i2u183_40
  4795  001568                     i2u183_41:
  4796  001568  EFB7  F00A         	goto	i2l195
  4797  00156C                     i2u183_40:
  4798  00156C  509E               	movf	158,w,c	;volatile
  4799  00156E                     i2l195:
  4800  00156E  9276               	bcf	int$flags,1,c	;clear compiler interrupt flag (level 2)
  4801  001570  0011               	retfie		f
  4802  001572                     __end_of_InterruptManagerHigh:
  4803                           	callstack 0
  4804                           
  4805 ;; *************** function _INT2_ISR *****************
  4806 ;; Defined at:
  4807 ;;		line 86 in file "MCAL/Interrupts/mcal_external_interrupt.c"
  4808 ;; Parameters:    Size  Location     Type
  4809 ;;		None
  4810 ;; Auto vars:     Size  Location     Type
  4811 ;;		None
  4812 ;; Return value:  Size  Location     Type
  4813 ;;                  1    wreg      void 
  4814 ;; Registers used:
  4815 ;;		None
  4816 ;; Tracked objects:
  4817 ;;		On entry : 0/0
  4818 ;;		On exit  : 0/0
  4819 ;;		Unchanged: 0/0
  4820 ;; Data sizes:     COMRAM   BANK0   BANK1   BANK2   BANK3   BANK4   BANK5   BANK6   BANK7   BANK8   BANK9  BANK10  BANK1
      +1  BANK12  BANK13  BANK14  BANK15
  4821 ;;      Params:         0       0       0       0       0       0       0       0       0       0       0       0       
      +0       0       0       0       0
  4822 ;;      Locals:         0       0       0       0       0       0       0       0       0       0       0       0       
      +0       0       0       0       0
  4823 ;;      Temps:          0       0       0       0       0       0       0       0       0       0       0       0       
      +0       0       0       0       0
  4824 ;;      Totals:         0       0       0       0       0       0       0       0       0       0       0       0       
      +0       0       0       0       0
  4825 ;;Total ram usage:        0 bytes
  4826 ;; Hardware stack levels used:    1
  4827 ;; This function calls:
  4828 ;;		Nothing
  4829 ;; This function is called by:
  4830 ;;		_InterruptManagerHigh
  4831 ;; This function uses a non-reentrant model
  4832 ;;
  4833                           
  4834                           	psect	text25
  4835  0019C2                     __ptext25:
  4836                           	callstack 0
  4837  0019C2                     _INT2_ISR:
  4838                           	callstack 22
  4839  0019C2                     
  4840                           ;MCAL/Interrupts/mcal_external_interrupt.c: 89:     (INTCON3bits.INT2IF = 0);
  4841  0019C2  92F0               	bcf	240,1,c	;volatile
  4842  0019C4  0012               	return		;funcret
  4843  0019C6                     __end_of_INT2_ISR:
  4844                           	callstack 0
  4845                           
  4846 ;; *************** function _INT0_ISR *****************
  4847 ;; Defined at:
  4848 ;;		line 60 in file "MCAL/Interrupts/mcal_external_interrupt.c"
  4849 ;; Parameters:    Size  Location     Type
  4850 ;;		None
  4851 ;; Auto vars:     Size  Location     Type
  4852 ;;		None
  4853 ;; Return value:  Size  Location     Type
  4854 ;;                  1    wreg      void 
  4855 ;; Registers used:
  4856 ;;		None
  4857 ;; Tracked objects:
  4858 ;;		On entry : 0/0
  4859 ;;		On exit  : 0/0
  4860 ;;		Unchanged: 0/0
  4861 ;; Data sizes:     COMRAM   BANK0   BANK1   BANK2   BANK3   BANK4   BANK5   BANK6   BANK7   BANK8   BANK9  BANK10  BANK1
      +1  BANK12  BANK13  BANK14  BANK15
  4862 ;;      Params:         0       0       0       0       0       0       0       0       0       0       0       0       
      +0       0       0       0       0
  4863 ;;      Locals:         0       0       0       0       0       0       0       0       0       0       0       0       
      +0       0       0       0       0
  4864 ;;      Temps:          0       0       0       0       0       0       0       0       0       0       0       0       
      +0       0       0       0       0
  4865 ;;      Totals:         0       0       0       0       0       0       0       0       0       0       0       0       
      +0       0       0       0       0
  4866 ;;Total ram usage:        0 bytes
  4867 ;; Hardware stack levels used:    1
  4868 ;; This function calls:
  4869 ;;		Nothing
  4870 ;; This function is called by:
  4871 ;;		_InterruptManagerHigh
  4872 ;; This function uses a non-reentrant model
  4873 ;;
  4874                           
  4875                           	psect	text26
  4876  0019C6                     __ptext26:
  4877                           	callstack 0
  4878  0019C6                     _INT0_ISR:
  4879                           	callstack 22
  4880  0019C6                     
  4881                           ;MCAL/Interrupts/mcal_external_interrupt.c: 63:     (INTCONbits.INT0IF = 0 );
  4882  0019C6  92F2               	bcf	242,1,c	;volatile
  4883  0019C8  0012               	return		;funcret
  4884  0019CA                     __end_of_INT0_ISR:
  4885                           	callstack 0
  4886  0000                     
  4887                           	psect	rparam
  4888  0000                     
  4889                           	psect	temp
  4890  000076                     btemp:
  4891                           	callstack 0
  4892  000076                     	ds	1
  4893  0000                     int$flags	set	btemp
  4894  0000                     wtemp8	set	btemp+1
  4895  0000                     ttemp5	set	btemp+1
  4896  0000                     ttemp6	set	btemp+4
  4897  0000                     ttemp7	set	btemp+8
  4898                           
  4899                           	psect	idloc
  4900                           
  4901                           ;Config register IDLOC0 @ 0x200000
  4902                           ;	unspecified, using default values
  4903  200000                     	org	2097152
  4904  200000  FF                 	db	255
  4905                           
  4906                           ;Config register IDLOC1 @ 0x200001
  4907                           ;	unspecified, using default values
  4908  200001                     	org	2097153
  4909  200001  FF                 	db	255
  4910                           
  4911                           ;Config register IDLOC2 @ 0x200002
  4912                           ;	unspecified, using default values
  4913  200002                     	org	2097154
  4914  200002  FF                 	db	255
  4915                           
  4916                           ;Config register IDLOC3 @ 0x200003
  4917                           ;	unspecified, using default values
  4918  200003                     	org	2097155
  4919  200003  FF                 	db	255
  4920                           
  4921                           ;Config register IDLOC4 @ 0x200004
  4922                           ;	unspecified, using default values
  4923  200004                     	org	2097156
  4924  200004  FF                 	db	255
  4925                           
  4926                           ;Config register IDLOC5 @ 0x200005
  4927                           ;	unspecified, using default values
  4928  200005                     	org	2097157
  4929  200005  FF                 	db	255
  4930                           
  4931                           ;Config register IDLOC6 @ 0x200006
  4932                           ;	unspecified, using default values
  4933  200006                     	org	2097158
  4934  200006  FF                 	db	255
  4935                           
  4936                           ;Config register IDLOC7 @ 0x200007
  4937                           ;	unspecified, using default values
  4938  200007                     	org	2097159
  4939  200007  FF                 	db	255
  4940                           
  4941                           	psect	config
  4942                           
  4943                           ; Padding undefined space
  4944  300000                     	org	3145728
  4945  300000  FF                 	db	255
  4946                           
  4947                           ;Config register CONFIG1H @ 0x300001
  4948                           ;	Oscillator Selection bits
  4949                           ;	OSC = HS, HS oscillator
  4950                           ;	Fail-Safe Clock Monitor Enable bit
  4951                           ;	FCMEN = OFF, Fail-Safe Clock Monitor disabled
  4952                           ;	Internal/External Oscillator Switchover bit
  4953                           ;	IESO = OFF, Oscillator Switchover mode disabled
  4954  300001                     	org	3145729
  4955  300001  02                 	db	2
  4956                           
  4957                           ;Config register CONFIG2L @ 0x300002
  4958                           ;	Power-up Timer Enable bit
  4959                           ;	PWRT = OFF, PWRT disabled
  4960                           ;	Brown-out Reset Enable bits
  4961                           ;	BOREN = OFF, Brown-out Reset disabled in hardware and software
  4962                           ;	Brown Out Reset Voltage bits
  4963                           ;	BORV = 1, 
  4964  300002                     	org	3145730
  4965  300002  09                 	db	9
  4966                           
  4967                           ;Config register CONFIG2H @ 0x300003
  4968                           ;	Watchdog Timer Enable bit
  4969                           ;	WDT = OFF, WDT disabled (control is placed on the SWDTEN bit)
  4970                           ;	Watchdog Timer Postscale Select bits
  4971                           ;	WDTPS = 32768, 1:32768
  4972  300003                     	org	3145731
  4973  300003  1E                 	db	30
  4974                           
  4975                           ; Padding undefined space
  4976  300004                     	org	3145732
  4977  300004  FF                 	db	255
  4978                           
  4979                           ;Config register CONFIG3H @ 0x300005
  4980                           ;	CCP2 MUX bit
  4981                           ;	CCP2MX = PORTC, CCP2 input/output is multiplexed with RC1
  4982                           ;	PORTB A/D Enable bit
  4983                           ;	PBADEN = OFF, PORTB<4:0> pins are configured as digital I/O on Reset
  4984                           ;	Low-Power Timer1 Oscillator Enable bit
  4985                           ;	LPT1OSC = OFF, Timer1 configured for higher power operation
  4986                           ;	MCLR Pin Enable bit
  4987                           ;	MCLRE = ON, MCLR pin enabled; RE3 input pin disabled
  4988  300005                     	org	3145733
  4989  300005  81                 	db	129
  4990                           
  4991                           ;Config register CONFIG4L @ 0x300006
  4992                           ;	Stack Full/Underflow Reset Enable bit
  4993                           ;	STVREN = ON, Stack full/underflow will cause Reset
  4994                           ;	Single-Supply ICSP Enable bit
  4995                           ;	LVP = OFF, Single-Supply ICSP disabled
  4996                           ;	Extended Instruction Set Enable bit
  4997                           ;	XINST = OFF, Instruction set extension and Indexed Addressing mode disabled (Legacy mo
      +                          de)
  4998                           ;	Background Debugger Enable bit
  4999                           ;	DEBUG = 0x1, unprogrammed default
  5000  300006                     	org	3145734
  5001  300006  81                 	db	129
  5002                           
  5003                           ; Padding undefined space
  5004  300007                     	org	3145735
  5005  300007  FF                 	db	255
  5006                           
  5007                           ;Config register CONFIG5L @ 0x300008
  5008                           ;	Code Protection bit
  5009                           ;	CP0 = OFF, Block 0 (000800-003FFFh) not code-protected
  5010                           ;	Code Protection bit
  5011                           ;	CP1 = OFF, Block 1 (004000-007FFFh) not code-protected
  5012                           ;	Code Protection bit
  5013                           ;	CP2 = OFF, Block 2 (008000-00BFFFh) not code-protected
  5014                           ;	Code Protection bit
  5015                           ;	CP3 = OFF, Block 3 (00C000-00FFFFh) not code-protected
  5016  300008                     	org	3145736
  5017  300008  0F                 	db	15
  5018                           
  5019                           ;Config register CONFIG5H @ 0x300009
  5020                           ;	Boot Block Code Protection bit
  5021                           ;	CPB = OFF, Boot block (000000-0007FFh) not code-protected
  5022                           ;	Data EEPROM Code Protection bit
  5023                           ;	CPD = OFF, Data EEPROM not code-protected
  5024  300009                     	org	3145737
  5025  300009  C0                 	db	192
  5026                           
  5027                           ;Config register CONFIG6L @ 0x30000A
  5028                           ;	Write Protection bit
  5029                           ;	WRT0 = OFF, Block 0 (000800-003FFFh) not write-protected
  5030                           ;	Write Protection bit
  5031                           ;	WRT1 = OFF, Block 1 (004000-007FFFh) not write-protected
  5032                           ;	Write Protection bit
  5033                           ;	WRT2 = OFF, Block 2 (008000-00BFFFh) not write-protected
  5034                           ;	Write Protection bit
  5035                           ;	WRT3 = OFF, Block 3 (00C000-00FFFFh) not write-protected
  5036  30000A                     	org	3145738
  5037  30000A  0F                 	db	15
  5038                           
  5039                           ;Config register CONFIG6H @ 0x30000B
  5040                           ;	Configuration Register Write Protection bit
  5041                           ;	WRTC = OFF, Configuration registers (300000-3000FFh) not write-protected
  5042                           ;	Boot Block Write Protection bit
  5043                           ;	WRTB = OFF, Boot Block (000000-0007FFh) not write-protected
  5044                           ;	Data EEPROM Write Protection bit
  5045                           ;	WRTD = OFF, Data EEPROM not write-protected
  5046  30000B                     	org	3145739
  5047  30000B  E0                 	db	224
  5048                           
  5049                           ;Config register CONFIG7L @ 0x30000C
  5050                           ;	Table Read Protection bit
  5051                           ;	EBTR0 = OFF, Block 0 (000800-003FFFh) not protected from table reads executed in other
      +                           blocks
  5052                           ;	Table Read Protection bit
  5053                           ;	EBTR1 = OFF, Block 1 (004000-007FFFh) not protected from table reads executed in other
      +                           blocks
  5054                           ;	Table Read Protection bit
  5055                           ;	EBTR2 = OFF, Block 2 (008000-00BFFFh) not protected from table reads executed in other
      +                           blocks
  5056                           ;	Table Read Protection bit
  5057                           ;	EBTR3 = OFF, Block 3 (00C000-00FFFFh) not protected from table reads executed in other
      +                           blocks
  5058  30000C                     	org	3145740
  5059  30000C  0F                 	db	15
  5060                           
  5061                           ;Config register CONFIG7H @ 0x30000D
  5062                           ;	Boot Block Table Read Protection bit
  5063                           ;	EBTRB = OFF, Boot Block (000000-0007FFh) not protected from table reads executed in ot
      +                          her blocks
  5064  30000D                     	org	3145741
  5065  30000D  40                 	db	64
  5066                           tosu	equ	0xFFF
  5067                           tosh	equ	0xFFE
  5068                           tosl	equ	0xFFD
  5069                           stkptr	equ	0xFFC
  5070                           pclatu	equ	0xFFB
  5071                           pclath	equ	0xFFA
  5072                           pcl	equ	0xFF9
  5073                           tblptru	equ	0xFF8
  5074                           tblptrh	equ	0xFF7
  5075                           tblptrl	equ	0xFF6
  5076                           tablat	equ	0xFF5
  5077                           prodh	equ	0xFF4
  5078                           prodl	equ	0xFF3
  5079                           indf0	equ	0xFEF
  5080                           postinc0	equ	0xFEE
  5081                           postdec0	equ	0xFED
  5082                           preinc0	equ	0xFEC
  5083                           plusw0	equ	0xFEB
  5084                           fsr0h	equ	0xFEA
  5085                           fsr0l	equ	0xFE9
  5086                           wreg	equ	0xFE8
  5087                           indf1	equ	0xFE7
  5088                           postinc1	equ	0xFE6
  5089                           postdec1	equ	0xFE5
  5090                           preinc1	equ	0xFE4
  5091                           plusw1	equ	0xFE3
  5092                           fsr1h	equ	0xFE2
  5093                           fsr1l	equ	0xFE1
  5094                           bsr	equ	0xFE0
  5095                           indf2	equ	0xFDF
  5096                           postinc2	equ	0xFDE
  5097                           postdec2	equ	0xFDD
  5098                           preinc2	equ	0xFDC
  5099                           plusw2	equ	0xFDB
  5100                           fsr2h	equ	0xFDA
  5101                           fsr2l	equ	0xFD9
  5102                           status	equ	0xFD8

Data Sizes:
    Strings     0
    Constant    0
    Data        50
    BSS         29
    Persistent  0
    Stack       0

Auto Spaces:
    Space          Size  Autos    Used
    COMRAM          126     83     117
    BANK0           128      0      45
    BANK1           256      0       0
    BANK2           256      0       0
    BANK3           256      0       0
    BANK4           256      0       0
    BANK5           256      0       0
    BANK6           256      0       0
    BANK7           256      0       0
    BANK8           256      0       0
    BANK9           256      0       0
    BANK10          256      0       0
    BANK11          256      0       0
    BANK12          256      0       0
    BANK13          256      0       0
    BANK14          256      0       0
    BANK15          128      0       0

Pointer List with Targets:

    PCA_Write_Reg@i2c_obj	PTR const struct . size(2) Largest target is 15
		 -> i2c_obj(BANK0[15]), 

    Servo_SetAngle@servo_driver_obj	PTR const struct . size(2) Largest target is 4
		 -> s1_obj(COMRAM[4]), 

    Servo_SetAngle@i2c_obj	PTR const struct . size(2) Largest target is 15
		 -> i2c_obj(BANK0[15]), 

    ServoDriver_Init@servo_driver_obj	PTR const struct . size(2) Largest target is 4
		 -> s1_obj(COMRAM[4]), 

    ServoDriver_Init@i2c_obj	PTR const struct . size(2) Largest target is 15
		 -> i2c_obj(BANK0[15]), 

    I2C_Report_Receive_Overflow	PTR FTN()void  size(2) Largest target is 1
		 -> Absolute function(), 

    I2C_Interrupt_configuration@i2c_obj.I2C_Report_Receive_Overflow	PTR FTN()void  size(2) Largest target is 1
		 -> Absolute function(), 

    I2C_Interrupt_configuration@i2c_obj.I2C_DefaultInterruptHandler	PTR FTN()void  size(2) Largest target is 1
		 -> Absolute function(), 

    I2C_Interrupt_configuration@i2c_obj.I2C_Report_Write_Collision	PTR FTN()void  size(2) Largest target is 1
		 -> Absolute function(), 

    I2C_Interrupt_configuration@i2c_obj	PTR const struct . size(2) Largest target is 15
		 -> i2c_obj(BANK0[15]), 

    I2C_Slave_Mode_Clock_Configurations@i2c_obj.I2C_Report_Receive_Overflow	PTR FTN()void  size(2) Largest target is 1
		 -> Absolute function(), 

    I2C_Slave_Mode_Clock_Configurations@i2c_obj.I2C_DefaultInterruptHandler	PTR FTN()void  size(2) Largest target is 1
		 -> Absolute function(), 

    I2C_Slave_Mode_Clock_Configurations@i2c_obj.I2C_Report_Write_Collision	PTR FTN()void  size(2) Largest target is 1
		 -> Absolute function(), 

    I2C_Slave_Mode_Clock_Configurations@i2c_obj	PTR const struct . size(2) Largest target is 15
		 -> i2c_obj(BANK0[15]), 

    I2C_Master_Mode_Clock_Configurations@i2c_obj.I2C_Report_Receive_Overflow	PTR FTN()void  size(2) Largest target is 1
		 -> Absolute function(), 

    I2C_Master_Mode_Clock_Configurations@i2c_obj.I2C_DefaultInterruptHandler	PTR FTN()void  size(2) Largest target is 1
		 -> Absolute function(), 

    I2C_Master_Mode_Clock_Configurations@i2c_obj.I2C_Report_Write_Collision	PTR FTN()void  size(2) Largest target is 1
		 -> Absolute function(), 

    I2C_Master_Mode_Clock_Configurations@i2c_obj	PTR const struct . size(2) Largest target is 15
		 -> i2c_obj(BANK0[15]), 

    I2C_Report_Write_Collision	PTR FTN()void  size(2) Largest target is 1
		 -> Absolute function(), 

    I2C_DefaultInterruptHandler	PTR FTN()void  size(2) Largest target is 1
		 -> Absolute function(), 

    MSSP_I2C_Master_Write_Blocking@_ack	PTR unsigned char  size(2) Largest target is 1
		 -> PCA_Write_Reg@ack(COMRAM[1]), 

    MSSP_I2C_Master_Write_Blocking@i2c_obj	PTR const struct . size(2) Largest target is 15
		 -> i2c_obj(BANK0[15]), 

    MSSP_I2C_Master_Send_Stop@i2c_obj	PTR const struct . size(2) Largest target is 15
		 -> i2c_obj(BANK0[15]), 

    MSSP_I2C_Master_Send_Start@i2c_obj	PTR const struct . size(2) Largest target is 15
		 -> i2c_obj(BANK0[15]), 

    MSSP_I2C_Init@i2c_obj.I2C_Report_Receive_Overflow	PTR FTN()void  size(2) Largest target is 1
		 -> Absolute function(), 

    MSSP_I2C_Init@i2c_obj.I2C_DefaultInterruptHandler	PTR FTN()void  size(2) Largest target is 1
		 -> Absolute function(), 

    MSSP_I2C_Init@i2c_obj.I2C_Report_Write_Collision	PTR FTN()void  size(2) Largest target is 1
		 -> Absolute function(), 

    MSSP_I2C_Init@i2c_obj	PTR const struct . size(2) Largest target is 15
		 -> i2c_obj(BANK0[15]), 

    interrupt_RBx_set_callback@int_obj.Ext_Interrupt_Handler_Low	PTR FTN()void  size(2) Largest target is 0

    interrupt_RBx_set_callback@int_obj.Ext_Interrupt_Handler_High	PTR FTN()void  size(2) Largest target is 0

    interrupt_RBx_set_priority@int_obj.Ext_Interrupt_Handler_Low	PTR FTN()void  size(2) Largest target is 0

    interrupt_RBx_set_priority@int_obj.Ext_Interrupt_Handler_High	PTR FTN()void  size(2) Largest target is 0

    interrupt_RBx_pin_init@int_obj.Ext_Interrupt_Handler_Low	PTR FTN()void  size(2) Largest target is 0

    interrupt_RBx_pin_init@int_obj.Ext_Interrupt_Handler_High	PTR FTN()void  size(2) Largest target is 0

    interrupt_RBx_disable@int_obj.Ext_Interrupt_Handler_Low	PTR FTN()void  size(2) Largest target is 0

    interrupt_RBx_disable@int_obj.Ext_Interrupt_Handler_High	PTR FTN()void  size(2) Largest target is 0

    S749$Ext_Interrupt_Handler_Low	PTR FTN()void  size(2) Largest target is 0

    interrupt_RBx_enable@int_obj.Ext_Interrupt_Handler_Low	PTR FTN()void  size(2) Largest target is 0

    S749$Ext_Interrupt_Handler_High	PTR FTN()void  size(2) Largest target is 0

    interrupt_RBx_enable@int_obj.Ext_Interrupt_Handler_High	PTR FTN()void  size(2) Largest target is 0

    interrupt_INTx_set_callback@int_obj.Ext_Interrupt_Handler	PTR FTN()void  size(2) Largest target is 0

    interrupt_INTx_clear_flag@int_obj.Ext_Interrupt_Handler	PTR FTN()void  size(2) Largest target is 0

    interrupt_INTx_enable@int_obj.Ext_Interrupt_Handler	PTR FTN()void  size(2) Largest target is 0

    interrupt_INTx_disable@int_obj.Ext_Interrupt_Handler	PTR FTN()void  size(2) Largest target is 0

    interrupt_INTx_set_priority@int_obj.Ext_Interrupt_Handler	PTR FTN()void  size(2) Largest target is 0

    interrupt_INTx_set_edge@int_obj.Ext_Interrupt_Handler	PTR FTN()void  size(2) Largest target is 0

    S702$Ext_Interrupt_Handler	PTR FTN()void  size(2) Largest target is 0

    interrupt_INTx_pin_init@int_obj.Ext_Interrupt_Handler	PTR FTN()void  size(2) Largest target is 0

    RB7_InterruptHandler_LOW	PTR FTN()void  size(2) Largest target is 1
		 -> Absolute function(), 

    RB7_InterruptHandler_HIGH	PTR FTN()void  size(2) Largest target is 1
		 -> Absolute function(), 

    RB6_InterruptHandler_LOW	PTR FTN()void  size(2) Largest target is 1
		 -> Absolute function(), 

    RB6_InterruptHandler_HIGH	PTR FTN()void  size(2) Largest target is 1
		 -> Absolute function(), 

    RB5_InterruptHandler_LOW	PTR FTN()void  size(2) Largest target is 1
		 -> Absolute function(), 

    RB5_InterruptHandler_HIGH	PTR FTN()void  size(2) Largest target is 1
		 -> Absolute function(), 

    RB4_InterruptHandler_LOW	PTR FTN()void  size(2) Largest target is 1
		 -> Absolute function(), 

    RB4_InterruptHandler_HIGH	PTR FTN()void  size(2) Largest target is 1
		 -> Absolute function(), 

    INT2_InterruptHandler	PTR FTN()void  size(2) Largest target is 1
		 -> Absolute function(), 

    INT1_InterruptHandler	PTR FTN()void  size(2) Largest target is 1
		 -> Absolute function(), 

    INT0_InterruptHandler	PTR FTN()void  size(2) Largest target is 1
		 -> Absolute function(), 

    S143$I2C_Report_Receive_Overflow	PTR FTN()void  size(2) Largest target is 1
		 -> Absolute function(), 

    i2c_obj.I2C_Report_Receive_Overflow	PTR FTN()void  size(2) Largest target is 1
		 -> Absolute function(), 

    S143$I2C_DefaultInterruptHandler	PTR FTN()void  size(2) Largest target is 1
		 -> Absolute function(), 

    i2c_obj.I2C_DefaultInterruptHandler	PTR FTN()void  size(2) Largest target is 1
		 -> Absolute function(), 

    S143$I2C_Report_Write_Collision	PTR FTN()void  size(2) Largest target is 1
		 -> Absolute function(), 

    i2c_obj.I2C_Report_Write_Collision	PTR FTN()void  size(2) Largest target is 1
		 -> Absolute function(), 

    port_registers	PTR volatile unsigned char [5] size(2) Largest target is 1
		 -> PORTE(SFR[1]), PORTD(SFR[1]), PORTC(SFR[1]), PORTB(SFR[1]), 
		 -> PORTA(SFR[1]), 

    lat_registers	PTR volatile unsigned char [5] size(2) Largest target is 1
		 -> LATE(SFR[1]), LATD(SFR[1]), LATC(SFR[1]), LATB(SFR[1]), 
		 -> LATA(SFR[1]), 

    tris_registers	PTR volatile unsigned char [5] size(2) Largest target is 1
		 -> TRISE(SFR[1]), TRISD(SFR[1]), TRISC(SFR[1]), TRISB(SFR[1]), 
		 -> TRISA(SFR[1]), 


Critical Paths under _main in COMRAM

    _application_intialize->_ServoDriver_Init
    _ServoDriver_Init->_MSSP_I2C_Init
    _MSSP_I2C_Init->_I2C_Master_Mode_Clock_Configurations
    _I2C_Master_Mode_Clock_Configurations->___fltol
    ___fldiv->___xxtofl
    _Servo_SetAngle->___fltol
    ___fltol->___fladd
    ___flmul->___xxtofl
    ___fladd->___fldiv
    ___fladd->___flmul
    _PCA_Write_Reg->_MSSP_I2C_Master_Write_Blocking

Critical Paths under _InterruptManagerLow in COMRAM

    _InterruptManagerLow->_RB4_ISR
    _InterruptManagerLow->_RB5_ISR
    _InterruptManagerLow->_RB6_ISR
    _InterruptManagerLow->_RB7_ISR

Critical Paths under _InterruptManagerHigh in COMRAM

    None.

Critical Paths under _main in BANK0

    None.

Critical Paths under _InterruptManagerLow in BANK0

    None.

Critical Paths under _InterruptManagerHigh in BANK0

    None.

Critical Paths under _main in BANK1

    None.

Critical Paths under _InterruptManagerLow in BANK1

    None.

Critical Paths under _InterruptManagerHigh in BANK1

    None.

Critical Paths under _main in BANK2

    None.

Critical Paths under _InterruptManagerLow in BANK2

    None.

Critical Paths under _InterruptManagerHigh in BANK2

    None.

Critical Paths under _main in BANK3

    None.

Critical Paths under _InterruptManagerLow in BANK3

    None.

Critical Paths under _InterruptManagerHigh in BANK3

    None.

Critical Paths under _main in BANK4

    None.

Critical Paths under _InterruptManagerLow in BANK4

    None.

Critical Paths under _InterruptManagerHigh in BANK4

    None.

Critical Paths under _main in BANK5

    None.

Critical Paths under _InterruptManagerLow in BANK5

    None.

Critical Paths under _InterruptManagerHigh in BANK5

    None.

Critical Paths under _main in BANK6

    None.

Critical Paths under _InterruptManagerLow in BANK6

    None.

Critical Paths under _InterruptManagerHigh in BANK6

    None.

Critical Paths under _main in BANK7

    None.

Critical Paths under _InterruptManagerLow in BANK7

    None.

Critical Paths under _InterruptManagerHigh in BANK7

    None.

Critical Paths under _main in BANK8

    None.

Critical Paths under _InterruptManagerLow in BANK8

    None.

Critical Paths under _InterruptManagerHigh in BANK8

    None.

Critical Paths under _main in BANK9

    None.

Critical Paths under _InterruptManagerLow in BANK9

    None.

Critical Paths under _InterruptManagerHigh in BANK9

    None.

Critical Paths under _main in BANK10

    None.

Critical Paths under _InterruptManagerLow in BANK10

    None.

Critical Paths under _InterruptManagerHigh in BANK10

    None.

Critical Paths under _main in BANK11

    None.

Critical Paths under _InterruptManagerLow in BANK11

    None.

Critical Paths under _InterruptManagerHigh in BANK11

    None.

Critical Paths under _main in BANK12

    None.

Critical Paths under _InterruptManagerLow in BANK12

    None.

Critical Paths under _InterruptManagerHigh in BANK12

    None.

Critical Paths under _main in BANK13

    None.

Critical Paths under _InterruptManagerLow in BANK13

    None.

Critical Paths under _InterruptManagerHigh in BANK13

    None.

Critical Paths under _main in BANK14

    None.

Critical Paths under _InterruptManagerLow in BANK14

    None.

Critical Paths under _InterruptManagerHigh in BANK14

    None.

Critical Paths under _main in BANK15

    None.

Critical Paths under _InterruptManagerLow in BANK15

    None.

Critical Paths under _InterruptManagerHigh in BANK15

    None.

Call Graph Tables:

 ---------------------------------------------------------------------------------
 (Depth) Function   	        Calls       Base Space   Used Autos Params    Refs
 ---------------------------------------------------------------------------------
 (0) _main                                                 2     2      0   22798
                                             81 COMRAM     2     2      0
                     _Servo_SetAngle
              _application_intialize
 ---------------------------------------------------------------------------------
 (1) _application_intialize                                0     0      0   14357
                      _MSSP_I2C_Init
                   _ServoDriver_Init
 ---------------------------------------------------------------------------------
 (2) _ServoDriver_Init                                     5     1      4    8783
                                             76 COMRAM     5     1      4
                      _MSSP_I2C_Init
                      _PCA_Write_Reg
 ---------------------------------------------------------------------------------
 (3) _MSSP_I2C_Init                                        3     1      2    5574
                                             73 COMRAM     3     1      2
        _I2C_Interrupt_configuration
_I2C_Master_Mode_Clock_Configuration
             _I2C_Pin_Configurations
_I2C_Slave_Mode_Clock_Configurations
 ---------------------------------------------------------------------------------
 (4) _I2C_Slave_Mode_Clock_Configurations                  4     2      2     122
                                              4 COMRAM     4     2      2
 ---------------------------------------------------------------------------------
 (4) _I2C_Pin_Configurations                               0     0      0       0
 ---------------------------------------------------------------------------------
 (4) _I2C_Master_Mode_Clock_Configurations                 4     2      2    4776
                                             69 COMRAM     4     2      2
                            ___fladd
                            ___fldiv
                            ___fltol
                           ___xxtofl
 ---------------------------------------------------------------------------------
 (5) ___fldiv                                             25    17      8    1345
                                             18 COMRAM    25    17      8
                           ___xxtofl (ARG)
 ---------------------------------------------------------------------------------
 (4) _I2C_Interrupt_configuration                          3     1      2     230
                                              4 COMRAM     3     1      2
 ---------------------------------------------------------------------------------
 (1) _Servo_SetAngle                                      10     4      6    8373
                                             69 COMRAM    10     4      6
                      _PCA_Write_Reg
                            ___fladd
                            ___flmul
                            ___fltol
                           ___xxtofl
 ---------------------------------------------------------------------------------
 (5) ___xxtofl                                            14    10      4     447
                                              4 COMRAM    14    10      4
 ---------------------------------------------------------------------------------
 (5) ___fltol                                             10     6      4     354
                                             59 COMRAM    10     6      4
                            ___fladd (ARG)
                            ___fldiv (ARG)
                            ___flmul (ARG)
                           ___xxtofl (ARG)
 ---------------------------------------------------------------------------------
 (2) ___flmul                                             25    17      8    1744
                                             18 COMRAM    25    17      8
                           ___xxtofl (ARG)
 ---------------------------------------------------------------------------------
 (5) ___fladd                                             16     8      8    2486
                                             43 COMRAM    16     8      8
                            ___fldiv (ARG)
                            ___flmul (ARG)
                           ___xxtofl (ARG)
 ---------------------------------------------------------------------------------
 (3) _PCA_Write_Reg                                        6     1      5    2785
                                             10 COMRAM     6     1      5
         _MSSP_I2C_Master_Send_Start
          _MSSP_I2C_Master_Send_Stop
     _MSSP_I2C_Master_Write_Blocking
 ---------------------------------------------------------------------------------
 (4) _MSSP_I2C_Master_Write_Blocking                       6     1      5     802
                                              4 COMRAM     6     1      5
 ---------------------------------------------------------------------------------
 (4) _MSSP_I2C_Master_Send_Stop                            3     1      2     108
                                              4 COMRAM     3     1      2
 ---------------------------------------------------------------------------------
 (4) _MSSP_I2C_Master_Send_Start                           3     1      2     108
                                              4 COMRAM     3     1      2
 ---------------------------------------------------------------------------------
 Estimated maximum stack depth 5
 ---------------------------------------------------------------------------------
 (Depth) Function   	        Calls       Base Space   Used Autos Params    Refs
 ---------------------------------------------------------------------------------
 (6) _InterruptManagerLow                                  3     3      0     120
                                              1 COMRAM     3     3      0
                           _INT1_ISR
                            _RB4_ISR
                            _RB5_ISR
                            _RB6_ISR
                            _RB7_ISR
 ---------------------------------------------------------------------------------
 (7) _RB7_ISR                                              1     1      0      30
                                              0 COMRAM     1     1      0
 ---------------------------------------------------------------------------------
 (7) _RB6_ISR                                              1     1      0      30
                                              0 COMRAM     1     1      0
 ---------------------------------------------------------------------------------
 (7) _RB5_ISR                                              1     1      0      30
                                              0 COMRAM     1     1      0
 ---------------------------------------------------------------------------------
 (7) _RB4_ISR                                              1     1      0      30
                                              0 COMRAM     1     1      0
 ---------------------------------------------------------------------------------
 (7) _INT1_ISR                                             0     0      0       0
 ---------------------------------------------------------------------------------
 Estimated maximum stack depth 7
 ---------------------------------------------------------------------------------
 (Depth) Function   	        Calls       Base Space   Used Autos Params    Refs
 ---------------------------------------------------------------------------------
 (8) _InterruptManagerHigh                                 0     0      0       0
                           _INT0_ISR
                           _INT2_ISR
 ---------------------------------------------------------------------------------
 (9) _INT2_ISR                                             0     0      0       0
 ---------------------------------------------------------------------------------
 (9) _INT0_ISR                                             0     0      0       0
 ---------------------------------------------------------------------------------
 Estimated maximum stack depth 9
 ---------------------------------------------------------------------------------

 Call Graph Graphs:

 _main (ROOT)
   _Servo_SetAngle
     _PCA_Write_Reg
       _MSSP_I2C_Master_Send_Start
       _MSSP_I2C_Master_Send_Stop
       _MSSP_I2C_Master_Write_Blocking
     ___fladd
       ___fldiv (ARG)
         ___xxtofl (ARG)
       ___flmul (ARG)
         ___xxtofl (ARG)
       ___xxtofl (ARG)
     ___flmul
       ___xxtofl (ARG)
     ___fltol
       ___fladd (ARG)
         ___fldiv (ARG)
           ___xxtofl (ARG)
         ___flmul (ARG)
           ___xxtofl (ARG)
         ___xxtofl (ARG)
       ___fldiv (ARG)
         ___xxtofl (ARG)
       ___flmul (ARG)
         ___xxtofl (ARG)
       ___xxtofl (ARG)
     ___xxtofl
   _application_intialize
     _MSSP_I2C_Init
       _I2C_Interrupt_configuration
       _I2C_Master_Mode_Clock_Configurations
         ___fladd
           ___fldiv (ARG)
             ___xxtofl (ARG)
           ___flmul (ARG)
             ___xxtofl (ARG)
           ___xxtofl (ARG)
         ___fldiv
           ___xxtofl (ARG)
         ___fltol
           ___fladd (ARG)
             ___fldiv (ARG)
               ___xxtofl (ARG)
             ___flmul (ARG)
               ___xxtofl (ARG)
             ___xxtofl (ARG)
           ___fldiv (ARG)
             ___xxtofl (ARG)
           ___flmul (ARG)
             ___xxtofl (ARG)
           ___xxtofl (ARG)
         ___xxtofl
       _I2C_Pin_Configurations
       _I2C_Slave_Mode_Clock_Configurations
     _ServoDriver_Init
       _MSSP_I2C_Init
         _I2C_Interrupt_configuration
         _I2C_Master_Mode_Clock_Configurations
           ___fladd
             ___fldiv (ARG)
               ___xxtofl (ARG)
             ___flmul (ARG)
               ___xxtofl (ARG)
             ___xxtofl (ARG)
           ___fldiv
             ___xxtofl (ARG)
           ___fltol
             ___fladd (ARG)
               ___fldiv (ARG)
                 ___xxtofl (ARG)
               ___flmul (ARG)
                 ___xxtofl (ARG)
               ___xxtofl (ARG)
             ___fldiv (ARG)
               ___xxtofl (ARG)
             ___flmul (ARG)
               ___xxtofl (ARG)
             ___xxtofl (ARG)
           ___xxtofl
         _I2C_Pin_Configurations
         _I2C_Slave_Mode_Clock_Configurations
       _PCA_Write_Reg
         _MSSP_I2C_Master_Send_Start
         _MSSP_I2C_Master_Send_Stop
         _MSSP_I2C_Master_Write_Blocking

 _InterruptManagerLow (ROOT)
   _INT1_ISR
   _RB4_ISR
   _RB5_ISR
   _RB6_ISR
   _RB7_ISR

 _InterruptManagerHigh (ROOT)
   _INT0_ISR
   _INT2_ISR

 Address spaces:
Name               Size   Autos  Total    Cost      Usage
BIGRAM             F7F      0       0      37        0.0%
EEDATA             400      0       0       0        0.0%
BITBANK14          100      0       0      32        0.0%
BANK14             100      0       0      33        0.0%
BITBANK13          100      0       0      30        0.0%
BANK13             100      0       0      31        0.0%
BITBANK12          100      0       0      28        0.0%
BANK12             100      0       0      29        0.0%
BITBANK11          100      0       0      26        0.0%
BANK11             100      0       0      27        0.0%
BITBANK10          100      0       0      24        0.0%
BANK10             100      0       0      25        0.0%
BITBANK9           100      0       0      22        0.0%
BANK9              100      0       0      23        0.0%
BITBANK8           100      0       0      20        0.0%
BANK8              100      0       0      21        0.0%
BITBANK7           100      0       0      18        0.0%
BANK7              100      0       0      19        0.0%
BITBANK6           100      0       0      16        0.0%
BANK6              100      0       0      17        0.0%
BITBANK5           100      0       0      14        0.0%
BANK5              100      0       0      15        0.0%
BITBANK4           100      0       0      12        0.0%
BANK4              100      0       0      13        0.0%
BITBANK3           100      0       0      10        0.0%
BANK3              100      0       0      11        0.0%
BITBANK2           100      0       0       8        0.0%
BANK2              100      0       0       9        0.0%
BITBANK1           100      0       0       6        0.0%
BANK1              100      0       0       7        0.0%
BITBANK15           80      0       0      35        0.0%
BANK15              80      0       0      36        0.0%
BITBANK0            80      0       0       4        0.0%
BANK0               80      0      2D       5       35.2%
BITCOMRAM           7E      0       0       0        0.0%
COMRAM              7E     53      75       1       92.9%
BITSFR               0      0       0     200        0.0%
SFR                  0      0       0     200        0.0%
STACK                0      0       0       2        0.0%
NULL                 0      0       0       0        0.0%
ABS                  0      0      A2      34        0.0%
DATA                 0      0      A2       3        0.0%
CODE                 0      0       0       0        0.0%


Microchip Technology PIC18 Macro Assembler V2.30 build 20200825195618 
Symbol Table                                                                                   Sat Sep 24 04:30:33 2022

                                 ___fldiv@aexp 002B                                   ___fldiv@bexp 002A  
                                 ___fldiv@sign 0023                                    _SSPSTATbits 000FC7  
                                           bsr 000FE0                          ??_InterruptManagerLow 0002  
                                          l140 1948                                            l134 1850  
                                          l610 18C6                                            l603 18A6  
                                          l605 18A8                                            l621 186E  
                                          l607 18B6                                            l623 1870  
                                          l631 1704                                            l703 1492  
                                          l640 1742                                            l625 187E  
                                          l706 14AA                                            l635 1708  
                                          l628 188E                                            l637 1716  
                                          l725 162A                                            l735 13D4  
                                          l583 114A                                            l577 10C8  
                                          l738 17A8                                            l595 11F6  
                                          l692 18F8                                            l687 16DA  
                                          l695 19B6                                            l699 141E  
                       ??_InterruptManagerHigh 0001                      _RB5_InterruptHandler_HIGH 0064  
                                          wreg 000FE8                                   ___flmul@aexp 0024  
                                 ___flmul@bexp 0025                                   ___flmul@sign 001F  
                                 ___flmul@temp 002A                                   ___flmul@prod 0026  
                              __end_of_RB4_ISR 19B2                                __end_of_RB5_ISR 1998  
                              __end_of_RB6_ISR 197E                                __end_of_RB7_ISR 1964  
                                 ___fltol@exp1 0045                                           l1038 12FC  
                                         l3010 0294                                           l1410 1048  
                                         l1403 0FEC                                           l1323 0EFC  
                                         l3100 0448                                           l3020 02C8  
                                         l3012 0296                                           l1325 0D5C  
                                         l3102 044A                                           l1270 0456  
                                         l3030 02FA                                           l3014 02A6  
                                         l3022 02D0                                           l3006 027A  
                                         l1334 0DA2                                           l1271 041C  
                                         l3200 0718                                           l3120 04D2  
                                         l3112 049A                                           l3104 0454  
                                         l3040 0330                                           l3032 0300  
                                         l3024 02E0                                           l3016 02B6  
                                         l3008 0286                                           l1336 0E1A  
                                         l1328 0D20                                           l1337 0E08  
                                         l3202 0726                                           l3122 04D6  
                                         l3114 04AA                                           l3106 0476  
                                         l3130 04F6                                           l3050 036C  
                                         l3042 0340                                           l3034 030E  
                                         l3026 02E6                                           l3018 02C6  
                                         l1362 09F4                                           l3210 0B70  
                                         l1355 07FE                                           l3204 0728  
                                         l3132 051C                                           l3140 0572  
                                         l3124 04E4                                           l3116 04B8  
                                         l3108 0486                                           l3060 038A  
                                         l3052 037A                                           l3044 0342  
                                         l3036 0310                                           l3028 02F8  
                                         l1372 0B24                                           l1364 0A6C  
                                         l3300 0DA0                                           l3220 0BB0  
                                         l3212 0B7E                                           l1269 0468  
                                         l1365 0A5A                                           l3150 05C6  
                                         l3142 0598                                           l1286 0582  
                                         l3134 0550                                           l3126 04E6  
                                         l3118 04C6                                           l1278 0738  
                                         l3070 039E                                           l3062 038E  
                                         l3054 037E                                           l3038 0320  
                                         l3046 034A                                           l3310 0E00  
                                         l3302 0DB2                                           l3230 0BD6  
                                         l3222 0BB2                                           l3214 0B80  
                                         l1295 0652                                           l1359 0B62  
                                         l1296 0640                                           l3160 05F0  
                                         l3152 05D4                                           l3144 05A8  
                                         l3136 0552                                           l3128 04F0  
                                         l3080 03B2                                           l3072 03A2  
                                         l3064 0392                                           l3056 0382  
                                         l3048 035A                                           l3320 0E6E  
                                         l3304 0DC0                                           l3240 0C16  
                                         l3232 0BE4                                           l3216 0B90  
                                         l3224 0BBA                                           l3208 0B64  
                                         l3170 0622                                           l3162 0600  
                                         l3154 05D6                                           l3138 0562  
                                         l3090 0404                                           l3082 03B6  
                                         l3074 03A6                                           l3066 0396  
                                         l3058 0386                                           l3410 0FD6  
                                         l3402 0F8E                                           l3330 0ED8  
                                         l3314 0E2A                                           l3322 0E72  
                                         l3306 0DC4                                           l3250 0C56  
                                         l3242 0C18                                           l3234 0BE6  
                                         l3226 0BCA                                           l3218 0BA0  
                                         l3500 186A                                           l3180 067C  
                                         l3172 0638                                           l3156 05E4  
                                         l3148 05BC                                           l3164 0602  
                                         l3092 0414                                           l3076 03AA  
                                         l3068 039A                                           l3084 03BA  
                                         l3420 1056                                           l3412 0FE2  
                                         l3404 0F96                                           l1396 0F54  
                                         l3332 0EDC                                           l3324 0E8C  
                                         l3316 0E36                                           l3308 0DD2  
                                         l3260 0C86                                           l3252 0C5E  
                                         l3236 0BF6                                           l3244 0C20  
                                         l3228 0BD0                                           l3502 188E  
                                         l3510 16DC                                           l3190 06F8  
                                         l3182 06B6                                           l3158 05EC  
                                         l3166 0610                                           l3094 042A  
                                         l3086 03BE                                           l3078 03AE  
                                         l3430 109E                                           l3422 1058  
                                         l3414 101E                                           l3406 0FA2  
                                         l3334 0EEA                                           l3326 0EA2  
                                         l3318 0E44                                           l3270 0CC4  
                                         l3262 0C86                                           l3254 0C62  
                                         l3246 0C30                                           l3238 0C06  
                                         l1399 10B0                                           l3512 16EE  
                                         l3192 06FC                                           l3176 0662  
                                         l3184 06B8                                           l3168 0614  
                                         l3096 0436                                           l3088 03E8  
                                         l3600 0756                                           l3360 1262  
                                         l3352 1222                                           l3432 10A0  
                                         l3424 105C                                           l3416 102A  
                                         l3408 0FD4                                           l3336 0EF0  
                                         l3328 0EBC                                           l3280 0D10  
                                         l3272 0CD4                                           l3248 0C46  
                                         l3440 163E                                           l3514 1700  
                                         l3194 070A                                           l3186 06C8  
                                         l3178 066E                                           l3098 043A  
                                         l3610 079C                                           l3602 0766  
                                         l3370 1292                                           l3362 1270  
                                         l3354 124C                                           l3346 11F8  
                                         l3426 1080                                           l3418 1038  
                                         l3338 0EF2                                           l3290 0D5A  
                                         l3282 0D1E                                           l3274 0CE4  
                                         l3266 0C9A                                           l3258 0C76  
                                         l3442 1642                                           l3450 18DA  
                                         l3530 10E4                                           l3522 10B2  
                                         l3516 1726                                           l3508 16DC  
                                         l3196 0710                                           l3188 06D8  
                                         l3700 0AC0                                           l3620 07C8  
                                         l3612 07A2                                           l3604 0776  
                                         l3380 12BC                                           l3372 129C  
                                         l3356 124E                                           l3348 120E  
                                         l3428 1090                                           l3460 13FA  
                                         l3292 0D6C                                           l3284 0D2A  
                                         l3276 0CEC                                           l3268 0CB4  
                                         l3444 165C                                           l3436 162C  
                                         l3452 18DE                                           l3540 1148  
                                         l3532 10F4                                           l3524 10B2  
                                         l3518 1736                                           l3198 0712  
                                         l3710 0B28                                           l3702 0AC4  
                                         l3630 081E                                           l3622 07D8  
                                         l3614 07A8                                           l3606 0786  
                                         l3382 12CC                                           l3358 125E  
                                         l3390 0F00                                           l3470 144C  
                                         l3462 1400                                           l3294 0D82  
                                         l3286 0D48                                           l3278 0CFC  
                                         l3438 162C                                           l3454 19B2  
                                         l3446 18C8                                           l3550 118A  
                                         l3542 1150                                           l3534 110E  
                                         l3526 10C4                                           l3720 0B52  
                                         l3712 0B38                                           l3704 0ADE  
                                         l3640 085E                                           l3624 07E8  
                                         l3616 07B6                                           l3608 078C  
                                         l3384 12DC                                           l3368 1288  
                                         l3392 0F10                                           l3480 1490  
                                         l3472 144E                                           l3464 141C  
                                         l3456 13D6                                           l3296 0D88  
                                         l3288 0D4A                                           l3448 18C8  
                                         l3560 11CC                                           l3552 1190  
                                         l3544 1160                                           l3536 1128  
                                         l3528 10CA                                           l3490 18C6  
                                         l3570 1744                                           l3714 0B46  
                                         l3706 0AF2                                           l3650 08A8  
                                         l3642 086A                                           l3634 0832  
                                         l3626 07EE                                           l3618 07B8  
                                         l3386 12EC                                           l3378 12B0  
                                         l3394 0F1E                                           l3482 1496  
                                         l3474 1450                                           l3466 1422  
                                         l3458 13DE                                           l3298 0D92  
                                         l3562 11E6                                           l3554 11AA  
                                         l3538 112E                                           l3546 116C  
                                         l3484 1890                                           l3580 179C  
                                         l3572 1748                                           l3716 0B48  
                                         l3708 0B0C                                           l3660 08FA  
                                         l3652 08B4                                           l3644 0882  
                                         l3636 083E                                           l3628 080E  
                                         l3396 0F64                                           l3476 146E  
                                         l3468 144A                                           l3564 11E8  
                                         l3556 11AC                                           l3548 1170  
                                         l3486 1890                                           l3574 1754  
                                         l3718 0B4E                                           l3670 0978  
                                         l3662 090A                                           l3654 08C4  
                                         l3646 088E                                           l3638 0848  
                                         l3398 0F7A                                           l3478 1474  
                                         l3566 11F4                                           l3558 11C6  
                                         l3590 159A                                           l3582 1572  
                                         l3902 1810                                           l3488 18A2  
                                         l3496 1858                                           l3576 176C  
                                         l3680 09F2                                           l3672 09AE  
                                         l3664 0926                                           l3656 08D0  
                                         l3648 089A                                           l3584 1572  
                                         l3904 182C                                           l3498 1858  
                                         l3578 1784                                           l3690 0A52  
                                         l3682 0A04                                           l3674 09BC  
                                         l3666 0932                                           l3658 08E0  
                                         l3594 073A                                           l3586 1584  
                                         l3906 1830                                           l3684 0A12  
                                         l3676 09DA                                           l3668 094E  
                                         l3596 0746                                           l3780 1314  
                                         l3588 1596                                           l3772 1928  
                                         l3908 1834                                           l3694 0A7C  
                                         l3686 0A16                                           l3678 09E4  
                                         l3598 0754                                           l3782 131E  
                                         l3774 12FE                                           l3696 0A88  
                                         l3688 0A24                                           l3784 1392  
                                         l3776 12FE                                           l3698 0A96  
                                         l3786 13B2                                           l3778 1310  
                                         l3788 13B4                                           l3894 1804  
                                         l3896 1808                                           u3000 064E  
                                         u3001 064A                                           u3010 0662  
                                         u3011 065E                                           u3020 067C  
                                         u3100 0B90                                           u3021 0678  
                                         u3101 0B8C                                           _LATA 000F89  
                                         u3030 06B6                                           u3110 0BA0  
                                         _LATB 000F8A                                           u3031 06B2  
                                         u3111 0B9C                                           _LATC 000F8B  
                                         u3040 06C8                                           u3200 0D6C  
                                         u3120 0BE4                                           _LATD 000F8C  
                                         u3041 06C4                                           u3201 0D68  
                                         u3121 0BE0                                           _LATE 000F8D  
                                         u3050 06D8                                           u3210 0D82  
                                         u3130 0BF6                                           u3051 06D4  
                                         u3211 0D7E                                           u3131 0BF2  
                                         u3060 06F8                                           u3300 0EBC  
                                         u3220 0DA0                                           u3140 0C06  
                                         u3061 06F4                                           u3301 0EB8  
                                         u3221 0D9C                                           u3141 0C02  
                                         u3070 070A                                           u3310 0EEA  
                                         u3230 0DC0                                           u3150 0C46  
                                         u3071 0706                                           u3311 0EE6  
                                         u3231 0DBC                                           u3151 0C42  
                                         u3080 0726                                           u3320 120E  
                                         u3400 0F1E                                           u3240 0DD2  
                                         u3160 0C86                                           u3081 0722  
                                         u3321 120A                                           u3401 0F1A  
                                         u3241 0DCE                                           u3161 0C82  
                                         u3330 1242                                           u3410 0F7A  
                                         u4050 1310                                           u3250 0E00  
                                         u3170 0CFC                                           u3090 0B7E  
                                         u3411 0F76                                           u4051 130C  
                                         u3251 0DFC                                           u3171 0CF8  
                                         u3091 0B7A                                           u2700 0294  
                                         u3340 1270                                           u3420 0FD0  
                                         u3260 0E16                                           u3180 0D1E  
                                         u3500 18DA                                           u2701 0290  
                                         u3341 126C                                           u3421 0FCC  
                                         u3261 0E12                                           u3181 0D1A  
                                         u3501 18D6                                           u2710 02A6  
                                         u3350 1284                                           u3430 101A  
                                         u3510 13FA                                           u3270 0E2A  
                                         u3190 0D48                                           u2711 02A2  
                                         u3351 1280                                           u3335 1238  
                                         u3431 1016                                           u3511 13F6  
                                         u3271 0E26                                           u3191 0D44  
                                         u3600 188E                                           u2800 0400  
                                         u2720 02B6                                           u3360 12AC  
                                         u3440 1038                                           u3520 141C  
                                         u3280 0E44                                           u4240 1850  
                                         u3601 188A                                           u2801 03FA  
                                         u2721 02B2                                           u3361 12A8  
                                         u3441 1034                                           u3521 1418  
                                         u3281 0E40                                           u4241 184C  
                                         u3610 16EE                                           u2810 0402  
                                         u2730 02F8                                           u3370 12CC  
                                         u3450 1048                                           u3530 146E  
                                         u3290 0E8C                                           u3611 16EA  
                                         u2731 02F4                                           u3371 12C8  
                                         u3451 1044                                           u3531 146A  
                                         u3291 0E88                                           u3620 1700  
                                         u2900 051C                                           u2820 042A  
                                         u2740 030E                                           u3380 12DC  
                                         u3460 1056                                           u3540 1490  
                                         u3700 118A                                           u3621 16FC  
                                         u2901 0518                                           u2821 0426  
                                         u2741 030A                                           u3381 12D8  
                                         u3461 1052                                           u3541 148C  
                                         u3701 1186                                           u3550 18A2  
                                         u3630 1716                                           u2910 0562  
                                         u2830 0448                                           u2750 0320  
                                         u3470 1090                                           u3390 0F10  
                                         u3710 11AA                                           u3551 189E  
                                         u3631 1712                                           u2911 055E  
                                         u2831 0444                                           u2751 031C  
                                         u3471 108C                                           u3391 0F0C  
                                         u3711 11A6                                           u3560 18B6  
                                         u3640 1726                                           u2920 0598  
                                         u2840 0468                                           u2760 0330  
                                         u3800 07C8                                           u3480 109E  
                                         u3720 11C6                                           u3561 18B2  
                                         u3641 1722                                           u2921 0594  
                                         u2841 0464                                           u2761 032C  
                                         u3801 07C4                                           u3481 109A  
                                         u3721 11C2                                           u3570 18C6  
                                         u2930 05A8                                           u2850 0476  
                                         u2770 036C                                           u3810 07D8  
                                         u3490 163E                                           u3730 11E6  
                                         u3650 10C4                                           u3571 18C2  
                                         u2931 05A4                                           u2851 0472  
                                         u2771 0368                                           u3811 07D4  
                                         u3491 163A                                           u3731 11E2  
                                         u3651 10C0                                           u3580 186A  
                                         u2940 05D4                                           u2860 0486  
                                         u2780 037A                                           u3900 0A7C  
                                         u3820 080E                                           u3660 10E4  
                                         u3740 1584                                           u3581 1866  
                                         u2941 05D0                                           u2861 0482  
                                         u2781 0376                                           u3901 0A78  
                                         u3821 080A                                           u3661 10E0  
                                         u3741 1580                                           u3590 187E  
                                         u2950 05E4                                           u2870 04B8  
                                         u2790 03E8                                           u3910 0A96  
                                         u3830 081E                                           u3670 110E  
                                         u3750 1596                                           u3591 187A  
                                         u2951 05E0                                           u2871 04B4  
                                         u2791 03E4                                           u3911 0A92  
                                         u3831 081A                                           u3671 110A  
                                         u3751 1592                                           u2960 0600  
                                         u2880 04C6                                           u3920 0ADE  
                                         u3840 0998                                           u3760 0754  
                                         u3680 1128                                           u2961 05FC  
                                         u2881 04C2                                           u3921 0ADA  
                                         u3761 0750                                           u3681 1124  
                                         u2970 0610                                           u2890 04E4  
                                         u3930 0B0C                                           u3850 09F2  
                                         u3770 0766                                           u3690 1148  
                                         u2971 060C                                           u2891 04E0  
                                         u3931 0B08                                           u3851 09EE  
                                         u3771 0762                                           u3691 1144  
                                         u2980 0622                                           u3940 0B46  
                                         u3860 0A12                                           u3780 0776  
                                         u2981 061E                                           u3941 0B42  
                                         u3861 0A0E                                           u3845 098E  
                                         u3781 0772                                           u2990 0638  
                                         u3870 0A24                                           u3790 07B6  
                                         u2991 0634                                           u3871 0A20  
                                         u3791 07B2                                           u3880 0A52  
                                         u3881 0A4E                                           u3890 0A68  
                                         u3891 0A64                        ??_application_intialize 0052  
                     _RB4_InterruptHandler_LOW 0066                                           _main 1804  
                     _RB7_InterruptHandler_LOW 005A                                           fsr2h 000FDA  
                                         indf2 000FDF                                           fsr1l 000FE1  
                                         fsr2l 000FD9                                           btemp 0076  
                                         prodh 000FF4                                           prodl 000FF3  
                                         start 0276                                ___fldiv@new_exp 0024  
                                 ___param_bank 000000                               __end_of_INT0_ISR 19CA  
                             __end_of_INT1_ISR 19C2                               __end_of_INT2_ISR 19C6  
                                ___fltol@sign1 0044                                __end_of___fladd 073A  
                                        ?_main 0001                         Servo_SetAngle@servo_no 004A  
                              __end_of___fldiv 0EFE                                __end_of___flmul 0B64  
                              __end_of___fltol 12FE                    ??_MSSP_I2C_Master_Send_Stop 0007  
                                        i1l201 0046                                          i1l211 0186  
                                        i1l203 0086                                          i1l301 19B0  
                                        i1l213 01C6                                          i1l205 00C6  
                                        i1l310 1996                                          i1l222 0266  
                                        i1l215 0206                                          i1l207 0106  
                                        i1l217 0246                                          i1l209 0146  
                                        i1l219 0256                                          i1l319 197C  
                                        i1l328 1962                                          i1l288 19C0  
                                        i2l180 14FE                                          i2l190 154E  
                                        i2l182 150E                                          i2l192 155E  
                                        i2l184 151E                                          i2l176 14CE  
                                        i2l186 152E                                          i2l178 14EE  
                                        i2l195 156E                                          i2l284 19C8  
                                        i2l292 19C4                                          i2l188 153E  
                                        _PORTA 000F80                                          _PORTB 000F81  
                                        _PORTC 000F82                                          _PORTD 000F83  
                                        _PORTE 000F84                                          _TRISA 000F92  
                                        _TRISB 000F93                                          _TRISC 000F94  
                                        _TRISD 000F95                                          _TRISE 000F96  
                                        _angle 0070                                          _flags 0071  
                                        main@i 0052                                          tablat 000FF5  
                         PCA_Write_Reg@i2c_obj 000B                                          ttemp5 0077  
                                        ttemp6 007A                                          ttemp7 007E  
                                        status 000FD8                                          wtemp8 0077  
             ServoDriver_Init@servo_driver_obj 004F                    _I2C_DefaultInterruptHandler 0058  
                              __initialization 17AA         MSSP_I2C_Master_Write_Blocking@i2c_data 0007  
                                 __end_of_main 1858                                  _lat_registers 008A  
                                       ??_main 0052                      Servo_SetAngle@reg_addrees 004F  
                                __activetblptr 000002                                      ??_RB4_ISR 0001  
                      ?_I2C_Pin_Configurations 0001                                      ??_RB5_ISR 0001  
                                    ??_RB6_ISR 0001                                      ??_RB7_ISR 0001  
                        RB5_ISR@Handler_Select 0001                   ??_MSSP_I2C_Master_Send_Start 0007  
                                       i1l2212 199A                                         i1l2214 199C  
                                       i1l2222 1980                                         i1l2208 19BE  
                                       i1l2224 1982                                         i1l2232 1966  
                                       i1l2218 19B0                                         i1l2234 1968  
                                       i1l2242 194C                                         i1l2228 1996  
                                       i1l2244 194E                                         i1l2238 197C  
                                       i1l2510 0026                                         i1l2248 1962  
                                       i1l2600 0264                                         i1l2520 0070  
                                       i1l2512 0034                                         i1l2530 00B0  
                                       i1l2522 007E                                         i1l2514 0042  
                                       i1l2540 00F0                                         i1l2532 00BE  
                                       i1l2524 0080                                         i1l2516 0054  
                                       i1l2550 0130                                         i1l2542 00FE  
                                       i1l2534 00C0                                         i1l2526 0094  
                                       i1l2518 0062                                         i1l2560 0170  
                                       i1l2552 013E                                         i1l2544 0100  
                                       i1l2536 00D4                                         i1l2528 00A2  
                                       i1l2570 01B0                                         i1l2562 017E  
                                       i1l2554 0140                                         i1l2546 0114  
                                       i1l2538 00E2                                         i1l2580 01F0  
                                       i1l2572 01BE                                         i1l2564 0180  
                                       i1l2556 0154                                         i1l2548 0122  
                                       i1l2590 0230                                         i1l2582 01FE  
                                       i1l2574 01C0                                         i1l2566 0194  
                                       i1l2558 0162                                         i2l2200 19C6  
                                       i1l2592 023E                                         i1l2584 0200  
                                       i1l2576 01D4                                         i1l2568 01A2  
                                       i1l2594 0240                                         i1l2586 0214  
                                       i1l2578 01E2                                         i2l2204 19C2  
                                       i1l2596 0254                                         i1l2588 0222  
                                       i2l2502 155C                                         i2l2506 156C  
                                       i2l2470 14BC                                         i2l2472 14CA  
                                       i2l2490 152C                                         i2l2482 150C  
                                       i2l2474 14DC                                         i2l2476 14EA  
                                       i2l2468 14AE                                         i2l2494 153C  
                                       i2l2486 151C                                         i2l2478 14FC  
                                       i2l2498 154C                      _MSSP_I2C_Master_Send_Stop 1858  
                                       _SSPADD 000FC8                                         _SSPBUF 000FC9  
                             __end_of___xxtofl 10B2                         __size_of_PCA_Write_Reg 0066  
                        __end_of_MSSP_I2C_Init 11F8   __end_of_I2C_Master_Mode_Clock_Configurations 16DC  
__size_of_I2C_Master_Mode_Clock_Configurations 00B0         ??_I2C_Master_Mode_Clock_Configurations 0048  
        ?_I2C_Master_Mode_Clock_Configurations 0046           _I2C_Master_Mode_Clock_Configurations 162C  
                      __size_of_Servo_SetAngle 00D8                                         _s1_obj 0072  
                                    ??___fladd 0034                                      ??___fldiv 001B  
                                    ??___flmul 001B                                      ??___fltol 0040  
                                       clear_0 17F0                 __end_of_I2C_Pin_Configurations 19B8  
          __size_of_MSSP_I2C_Master_Send_Start 0038                                   __pdataCOMRAM 0071  
                                       tblptrh 000FF7                                         tblptrl 000FF6  
                                       tblptru 000FF8                      __size_of_ServoDriver_Init 00BA  
                                 ___xxtofl@arg 000F                                   ___xxtofl@exp 000E  
                                 ___xxtofl@val 0005                                     __accesstop 0080  
                      __end_of__initialization 17F6                   ?_I2C_Interrupt_configuration 0005  
                                    ?_INT0_ISR 0001                                      ?_INT1_ISR 0001  
                                    ?_INT2_ISR 0001                                  ___rparam_used 000001  
                                   ___fltol@f1 003C               ??_MSSP_I2C_Master_Write_Blocking 000A  
              ?_MSSP_I2C_Master_Write_Blocking 0005                     _I2C_Report_Write_Collision 0054  
                               __pcstackCOMRAM 0001             MSSP_I2C_Master_Write_Blocking@_ack 0008  
                                 __pidataBANK0 18FA          MSSP_I2C_Master_Write_Blocking@i2c_obj 0005  
                                _PCA_Write_Reg 1744                          _INT0_InterruptHandler 006E  
                                   ??_INT0_ISR 0001                                     ??_INT1_ISR 0001  
                                   ??_INT2_ISR 0001                 __size_of_application_intialize 0022  
                __end_of_application_intialize 194A                    __end_of_InterruptManagerLow 0276  
                               ?_PCA_Write_Reg 000B                                        _RB4_ISR 1998  
                                      _RB5_ISR 197E                                        _RB6_ISR 1964  
                                      _RB7_ISR 194A                                      ?___xxtofl 0005  
                    _RB6_InterruptHandler_HIGH 0060                  __size_of_InterruptManagerHigh 156A  
                   PCA_Write_Reg@slave_address 000D             __end_of_MSSP_I2C_Master_Send_Start 18C8  
                   _MSSP_I2C_Master_Send_Start 1890                                 _tris_registers 0094  
                     _RB6_InterruptHandler_LOW 005E                                        _i2c_obj 009E  
                                      __Hparam 0000                                 _Servo_SetAngle 12FE  
                                      __Lparam 0000                                        ___fladd 027A  
                                      ___fldiv 0B64                                        ___flmul 073A  
                                      ___fltol 11F8                                        __pcinit 17AA  
                                      __ramtop 1000                                        __ptext0 1804  
                                      __ptext1 1928                                        __ptext2 1572  
                                      __ptext3 10B2                                        __ptext4 18C8  
                                      __ptext5 19B2                                        __ptext6 162C  
                                      __ptext7 0B64                                        __ptext8 13D6  
                                      __ptext9 12FE           __size_of_I2C_Interrupt_configuration 00D6  
                                   ??___xxtofl 0009               MSSP_I2C_Master_Send_Stop@i2c_obj 0005  
                               __pintcode_body 14AC                           end_of_initialization 17F6  
                             _ServoDriver_Init 1572                       PCA_Write_Reg@reg_address 000E  
                                __Lmediumconst 0000                                        int_func 14AC  
                       __end_of_Servo_SetAngle 13D6                                        postdec1 000FE5  
                                      postdec2 000FDD                                        postinc0 000FEE  
                                      postinc2 000FDE                                ??_PCA_Write_Reg 0010  
                        _INT1_InterruptHandler 006C                                      _PORTBbits 000F81  
                                  ___fladd@grs 003B                                  ___xxtofl@sign 000D  
                        Servo_SetAngle@i2c_obj 0046                                      _TRISBbits 000F93  
                                    _TRISCbits 000F94                          RB4_ISR@Handler_Select 0001  
                        RB7_ISR@Handler_Select 0001                                    ___fldiv@grs 0026  
                                  ___fldiv@rem 001F                                    ___flmul@grs 0020  
                            PCA_Write_Reg@data 000F                                ?_Servo_SetAngle 0046  
                            __size_of_INT0_ISR 0004                              __size_of_INT1_ISR 0004  
                            __size_of_INT2_ISR 0004                                  __pidataCOMRAM 19B8  
                          start_initialization 17AA                         __size_of_MSSP_I2C_Init 0146  
                                  __pdataBANK0 0080                                      ___fladd@a 0030  
                                    ___fladd@b 002C                           MSSP_I2C_Init@i2c_obj 004A  
                                    ___fldiv@a 0017                                      ___fldiv@b 0013  
                                     ?_RB4_ISR 0001                                       ?_RB5_ISR 0001  
                                     ?_RB6_ISR 0001                                       ?_RB7_ISR 0001  
                                    ___flmul@a 0017                                      ___flmul@b 0013  
                                  __pbssCOMRAM 0054                            Servo_SetAngle@angle 004B  
                            __size_of___xxtofl 01B4                    ?_MSSP_I2C_Master_Send_Start 0005  
                        _INT2_InterruptHandler 006A                   __end_of_InterruptManagerHigh 1572  
                                _MSSP_I2C_Init 10B2                          _application_intialize 1928  
                                    __pintcode 0008                       ??_I2C_Pin_Configurations 0005  
                                     ?___fladd 002C                                       ?___fldiv 0013  
                                     ?___flmul 0013                                       ?___fltol 003C  
                     __end_of_ServoDriver_Init 162C                                    __pintcodelo 0018  
                 __size_of_InterruptManagerLow 025E                      _RB4_InterruptHandler_HIGH 0068  
                      ServoDriver_Init@i2c_obj 004D                      _RB7_InterruptHandler_HIGH 005C  
  __end_of_I2C_Slave_Mode_Clock_Configurations 18FA   __size_of_I2C_Slave_Mode_Clock_Configurations 0032  
        ??_I2C_Slave_Mode_Clock_Configurations 0007           ?_I2C_Slave_Mode_Clock_Configurations 0005  
          _I2C_Slave_Mode_Clock_Configurations 18C8            __end_of_I2C_Interrupt_configuration 14AC  
                  _I2C_Interrupt_configuration 13D6                       _RB5_InterruptHandler_LOW 0062  
                                     _INT0_ISR 19C6                                       _INT1_ISR 19BE  
                                     _INT2_ISR 19C2                                       _IPR1bits 000F9F  
                                     _IPR2bits 000FA2                                       _PIE1bits 000F9D  
                                     _PIE2bits 000FA0                                 ?_MSSP_I2C_Init 004A  
                                     i1u200_20 0130                                       i1u200_21 012C  
                                     i1u201_20 013E                                       i1u201_21 013A  
                                     i1u210_20 01D4                                       i1u202_20 0154  
                                     i1u210_21 01D0                                       i1u202_21 0150  
                                     i1u211_20 01E2                                       i1u203_20 0162  
                                     i1u211_21 01DE                                       i1u203_21 015E  
                                     i1u140_20 195E                                       i1u212_20 01F0  
                                     i1u204_20 0170                                       i1u140_21 195A  
                                     i1u212_21 01EC                                       i1u204_21 016C  
                                     i1u213_20 01FE                                       i1u205_20 017E  
                                     i1u213_21 01FA                                       i1u205_21 017A  
                                     i1u214_20 0214                                       i1u206_20 0194  
                                     i1u214_21 0210                                       i1u206_21 0190  
                                     i1u215_20 0222                                       i1u207_20 01A2  
                                     i1u215_21 021E                                       i1u207_21 019E  
                                     i1u216_20 0230                                       i1u208_20 01B0  
                                     i1u216_21 022C                                       i1u208_21 01AC  
                                     i1u137_20 19AC                                       i1u217_20 023E  
                                     i1u209_20 01BE                                       i1u137_21 19A8  
                                     i1u217_21 023A                                       i1u209_21 01BA  
                                     i1u138_20 1992                                       i1u218_20 0254  
                                     i1u138_21 198E                                       i1u218_21 0250  
                                     i1u139_20 1978                                       i1u219_20 0264  
                                     i1u139_21 1974                                       i1u219_21 0260  
                                     i1u190_20 0094                                       i1u190_21 0090  
                                     i1u191_20 00A2                                       i1u191_21 009E  
                                     i1u192_20 00B0                                       i1u184_20 0034  
                                     i1u192_21 00AC                                       i1u184_21 0030  
                                     i1u193_20 00BE                                       i1u185_20 0042  
                                     i1u193_21 00BA                                       i1u185_21 003E  
                                     i1u194_20 00D4                                       i1u186_20 0054  
                                     i1u194_21 00D0                                       i1u186_21 0050  
                                     i1u195_20 00E2                                       i1u187_20 0062  
                                     i1u195_21 00DE                                       i1u187_21 005E  
                                     i1u196_20 00F0                                       i1u188_20 0070  
                                     i1u196_21 00EC                                       i1u188_21 006C  
                                     i1u197_20 00FE                                       i1u189_20 007E  
                                     i1u197_21 00FA                                       i1u189_21 007A  
                                     i1u198_20 0114                                       i1u198_21 0110  
                                     i1u199_20 0122                                       i1u199_21 011E  
                                     i2u180_40 153C                                       i2u172_40 14BC  
                                     i2u180_41 1538                                       i2u172_41 14B8  
                                     i2u181_40 154C                                       i2u173_40 14CA  
                                     i2u181_41 1548                                       i2u173_41 14C6  
                                     i2u182_40 155C                                       i2u174_40 14DC  
                                     i2u182_41 1558                                       i2u174_41 14D8  
                                     i2u183_40 156C                                       i2u175_40 14EA  
                                     i2u183_41 1568                                       i2u175_41 14E6  
                                     i2u176_40 14FC                                       i2u176_41 14F8  
                                     i2u177_40 150C                                       i2u177_41 1508  
                                     _PIR1bits 000F9E                                       i2u178_40 151C  
                                     i2u178_41 1518                                       i2u179_40 152C  
                                     i2u179_41 1528                                       _PIR2bits 000FA1  
                ??_I2C_Interrupt_configuration 0007                                       _RCONbits 000FD0  
                  _I2C_Report_Receive_Overflow 0056                               PCA_Write_Reg@ack 0010  
                             __size_of_RB4_ISR 001A                               __size_of_RB5_ISR 001A  
                             __size_of_RB6_ISR 001A                               __size_of_RB7_ISR 001A  
                             ??_Servo_SetAngle 004C                                    _INTCON2bits 000FF1  
                                  _INTCON3bits 000FF0                                      copy_data0 17BE  
                                    copy_data1 17DE                         ?_application_intialize 0001  
                                     __Hrparam 0000                                       __Lrparam 0000  
              __size_of_I2C_Pin_Configurations 0006                               __size_of___fladd 04C0  
                             __size_of___fldiv 039A                               __size_of___flmul 042A  
                             __size_of___fltol 0106                          __end_of_PCA_Write_Reg 17AA  
           __size_of_MSSP_I2C_Master_Send_Stop 0038                     ?_MSSP_I2C_Master_Send_Stop 0005  
            MSSP_I2C_Master_Send_Start@i2c_obj 0005                                       ___xxtofl 0EFE  
                        RB6_ISR@Handler_Select 0001                           _InterruptManagerHigh 0008  
                                     __ptext10 0EFE                                       __ptext11 11F8  
                                     __ptext20 1964                                       __ptext12 073A  
                                     __ptext21 197E                                       __ptext13 027A  
                                     __ptext22 1998                                       __ptext14 1744  
                                     __ptext23 19BE                                       __ptext15 16DC  
                                     __ptext16 1858                                       __ptext25 19C2  
                                     __ptext17 1890                                       __ptext26 19C6  
                                     __ptext19 194A    I2C_Master_Mode_Clock_Configurations@i2c_obj 0046  
   I2C_Slave_Mode_Clock_Configurations@i2c_obj 0005                 Servo_SetAngle@servo_driver_obj 0048  
                                __size_of_main 0054                                ??_MSSP_I2C_Init 004C  
                                     int$flags 0076              __end_of_MSSP_I2C_Master_Send_Stop 1890  
                                   _INTCONbits 000FF2                          ?_InterruptManagerHigh 0001  
                       _I2C_Pin_Configurations 19B2                                       intlevel1 0000  
                                     intlevel2 0000                            _InterruptManagerLow 0018  
                   Servo_SetAngle@angle_in_reg 004D                           ?_InterruptManagerLow 0001  
                            ?_ServoDriver_Init 004D                             ??_ServoDriver_Init 0051  
                               _port_registers 0080         __end_of_MSSP_I2C_Master_Write_Blocking 1744  
      __size_of_MSSP_I2C_Master_Write_Blocking 0068                 _MSSP_I2C_Master_Write_Blocking 16DC  
           I2C_Interrupt_configuration@i2c_obj 0005                                    _SSPCON1bits 000FC6  
                                  _SSPCON2bits 000FC5                                  ___fladd@signs 0038  
                                 ___fladd@aexp 0039                                   ___fladd@bexp 003A  
